
SysTest.elf:     file format elf32-littlearm

Sections:
Idx Name          Size      VMA       LMA       File off  Algn
  0 .isr_vector   0000013c  08000000  08000000  00010000  2**0
                  CONTENTS, ALLOC, LOAD, READONLY, DATA
  1 .text         000076bc  08000140  08000140  00010140  2**3
                  CONTENTS, ALLOC, LOAD, READONLY, CODE
  2 .rodata       000003a8  08007800  08007800  00017800  2**3
                  CONTENTS, ALLOC, LOAD, READONLY, DATA
  3 .init_array   00000004  08007ba8  08007ba8  00017ba8  2**2
                  CONTENTS, ALLOC, LOAD, DATA
  4 .fini_array   00000004  08007bac  08007bac  00017bac  2**2
                  CONTENTS, ALLOC, LOAD, DATA
  5 .data         000001d8  20000000  08007bb0  00020000  2**2
                  CONTENTS, ALLOC, LOAD, DATA
  6 .bss          00000e28  200001d8  08007d88  000201d8  2**3
                  ALLOC
  7 ._user_heap_stack 00000600  20001000  08007d88  00021000  2**0
                  ALLOC
  8 .ARM.attributes 00000029  00000000  00000000  000201d8  2**0
                  CONTENTS, READONLY
  9 .debug_info   0001f115  00000000  00000000  00020201  2**0
                  CONTENTS, READONLY, DEBUGGING
 10 .debug_abbrev 000039eb  00000000  00000000  0003f316  2**0
                  CONTENTS, READONLY, DEBUGGING
 11 .debug_loc    00008c7c  00000000  00000000  00042d01  2**0
                  CONTENTS, READONLY, DEBUGGING
 12 .debug_aranges 00000ae0  00000000  00000000  0004b980  2**3
                  CONTENTS, READONLY, DEBUGGING
 13 .debug_ranges 000012f0  00000000  00000000  0004c460  2**3
                  CONTENTS, READONLY, DEBUGGING
 14 .debug_line   000081dd  00000000  00000000  0004d750  2**0
                  CONTENTS, READONLY, DEBUGGING
 15 .debug_str    00003e44  00000000  00000000  0005592d  2**0
                  CONTENTS, READONLY, DEBUGGING
 16 .comment      0000007c  00000000  00000000  00059771  2**0
                  CONTENTS, READONLY
 17 .debug_frame  00002f28  00000000  00000000  000597f0  2**2
                  CONTENTS, READONLY, DEBUGGING

Disassembly of section .text:

08000140 <__do_global_dtors_aux>:
 8000140:	b510      	push	{r4, lr}
 8000142:	4c05      	ldr	r4, [pc, #20]	; (8000158 <__do_global_dtors_aux+0x18>)
 8000144:	7823      	ldrb	r3, [r4, #0]
 8000146:	b933      	cbnz	r3, 8000156 <__do_global_dtors_aux+0x16>
 8000148:	4b04      	ldr	r3, [pc, #16]	; (800015c <__do_global_dtors_aux+0x1c>)
 800014a:	b113      	cbz	r3, 8000152 <__do_global_dtors_aux+0x12>
 800014c:	4804      	ldr	r0, [pc, #16]	; (8000160 <__do_global_dtors_aux+0x20>)
 800014e:	f3af 8000 	nop.w
 8000152:	2301      	movs	r3, #1
 8000154:	7023      	strb	r3, [r4, #0]
 8000156:	bd10      	pop	{r4, pc}
 8000158:	200001d8 	.word	0x200001d8
 800015c:	00000000 	.word	0x00000000
 8000160:	080077e4 	.word	0x080077e4

08000164 <frame_dummy>:
 8000164:	b508      	push	{r3, lr}
 8000166:	4b03      	ldr	r3, [pc, #12]	; (8000174 <frame_dummy+0x10>)
 8000168:	b11b      	cbz	r3, 8000172 <frame_dummy+0xe>
 800016a:	4903      	ldr	r1, [pc, #12]	; (8000178 <frame_dummy+0x14>)
 800016c:	4803      	ldr	r0, [pc, #12]	; (800017c <frame_dummy+0x18>)
 800016e:	f3af 8000 	nop.w
 8000172:	bd08      	pop	{r3, pc}
 8000174:	00000000 	.word	0x00000000
 8000178:	200001dc 	.word	0x200001dc
 800017c:	080077e4 	.word	0x080077e4

08000180 <strlen>:
 8000180:	4603      	mov	r3, r0
 8000182:	f813 2b01 	ldrb.w	r2, [r3], #1
 8000186:	2a00      	cmp	r2, #0
 8000188:	d1fb      	bne.n	8000182 <strlen+0x2>
 800018a:	1a18      	subs	r0, r3, r0
 800018c:	3801      	subs	r0, #1
 800018e:	4770      	bx	lr

08000190 <__aeabi_drsub>:
 8000190:	f081 4100 	eor.w	r1, r1, #2147483648	; 0x80000000
 8000194:	e002      	b.n	800019c <__adddf3>
 8000196:	bf00      	nop

08000198 <__aeabi_dsub>:
 8000198:	f083 4300 	eor.w	r3, r3, #2147483648	; 0x80000000

0800019c <__adddf3>:
 800019c:	b530      	push	{r4, r5, lr}
 800019e:	ea4f 0441 	mov.w	r4, r1, lsl #1
 80001a2:	ea4f 0543 	mov.w	r5, r3, lsl #1
 80001a6:	ea94 0f05 	teq	r4, r5
 80001aa:	bf08      	it	eq
 80001ac:	ea90 0f02 	teqeq	r0, r2
 80001b0:	bf1f      	itttt	ne
 80001b2:	ea54 0c00 	orrsne.w	ip, r4, r0
 80001b6:	ea55 0c02 	orrsne.w	ip, r5, r2
 80001ba:	ea7f 5c64 	mvnsne.w	ip, r4, asr #21
 80001be:	ea7f 5c65 	mvnsne.w	ip, r5, asr #21
 80001c2:	f000 80e2 	beq.w	800038a <__adddf3+0x1ee>
 80001c6:	ea4f 5454 	mov.w	r4, r4, lsr #21
 80001ca:	ebd4 5555 	rsbs	r5, r4, r5, lsr #21
 80001ce:	bfb8      	it	lt
 80001d0:	426d      	neglt	r5, r5
 80001d2:	dd0c      	ble.n	80001ee <__adddf3+0x52>
 80001d4:	442c      	add	r4, r5
 80001d6:	ea80 0202 	eor.w	r2, r0, r2
 80001da:	ea81 0303 	eor.w	r3, r1, r3
 80001de:	ea82 0000 	eor.w	r0, r2, r0
 80001e2:	ea83 0101 	eor.w	r1, r3, r1
 80001e6:	ea80 0202 	eor.w	r2, r0, r2
 80001ea:	ea81 0303 	eor.w	r3, r1, r3
 80001ee:	2d36      	cmp	r5, #54	; 0x36
 80001f0:	bf88      	it	hi
 80001f2:	bd30      	pophi	{r4, r5, pc}
 80001f4:	f011 4f00 	tst.w	r1, #2147483648	; 0x80000000
 80001f8:	ea4f 3101 	mov.w	r1, r1, lsl #12
 80001fc:	f44f 1c80 	mov.w	ip, #1048576	; 0x100000
 8000200:	ea4c 3111 	orr.w	r1, ip, r1, lsr #12
 8000204:	d002      	beq.n	800020c <__adddf3+0x70>
 8000206:	4240      	negs	r0, r0
 8000208:	eb61 0141 	sbc.w	r1, r1, r1, lsl #1
 800020c:	f013 4f00 	tst.w	r3, #2147483648	; 0x80000000
 8000210:	ea4f 3303 	mov.w	r3, r3, lsl #12
 8000214:	ea4c 3313 	orr.w	r3, ip, r3, lsr #12
 8000218:	d002      	beq.n	8000220 <__adddf3+0x84>
 800021a:	4252      	negs	r2, r2
 800021c:	eb63 0343 	sbc.w	r3, r3, r3, lsl #1
 8000220:	ea94 0f05 	teq	r4, r5
 8000224:	f000 80a7 	beq.w	8000376 <__adddf3+0x1da>
 8000228:	f1a4 0401 	sub.w	r4, r4, #1
 800022c:	f1d5 0e20 	rsbs	lr, r5, #32
 8000230:	db0d      	blt.n	800024e <__adddf3+0xb2>
 8000232:	fa02 fc0e 	lsl.w	ip, r2, lr
 8000236:	fa22 f205 	lsr.w	r2, r2, r5
 800023a:	1880      	adds	r0, r0, r2
 800023c:	f141 0100 	adc.w	r1, r1, #0
 8000240:	fa03 f20e 	lsl.w	r2, r3, lr
 8000244:	1880      	adds	r0, r0, r2
 8000246:	fa43 f305 	asr.w	r3, r3, r5
 800024a:	4159      	adcs	r1, r3
 800024c:	e00e      	b.n	800026c <__adddf3+0xd0>
 800024e:	f1a5 0520 	sub.w	r5, r5, #32
 8000252:	f10e 0e20 	add.w	lr, lr, #32
 8000256:	2a01      	cmp	r2, #1
 8000258:	fa03 fc0e 	lsl.w	ip, r3, lr
 800025c:	bf28      	it	cs
 800025e:	f04c 0c02 	orrcs.w	ip, ip, #2
 8000262:	fa43 f305 	asr.w	r3, r3, r5
 8000266:	18c0      	adds	r0, r0, r3
 8000268:	eb51 71e3 	adcs.w	r1, r1, r3, asr #31
 800026c:	f001 4500 	and.w	r5, r1, #2147483648	; 0x80000000
 8000270:	d507      	bpl.n	8000282 <__adddf3+0xe6>
 8000272:	f04f 0e00 	mov.w	lr, #0
 8000276:	f1dc 0c00 	rsbs	ip, ip, #0
 800027a:	eb7e 0000 	sbcs.w	r0, lr, r0
 800027e:	eb6e 0101 	sbc.w	r1, lr, r1
 8000282:	f5b1 1f80 	cmp.w	r1, #1048576	; 0x100000
 8000286:	d31b      	bcc.n	80002c0 <__adddf3+0x124>
 8000288:	f5b1 1f00 	cmp.w	r1, #2097152	; 0x200000
 800028c:	d30c      	bcc.n	80002a8 <__adddf3+0x10c>
 800028e:	0849      	lsrs	r1, r1, #1
 8000290:	ea5f 0030 	movs.w	r0, r0, rrx
 8000294:	ea4f 0c3c 	mov.w	ip, ip, rrx
 8000298:	f104 0401 	add.w	r4, r4, #1
 800029c:	ea4f 5244 	mov.w	r2, r4, lsl #21
 80002a0:	f512 0f80 	cmn.w	r2, #4194304	; 0x400000
 80002a4:	f080 809a 	bcs.w	80003dc <__adddf3+0x240>
 80002a8:	f1bc 4f00 	cmp.w	ip, #2147483648	; 0x80000000
 80002ac:	bf08      	it	eq
 80002ae:	ea5f 0c50 	movseq.w	ip, r0, lsr #1
 80002b2:	f150 0000 	adcs.w	r0, r0, #0
 80002b6:	eb41 5104 	adc.w	r1, r1, r4, lsl #20
 80002ba:	ea41 0105 	orr.w	r1, r1, r5
 80002be:	bd30      	pop	{r4, r5, pc}
 80002c0:	ea5f 0c4c 	movs.w	ip, ip, lsl #1
 80002c4:	4140      	adcs	r0, r0
 80002c6:	eb41 0101 	adc.w	r1, r1, r1
 80002ca:	f411 1f80 	tst.w	r1, #1048576	; 0x100000
 80002ce:	f1a4 0401 	sub.w	r4, r4, #1
 80002d2:	d1e9      	bne.n	80002a8 <__adddf3+0x10c>
 80002d4:	f091 0f00 	teq	r1, #0
 80002d8:	bf04      	itt	eq
 80002da:	4601      	moveq	r1, r0
 80002dc:	2000      	moveq	r0, #0
 80002de:	fab1 f381 	clz	r3, r1
 80002e2:	bf08      	it	eq
 80002e4:	3320      	addeq	r3, #32
 80002e6:	f1a3 030b 	sub.w	r3, r3, #11
 80002ea:	f1b3 0220 	subs.w	r2, r3, #32
 80002ee:	da0c      	bge.n	800030a <__adddf3+0x16e>
 80002f0:	320c      	adds	r2, #12
 80002f2:	dd08      	ble.n	8000306 <__adddf3+0x16a>
 80002f4:	f102 0c14 	add.w	ip, r2, #20
 80002f8:	f1c2 020c 	rsb	r2, r2, #12
 80002fc:	fa01 f00c 	lsl.w	r0, r1, ip
 8000300:	fa21 f102 	lsr.w	r1, r1, r2
 8000304:	e00c      	b.n	8000320 <__adddf3+0x184>
 8000306:	f102 0214 	add.w	r2, r2, #20
 800030a:	bfd8      	it	le
 800030c:	f1c2 0c20 	rsble	ip, r2, #32
 8000310:	fa01 f102 	lsl.w	r1, r1, r2
 8000314:	fa20 fc0c 	lsr.w	ip, r0, ip
 8000318:	bfdc      	itt	le
 800031a:	ea41 010c 	orrle.w	r1, r1, ip
 800031e:	4090      	lslle	r0, r2
 8000320:	1ae4      	subs	r4, r4, r3
 8000322:	bfa2      	ittt	ge
 8000324:	eb01 5104 	addge.w	r1, r1, r4, lsl #20
 8000328:	4329      	orrge	r1, r5
 800032a:	bd30      	popge	{r4, r5, pc}
 800032c:	ea6f 0404 	mvn.w	r4, r4
 8000330:	3c1f      	subs	r4, #31
 8000332:	da1c      	bge.n	800036e <__adddf3+0x1d2>
 8000334:	340c      	adds	r4, #12
 8000336:	dc0e      	bgt.n	8000356 <__adddf3+0x1ba>
 8000338:	f104 0414 	add.w	r4, r4, #20
 800033c:	f1c4 0220 	rsb	r2, r4, #32
 8000340:	fa20 f004 	lsr.w	r0, r0, r4
 8000344:	fa01 f302 	lsl.w	r3, r1, r2
 8000348:	ea40 0003 	orr.w	r0, r0, r3
 800034c:	fa21 f304 	lsr.w	r3, r1, r4
 8000350:	ea45 0103 	orr.w	r1, r5, r3
 8000354:	bd30      	pop	{r4, r5, pc}
 8000356:	f1c4 040c 	rsb	r4, r4, #12
 800035a:	f1c4 0220 	rsb	r2, r4, #32
 800035e:	fa20 f002 	lsr.w	r0, r0, r2
 8000362:	fa01 f304 	lsl.w	r3, r1, r4
 8000366:	ea40 0003 	orr.w	r0, r0, r3
 800036a:	4629      	mov	r1, r5
 800036c:	bd30      	pop	{r4, r5, pc}
 800036e:	fa21 f004 	lsr.w	r0, r1, r4
 8000372:	4629      	mov	r1, r5
 8000374:	bd30      	pop	{r4, r5, pc}
 8000376:	f094 0f00 	teq	r4, #0
 800037a:	f483 1380 	eor.w	r3, r3, #1048576	; 0x100000
 800037e:	bf06      	itte	eq
 8000380:	f481 1180 	eoreq.w	r1, r1, #1048576	; 0x100000
 8000384:	3401      	addeq	r4, #1
 8000386:	3d01      	subne	r5, #1
 8000388:	e74e      	b.n	8000228 <__adddf3+0x8c>
 800038a:	ea7f 5c64 	mvns.w	ip, r4, asr #21
 800038e:	bf18      	it	ne
 8000390:	ea7f 5c65 	mvnsne.w	ip, r5, asr #21
 8000394:	d029      	beq.n	80003ea <__adddf3+0x24e>
 8000396:	ea94 0f05 	teq	r4, r5
 800039a:	bf08      	it	eq
 800039c:	ea90 0f02 	teqeq	r0, r2
 80003a0:	d005      	beq.n	80003ae <__adddf3+0x212>
 80003a2:	ea54 0c00 	orrs.w	ip, r4, r0
 80003a6:	bf04      	itt	eq
 80003a8:	4619      	moveq	r1, r3
 80003aa:	4610      	moveq	r0, r2
 80003ac:	bd30      	pop	{r4, r5, pc}
 80003ae:	ea91 0f03 	teq	r1, r3
 80003b2:	bf1e      	ittt	ne
 80003b4:	2100      	movne	r1, #0
 80003b6:	2000      	movne	r0, #0
 80003b8:	bd30      	popne	{r4, r5, pc}
 80003ba:	ea5f 5c54 	movs.w	ip, r4, lsr #21
 80003be:	d105      	bne.n	80003cc <__adddf3+0x230>
 80003c0:	0040      	lsls	r0, r0, #1
 80003c2:	4149      	adcs	r1, r1
 80003c4:	bf28      	it	cs
 80003c6:	f041 4100 	orrcs.w	r1, r1, #2147483648	; 0x80000000
 80003ca:	bd30      	pop	{r4, r5, pc}
 80003cc:	f514 0480 	adds.w	r4, r4, #4194304	; 0x400000
 80003d0:	bf3c      	itt	cc
 80003d2:	f501 1180 	addcc.w	r1, r1, #1048576	; 0x100000
 80003d6:	bd30      	popcc	{r4, r5, pc}
 80003d8:	f001 4500 	and.w	r5, r1, #2147483648	; 0x80000000
 80003dc:	f045 41fe 	orr.w	r1, r5, #2130706432	; 0x7f000000
 80003e0:	f441 0170 	orr.w	r1, r1, #15728640	; 0xf00000
 80003e4:	f04f 0000 	mov.w	r0, #0
 80003e8:	bd30      	pop	{r4, r5, pc}
 80003ea:	ea7f 5c64 	mvns.w	ip, r4, asr #21
 80003ee:	bf1a      	itte	ne
 80003f0:	4619      	movne	r1, r3
 80003f2:	4610      	movne	r0, r2
 80003f4:	ea7f 5c65 	mvnseq.w	ip, r5, asr #21
 80003f8:	bf1c      	itt	ne
 80003fa:	460b      	movne	r3, r1
 80003fc:	4602      	movne	r2, r0
 80003fe:	ea50 3401 	orrs.w	r4, r0, r1, lsl #12
 8000402:	bf06      	itte	eq
 8000404:	ea52 3503 	orrseq.w	r5, r2, r3, lsl #12
 8000408:	ea91 0f03 	teqeq	r1, r3
 800040c:	f441 2100 	orrne.w	r1, r1, #524288	; 0x80000
 8000410:	bd30      	pop	{r4, r5, pc}
 8000412:	bf00      	nop

08000414 <__aeabi_ui2d>:
 8000414:	f090 0f00 	teq	r0, #0
 8000418:	bf04      	itt	eq
 800041a:	2100      	moveq	r1, #0
 800041c:	4770      	bxeq	lr
 800041e:	b530      	push	{r4, r5, lr}
 8000420:	f44f 6480 	mov.w	r4, #1024	; 0x400
 8000424:	f104 0432 	add.w	r4, r4, #50	; 0x32
 8000428:	f04f 0500 	mov.w	r5, #0
 800042c:	f04f 0100 	mov.w	r1, #0
 8000430:	e750      	b.n	80002d4 <__adddf3+0x138>
 8000432:	bf00      	nop

08000434 <__aeabi_i2d>:
 8000434:	f090 0f00 	teq	r0, #0
 8000438:	bf04      	itt	eq
 800043a:	2100      	moveq	r1, #0
 800043c:	4770      	bxeq	lr
 800043e:	b530      	push	{r4, r5, lr}
 8000440:	f44f 6480 	mov.w	r4, #1024	; 0x400
 8000444:	f104 0432 	add.w	r4, r4, #50	; 0x32
 8000448:	f010 4500 	ands.w	r5, r0, #2147483648	; 0x80000000
 800044c:	bf48      	it	mi
 800044e:	4240      	negmi	r0, r0
 8000450:	f04f 0100 	mov.w	r1, #0
 8000454:	e73e      	b.n	80002d4 <__adddf3+0x138>
 8000456:	bf00      	nop

08000458 <__aeabi_f2d>:
 8000458:	0042      	lsls	r2, r0, #1
 800045a:	ea4f 01e2 	mov.w	r1, r2, asr #3
 800045e:	ea4f 0131 	mov.w	r1, r1, rrx
 8000462:	ea4f 7002 	mov.w	r0, r2, lsl #28
 8000466:	bf1f      	itttt	ne
 8000468:	f012 437f 	andsne.w	r3, r2, #4278190080	; 0xff000000
 800046c:	f093 4f7f 	teqne	r3, #4278190080	; 0xff000000
 8000470:	f081 5160 	eorne.w	r1, r1, #939524096	; 0x38000000
 8000474:	4770      	bxne	lr
 8000476:	f092 0f00 	teq	r2, #0
 800047a:	bf14      	ite	ne
 800047c:	f093 4f7f 	teqne	r3, #4278190080	; 0xff000000
 8000480:	4770      	bxeq	lr
 8000482:	b530      	push	{r4, r5, lr}
 8000484:	f44f 7460 	mov.w	r4, #896	; 0x380
 8000488:	f001 4500 	and.w	r5, r1, #2147483648	; 0x80000000
 800048c:	f021 4100 	bic.w	r1, r1, #2147483648	; 0x80000000
 8000490:	e720      	b.n	80002d4 <__adddf3+0x138>
 8000492:	bf00      	nop

08000494 <__aeabi_ul2d>:
 8000494:	ea50 0201 	orrs.w	r2, r0, r1
 8000498:	bf08      	it	eq
 800049a:	4770      	bxeq	lr
 800049c:	b530      	push	{r4, r5, lr}
 800049e:	f04f 0500 	mov.w	r5, #0
 80004a2:	e00a      	b.n	80004ba <__aeabi_l2d+0x16>

080004a4 <__aeabi_l2d>:
 80004a4:	ea50 0201 	orrs.w	r2, r0, r1
 80004a8:	bf08      	it	eq
 80004aa:	4770      	bxeq	lr
 80004ac:	b530      	push	{r4, r5, lr}
 80004ae:	f011 4500 	ands.w	r5, r1, #2147483648	; 0x80000000
 80004b2:	d502      	bpl.n	80004ba <__aeabi_l2d+0x16>
 80004b4:	4240      	negs	r0, r0
 80004b6:	eb61 0141 	sbc.w	r1, r1, r1, lsl #1
 80004ba:	f44f 6480 	mov.w	r4, #1024	; 0x400
 80004be:	f104 0432 	add.w	r4, r4, #50	; 0x32
 80004c2:	ea5f 5c91 	movs.w	ip, r1, lsr #22
 80004c6:	f43f aedc 	beq.w	8000282 <__adddf3+0xe6>
 80004ca:	f04f 0203 	mov.w	r2, #3
 80004ce:	ea5f 0cdc 	movs.w	ip, ip, lsr #3
 80004d2:	bf18      	it	ne
 80004d4:	3203      	addne	r2, #3
 80004d6:	ea5f 0cdc 	movs.w	ip, ip, lsr #3
 80004da:	bf18      	it	ne
 80004dc:	3203      	addne	r2, #3
 80004de:	eb02 02dc 	add.w	r2, r2, ip, lsr #3
 80004e2:	f1c2 0320 	rsb	r3, r2, #32
 80004e6:	fa00 fc03 	lsl.w	ip, r0, r3
 80004ea:	fa20 f002 	lsr.w	r0, r0, r2
 80004ee:	fa01 fe03 	lsl.w	lr, r1, r3
 80004f2:	ea40 000e 	orr.w	r0, r0, lr
 80004f6:	fa21 f102 	lsr.w	r1, r1, r2
 80004fa:	4414      	add	r4, r2
 80004fc:	e6c1      	b.n	8000282 <__adddf3+0xe6>
 80004fe:	bf00      	nop

08000500 <__aeabi_dmul>:
 8000500:	b570      	push	{r4, r5, r6, lr}
 8000502:	f04f 0cff 	mov.w	ip, #255	; 0xff
 8000506:	f44c 6ce0 	orr.w	ip, ip, #1792	; 0x700
 800050a:	ea1c 5411 	ands.w	r4, ip, r1, lsr #20
 800050e:	bf1d      	ittte	ne
 8000510:	ea1c 5513 	andsne.w	r5, ip, r3, lsr #20
 8000514:	ea94 0f0c 	teqne	r4, ip
 8000518:	ea95 0f0c 	teqne	r5, ip
 800051c:	f000 f8de 	bleq	80006dc <__aeabi_dmul+0x1dc>
 8000520:	442c      	add	r4, r5
 8000522:	ea81 0603 	eor.w	r6, r1, r3
 8000526:	ea21 514c 	bic.w	r1, r1, ip, lsl #21
 800052a:	ea23 534c 	bic.w	r3, r3, ip, lsl #21
 800052e:	ea50 3501 	orrs.w	r5, r0, r1, lsl #12
 8000532:	bf18      	it	ne
 8000534:	ea52 3503 	orrsne.w	r5, r2, r3, lsl #12
 8000538:	f441 1180 	orr.w	r1, r1, #1048576	; 0x100000
 800053c:	f443 1380 	orr.w	r3, r3, #1048576	; 0x100000
 8000540:	d038      	beq.n	80005b4 <__aeabi_dmul+0xb4>
 8000542:	fba0 ce02 	umull	ip, lr, r0, r2
 8000546:	f04f 0500 	mov.w	r5, #0
 800054a:	fbe1 e502 	umlal	lr, r5, r1, r2
 800054e:	f006 4200 	and.w	r2, r6, #2147483648	; 0x80000000
 8000552:	fbe0 e503 	umlal	lr, r5, r0, r3
 8000556:	f04f 0600 	mov.w	r6, #0
 800055a:	fbe1 5603 	umlal	r5, r6, r1, r3
 800055e:	f09c 0f00 	teq	ip, #0
 8000562:	bf18      	it	ne
 8000564:	f04e 0e01 	orrne.w	lr, lr, #1
 8000568:	f1a4 04ff 	sub.w	r4, r4, #255	; 0xff
 800056c:	f5b6 7f00 	cmp.w	r6, #512	; 0x200
 8000570:	f564 7440 	sbc.w	r4, r4, #768	; 0x300
 8000574:	d204      	bcs.n	8000580 <__aeabi_dmul+0x80>
 8000576:	ea5f 0e4e 	movs.w	lr, lr, lsl #1
 800057a:	416d      	adcs	r5, r5
 800057c:	eb46 0606 	adc.w	r6, r6, r6
 8000580:	ea42 21c6 	orr.w	r1, r2, r6, lsl #11
 8000584:	ea41 5155 	orr.w	r1, r1, r5, lsr #21
 8000588:	ea4f 20c5 	mov.w	r0, r5, lsl #11
 800058c:	ea40 505e 	orr.w	r0, r0, lr, lsr #21
 8000590:	ea4f 2ece 	mov.w	lr, lr, lsl #11
 8000594:	f1b4 0cfd 	subs.w	ip, r4, #253	; 0xfd
 8000598:	bf88      	it	hi
 800059a:	f5bc 6fe0 	cmphi.w	ip, #1792	; 0x700
 800059e:	d81e      	bhi.n	80005de <__aeabi_dmul+0xde>
 80005a0:	f1be 4f00 	cmp.w	lr, #2147483648	; 0x80000000
 80005a4:	bf08      	it	eq
 80005a6:	ea5f 0e50 	movseq.w	lr, r0, lsr #1
 80005aa:	f150 0000 	adcs.w	r0, r0, #0
 80005ae:	eb41 5104 	adc.w	r1, r1, r4, lsl #20
 80005b2:	bd70      	pop	{r4, r5, r6, pc}
 80005b4:	f006 4600 	and.w	r6, r6, #2147483648	; 0x80000000
 80005b8:	ea46 0101 	orr.w	r1, r6, r1
 80005bc:	ea40 0002 	orr.w	r0, r0, r2
 80005c0:	ea81 0103 	eor.w	r1, r1, r3
 80005c4:	ebb4 045c 	subs.w	r4, r4, ip, lsr #1
 80005c8:	bfc2      	ittt	gt
 80005ca:	ebd4 050c 	rsbsgt	r5, r4, ip
 80005ce:	ea41 5104 	orrgt.w	r1, r1, r4, lsl #20
 80005d2:	bd70      	popgt	{r4, r5, r6, pc}
 80005d4:	f441 1180 	orr.w	r1, r1, #1048576	; 0x100000
 80005d8:	f04f 0e00 	mov.w	lr, #0
 80005dc:	3c01      	subs	r4, #1
 80005de:	f300 80ab 	bgt.w	8000738 <__aeabi_dmul+0x238>
 80005e2:	f114 0f36 	cmn.w	r4, #54	; 0x36
 80005e6:	bfde      	ittt	le
 80005e8:	2000      	movle	r0, #0
 80005ea:	f001 4100 	andle.w	r1, r1, #2147483648	; 0x80000000
 80005ee:	bd70      	pople	{r4, r5, r6, pc}
 80005f0:	f1c4 0400 	rsb	r4, r4, #0
 80005f4:	3c20      	subs	r4, #32
 80005f6:	da35      	bge.n	8000664 <__aeabi_dmul+0x164>
 80005f8:	340c      	adds	r4, #12
 80005fa:	dc1b      	bgt.n	8000634 <__aeabi_dmul+0x134>
 80005fc:	f104 0414 	add.w	r4, r4, #20
 8000600:	f1c4 0520 	rsb	r5, r4, #32
 8000604:	fa00 f305 	lsl.w	r3, r0, r5
 8000608:	fa20 f004 	lsr.w	r0, r0, r4
 800060c:	fa01 f205 	lsl.w	r2, r1, r5
 8000610:	ea40 0002 	orr.w	r0, r0, r2
 8000614:	f001 4200 	and.w	r2, r1, #2147483648	; 0x80000000
 8000618:	f021 4100 	bic.w	r1, r1, #2147483648	; 0x80000000
 800061c:	eb10 70d3 	adds.w	r0, r0, r3, lsr #31
 8000620:	fa21 f604 	lsr.w	r6, r1, r4
 8000624:	eb42 0106 	adc.w	r1, r2, r6
 8000628:	ea5e 0e43 	orrs.w	lr, lr, r3, lsl #1
 800062c:	bf08      	it	eq
 800062e:	ea20 70d3 	biceq.w	r0, r0, r3, lsr #31
 8000632:	bd70      	pop	{r4, r5, r6, pc}
 8000634:	f1c4 040c 	rsb	r4, r4, #12
 8000638:	f1c4 0520 	rsb	r5, r4, #32
 800063c:	fa00 f304 	lsl.w	r3, r0, r4
 8000640:	fa20 f005 	lsr.w	r0, r0, r5
 8000644:	fa01 f204 	lsl.w	r2, r1, r4
 8000648:	ea40 0002 	orr.w	r0, r0, r2
 800064c:	f001 4100 	and.w	r1, r1, #2147483648	; 0x80000000
 8000650:	eb10 70d3 	adds.w	r0, r0, r3, lsr #31
 8000654:	f141 0100 	adc.w	r1, r1, #0
 8000658:	ea5e 0e43 	orrs.w	lr, lr, r3, lsl #1
 800065c:	bf08      	it	eq
 800065e:	ea20 70d3 	biceq.w	r0, r0, r3, lsr #31
 8000662:	bd70      	pop	{r4, r5, r6, pc}
 8000664:	f1c4 0520 	rsb	r5, r4, #32
 8000668:	fa00 f205 	lsl.w	r2, r0, r5
 800066c:	ea4e 0e02 	orr.w	lr, lr, r2
 8000670:	fa20 f304 	lsr.w	r3, r0, r4
 8000674:	fa01 f205 	lsl.w	r2, r1, r5
 8000678:	ea43 0302 	orr.w	r3, r3, r2
 800067c:	fa21 f004 	lsr.w	r0, r1, r4
 8000680:	f001 4100 	and.w	r1, r1, #2147483648	; 0x80000000
 8000684:	fa21 f204 	lsr.w	r2, r1, r4
 8000688:	ea20 0002 	bic.w	r0, r0, r2
 800068c:	eb00 70d3 	add.w	r0, r0, r3, lsr #31
 8000690:	ea5e 0e43 	orrs.w	lr, lr, r3, lsl #1
 8000694:	bf08      	it	eq
 8000696:	ea20 70d3 	biceq.w	r0, r0, r3, lsr #31
 800069a:	bd70      	pop	{r4, r5, r6, pc}
 800069c:	f094 0f00 	teq	r4, #0
 80006a0:	d10f      	bne.n	80006c2 <__aeabi_dmul+0x1c2>
 80006a2:	f001 4600 	and.w	r6, r1, #2147483648	; 0x80000000
 80006a6:	0040      	lsls	r0, r0, #1
 80006a8:	eb41 0101 	adc.w	r1, r1, r1
 80006ac:	f411 1f80 	tst.w	r1, #1048576	; 0x100000
 80006b0:	bf08      	it	eq
 80006b2:	3c01      	subeq	r4, #1
 80006b4:	d0f7      	beq.n	80006a6 <__aeabi_dmul+0x1a6>
 80006b6:	ea41 0106 	orr.w	r1, r1, r6
 80006ba:	f095 0f00 	teq	r5, #0
 80006be:	bf18      	it	ne
 80006c0:	4770      	bxne	lr
 80006c2:	f003 4600 	and.w	r6, r3, #2147483648	; 0x80000000
 80006c6:	0052      	lsls	r2, r2, #1
 80006c8:	eb43 0303 	adc.w	r3, r3, r3
 80006cc:	f413 1f80 	tst.w	r3, #1048576	; 0x100000
 80006d0:	bf08      	it	eq
 80006d2:	3d01      	subeq	r5, #1
 80006d4:	d0f7      	beq.n	80006c6 <__aeabi_dmul+0x1c6>
 80006d6:	ea43 0306 	orr.w	r3, r3, r6
 80006da:	4770      	bx	lr
 80006dc:	ea94 0f0c 	teq	r4, ip
 80006e0:	ea0c 5513 	and.w	r5, ip, r3, lsr #20
 80006e4:	bf18      	it	ne
 80006e6:	ea95 0f0c 	teqne	r5, ip
 80006ea:	d00c      	beq.n	8000706 <__aeabi_dmul+0x206>
 80006ec:	ea50 0641 	orrs.w	r6, r0, r1, lsl #1
 80006f0:	bf18      	it	ne
 80006f2:	ea52 0643 	orrsne.w	r6, r2, r3, lsl #1
 80006f6:	d1d1      	bne.n	800069c <__aeabi_dmul+0x19c>
 80006f8:	ea81 0103 	eor.w	r1, r1, r3
 80006fc:	f001 4100 	and.w	r1, r1, #2147483648	; 0x80000000
 8000700:	f04f 0000 	mov.w	r0, #0
 8000704:	bd70      	pop	{r4, r5, r6, pc}
 8000706:	ea50 0641 	orrs.w	r6, r0, r1, lsl #1
 800070a:	bf06      	itte	eq
 800070c:	4610      	moveq	r0, r2
 800070e:	4619      	moveq	r1, r3
 8000710:	ea52 0643 	orrsne.w	r6, r2, r3, lsl #1
 8000714:	d019      	beq.n	800074a <__aeabi_dmul+0x24a>
 8000716:	ea94 0f0c 	teq	r4, ip
 800071a:	d102      	bne.n	8000722 <__aeabi_dmul+0x222>
 800071c:	ea50 3601 	orrs.w	r6, r0, r1, lsl #12
 8000720:	d113      	bne.n	800074a <__aeabi_dmul+0x24a>
 8000722:	ea95 0f0c 	teq	r5, ip
 8000726:	d105      	bne.n	8000734 <__aeabi_dmul+0x234>
 8000728:	ea52 3603 	orrs.w	r6, r2, r3, lsl #12
 800072c:	bf1c      	itt	ne
 800072e:	4610      	movne	r0, r2
 8000730:	4619      	movne	r1, r3
 8000732:	d10a      	bne.n	800074a <__aeabi_dmul+0x24a>
 8000734:	ea81 0103 	eor.w	r1, r1, r3
 8000738:	f001 4100 	and.w	r1, r1, #2147483648	; 0x80000000
 800073c:	f041 41fe 	orr.w	r1, r1, #2130706432	; 0x7f000000
 8000740:	f441 0170 	orr.w	r1, r1, #15728640	; 0xf00000
 8000744:	f04f 0000 	mov.w	r0, #0
 8000748:	bd70      	pop	{r4, r5, r6, pc}
 800074a:	f041 41fe 	orr.w	r1, r1, #2130706432	; 0x7f000000
 800074e:	f441 0178 	orr.w	r1, r1, #16252928	; 0xf80000
 8000752:	bd70      	pop	{r4, r5, r6, pc}

08000754 <__aeabi_ddiv>:
 8000754:	b570      	push	{r4, r5, r6, lr}
 8000756:	f04f 0cff 	mov.w	ip, #255	; 0xff
 800075a:	f44c 6ce0 	orr.w	ip, ip, #1792	; 0x700
 800075e:	ea1c 5411 	ands.w	r4, ip, r1, lsr #20
 8000762:	bf1d      	ittte	ne
 8000764:	ea1c 5513 	andsne.w	r5, ip, r3, lsr #20
 8000768:	ea94 0f0c 	teqne	r4, ip
 800076c:	ea95 0f0c 	teqne	r5, ip
 8000770:	f000 f8a7 	bleq	80008c2 <__aeabi_ddiv+0x16e>
 8000774:	eba4 0405 	sub.w	r4, r4, r5
 8000778:	ea81 0e03 	eor.w	lr, r1, r3
 800077c:	ea52 3503 	orrs.w	r5, r2, r3, lsl #12
 8000780:	ea4f 3101 	mov.w	r1, r1, lsl #12
 8000784:	f000 8088 	beq.w	8000898 <__aeabi_ddiv+0x144>
 8000788:	ea4f 3303 	mov.w	r3, r3, lsl #12
 800078c:	f04f 5580 	mov.w	r5, #268435456	; 0x10000000
 8000790:	ea45 1313 	orr.w	r3, r5, r3, lsr #4
 8000794:	ea43 6312 	orr.w	r3, r3, r2, lsr #24
 8000798:	ea4f 2202 	mov.w	r2, r2, lsl #8
 800079c:	ea45 1511 	orr.w	r5, r5, r1, lsr #4
 80007a0:	ea45 6510 	orr.w	r5, r5, r0, lsr #24
 80007a4:	ea4f 2600 	mov.w	r6, r0, lsl #8
 80007a8:	f00e 4100 	and.w	r1, lr, #2147483648	; 0x80000000
 80007ac:	429d      	cmp	r5, r3
 80007ae:	bf08      	it	eq
 80007b0:	4296      	cmpeq	r6, r2
 80007b2:	f144 04fd 	adc.w	r4, r4, #253	; 0xfd
 80007b6:	f504 7440 	add.w	r4, r4, #768	; 0x300
 80007ba:	d202      	bcs.n	80007c2 <__aeabi_ddiv+0x6e>
 80007bc:	085b      	lsrs	r3, r3, #1
 80007be:	ea4f 0232 	mov.w	r2, r2, rrx
 80007c2:	1ab6      	subs	r6, r6, r2
 80007c4:	eb65 0503 	sbc.w	r5, r5, r3
 80007c8:	085b      	lsrs	r3, r3, #1
 80007ca:	ea4f 0232 	mov.w	r2, r2, rrx
 80007ce:	f44f 1080 	mov.w	r0, #1048576	; 0x100000
 80007d2:	f44f 2c00 	mov.w	ip, #524288	; 0x80000
 80007d6:	ebb6 0e02 	subs.w	lr, r6, r2
 80007da:	eb75 0e03 	sbcs.w	lr, r5, r3
 80007de:	bf22      	ittt	cs
 80007e0:	1ab6      	subcs	r6, r6, r2
 80007e2:	4675      	movcs	r5, lr
 80007e4:	ea40 000c 	orrcs.w	r0, r0, ip
 80007e8:	085b      	lsrs	r3, r3, #1
 80007ea:	ea4f 0232 	mov.w	r2, r2, rrx
 80007ee:	ebb6 0e02 	subs.w	lr, r6, r2
 80007f2:	eb75 0e03 	sbcs.w	lr, r5, r3
 80007f6:	bf22      	ittt	cs
 80007f8:	1ab6      	subcs	r6, r6, r2
 80007fa:	4675      	movcs	r5, lr
 80007fc:	ea40 005c 	orrcs.w	r0, r0, ip, lsr #1
 8000800:	085b      	lsrs	r3, r3, #1
 8000802:	ea4f 0232 	mov.w	r2, r2, rrx
 8000806:	ebb6 0e02 	subs.w	lr, r6, r2
 800080a:	eb75 0e03 	sbcs.w	lr, r5, r3
 800080e:	bf22      	ittt	cs
 8000810:	1ab6      	subcs	r6, r6, r2
 8000812:	4675      	movcs	r5, lr
 8000814:	ea40 009c 	orrcs.w	r0, r0, ip, lsr #2
 8000818:	085b      	lsrs	r3, r3, #1
 800081a:	ea4f 0232 	mov.w	r2, r2, rrx
 800081e:	ebb6 0e02 	subs.w	lr, r6, r2
 8000822:	eb75 0e03 	sbcs.w	lr, r5, r3
 8000826:	bf22      	ittt	cs
 8000828:	1ab6      	subcs	r6, r6, r2
 800082a:	4675      	movcs	r5, lr
 800082c:	ea40 00dc 	orrcs.w	r0, r0, ip, lsr #3
 8000830:	ea55 0e06 	orrs.w	lr, r5, r6
 8000834:	d018      	beq.n	8000868 <__aeabi_ddiv+0x114>
 8000836:	ea4f 1505 	mov.w	r5, r5, lsl #4
 800083a:	ea45 7516 	orr.w	r5, r5, r6, lsr #28
 800083e:	ea4f 1606 	mov.w	r6, r6, lsl #4
 8000842:	ea4f 03c3 	mov.w	r3, r3, lsl #3
 8000846:	ea43 7352 	orr.w	r3, r3, r2, lsr #29
 800084a:	ea4f 02c2 	mov.w	r2, r2, lsl #3
 800084e:	ea5f 1c1c 	movs.w	ip, ip, lsr #4
 8000852:	d1c0      	bne.n	80007d6 <__aeabi_ddiv+0x82>
 8000854:	f411 1f80 	tst.w	r1, #1048576	; 0x100000
 8000858:	d10b      	bne.n	8000872 <__aeabi_ddiv+0x11e>
 800085a:	ea41 0100 	orr.w	r1, r1, r0
 800085e:	f04f 0000 	mov.w	r0, #0
 8000862:	f04f 4c00 	mov.w	ip, #2147483648	; 0x80000000
 8000866:	e7b6      	b.n	80007d6 <__aeabi_ddiv+0x82>
 8000868:	f411 1f80 	tst.w	r1, #1048576	; 0x100000
 800086c:	bf04      	itt	eq
 800086e:	4301      	orreq	r1, r0
 8000870:	2000      	moveq	r0, #0
 8000872:	f1b4 0cfd 	subs.w	ip, r4, #253	; 0xfd
 8000876:	bf88      	it	hi
 8000878:	f5bc 6fe0 	cmphi.w	ip, #1792	; 0x700
 800087c:	f63f aeaf 	bhi.w	80005de <__aeabi_dmul+0xde>
 8000880:	ebb5 0c03 	subs.w	ip, r5, r3
 8000884:	bf04      	itt	eq
 8000886:	ebb6 0c02 	subseq.w	ip, r6, r2
 800088a:	ea5f 0c50 	movseq.w	ip, r0, lsr #1
 800088e:	f150 0000 	adcs.w	r0, r0, #0
 8000892:	eb41 5104 	adc.w	r1, r1, r4, lsl #20
 8000896:	bd70      	pop	{r4, r5, r6, pc}
 8000898:	f00e 4e00 	and.w	lr, lr, #2147483648	; 0x80000000
 800089c:	ea4e 3111 	orr.w	r1, lr, r1, lsr #12
 80008a0:	eb14 045c 	adds.w	r4, r4, ip, lsr #1
 80008a4:	bfc2      	ittt	gt
 80008a6:	ebd4 050c 	rsbsgt	r5, r4, ip
 80008aa:	ea41 5104 	orrgt.w	r1, r1, r4, lsl #20
 80008ae:	bd70      	popgt	{r4, r5, r6, pc}
 80008b0:	f441 1180 	orr.w	r1, r1, #1048576	; 0x100000
 80008b4:	f04f 0e00 	mov.w	lr, #0
 80008b8:	3c01      	subs	r4, #1
 80008ba:	e690      	b.n	80005de <__aeabi_dmul+0xde>
 80008bc:	ea45 0e06 	orr.w	lr, r5, r6
 80008c0:	e68d      	b.n	80005de <__aeabi_dmul+0xde>
 80008c2:	ea0c 5513 	and.w	r5, ip, r3, lsr #20
 80008c6:	ea94 0f0c 	teq	r4, ip
 80008ca:	bf08      	it	eq
 80008cc:	ea95 0f0c 	teqeq	r5, ip
 80008d0:	f43f af3b 	beq.w	800074a <__aeabi_dmul+0x24a>
 80008d4:	ea94 0f0c 	teq	r4, ip
 80008d8:	d10a      	bne.n	80008f0 <__aeabi_ddiv+0x19c>
 80008da:	ea50 3401 	orrs.w	r4, r0, r1, lsl #12
 80008de:	f47f af34 	bne.w	800074a <__aeabi_dmul+0x24a>
 80008e2:	ea95 0f0c 	teq	r5, ip
 80008e6:	f47f af25 	bne.w	8000734 <__aeabi_dmul+0x234>
 80008ea:	4610      	mov	r0, r2
 80008ec:	4619      	mov	r1, r3
 80008ee:	e72c      	b.n	800074a <__aeabi_dmul+0x24a>
 80008f0:	ea95 0f0c 	teq	r5, ip
 80008f4:	d106      	bne.n	8000904 <__aeabi_ddiv+0x1b0>
 80008f6:	ea52 3503 	orrs.w	r5, r2, r3, lsl #12
 80008fa:	f43f aefd 	beq.w	80006f8 <__aeabi_dmul+0x1f8>
 80008fe:	4610      	mov	r0, r2
 8000900:	4619      	mov	r1, r3
 8000902:	e722      	b.n	800074a <__aeabi_dmul+0x24a>
 8000904:	ea50 0641 	orrs.w	r6, r0, r1, lsl #1
 8000908:	bf18      	it	ne
 800090a:	ea52 0643 	orrsne.w	r6, r2, r3, lsl #1
 800090e:	f47f aec5 	bne.w	800069c <__aeabi_dmul+0x19c>
 8000912:	ea50 0441 	orrs.w	r4, r0, r1, lsl #1
 8000916:	f47f af0d 	bne.w	8000734 <__aeabi_dmul+0x234>
 800091a:	ea52 0543 	orrs.w	r5, r2, r3, lsl #1
 800091e:	f47f aeeb 	bne.w	80006f8 <__aeabi_dmul+0x1f8>
 8000922:	e712      	b.n	800074a <__aeabi_dmul+0x24a>

08000924 <__gedf2>:
 8000924:	f04f 3cff 	mov.w	ip, #4294967295
 8000928:	e006      	b.n	8000938 <__cmpdf2+0x4>
 800092a:	bf00      	nop

0800092c <__ledf2>:
 800092c:	f04f 0c01 	mov.w	ip, #1
 8000930:	e002      	b.n	8000938 <__cmpdf2+0x4>
 8000932:	bf00      	nop

08000934 <__cmpdf2>:
 8000934:	f04f 0c01 	mov.w	ip, #1
 8000938:	f84d cd04 	str.w	ip, [sp, #-4]!
 800093c:	ea4f 0c41 	mov.w	ip, r1, lsl #1
 8000940:	ea7f 5c6c 	mvns.w	ip, ip, asr #21
 8000944:	ea4f 0c43 	mov.w	ip, r3, lsl #1
 8000948:	bf18      	it	ne
 800094a:	ea7f 5c6c 	mvnsne.w	ip, ip, asr #21
 800094e:	d01b      	beq.n	8000988 <__cmpdf2+0x54>
 8000950:	b001      	add	sp, #4
 8000952:	ea50 0c41 	orrs.w	ip, r0, r1, lsl #1
 8000956:	bf0c      	ite	eq
 8000958:	ea52 0c43 	orrseq.w	ip, r2, r3, lsl #1
 800095c:	ea91 0f03 	teqne	r1, r3
 8000960:	bf02      	ittt	eq
 8000962:	ea90 0f02 	teqeq	r0, r2
 8000966:	2000      	moveq	r0, #0
 8000968:	4770      	bxeq	lr
 800096a:	f110 0f00 	cmn.w	r0, #0
 800096e:	ea91 0f03 	teq	r1, r3
 8000972:	bf58      	it	pl
 8000974:	4299      	cmppl	r1, r3
 8000976:	bf08      	it	eq
 8000978:	4290      	cmpeq	r0, r2
 800097a:	bf2c      	ite	cs
 800097c:	17d8      	asrcs	r0, r3, #31
 800097e:	ea6f 70e3 	mvncc.w	r0, r3, asr #31
 8000982:	f040 0001 	orr.w	r0, r0, #1
 8000986:	4770      	bx	lr
 8000988:	ea4f 0c41 	mov.w	ip, r1, lsl #1
 800098c:	ea7f 5c6c 	mvns.w	ip, ip, asr #21
 8000990:	d102      	bne.n	8000998 <__cmpdf2+0x64>
 8000992:	ea50 3c01 	orrs.w	ip, r0, r1, lsl #12
 8000996:	d107      	bne.n	80009a8 <__cmpdf2+0x74>
 8000998:	ea4f 0c43 	mov.w	ip, r3, lsl #1
 800099c:	ea7f 5c6c 	mvns.w	ip, ip, asr #21
 80009a0:	d1d6      	bne.n	8000950 <__cmpdf2+0x1c>
 80009a2:	ea52 3c03 	orrs.w	ip, r2, r3, lsl #12
 80009a6:	d0d3      	beq.n	8000950 <__cmpdf2+0x1c>
 80009a8:	f85d 0b04 	ldr.w	r0, [sp], #4
 80009ac:	4770      	bx	lr
 80009ae:	bf00      	nop

080009b0 <__aeabi_cdrcmple>:
 80009b0:	4684      	mov	ip, r0
 80009b2:	4610      	mov	r0, r2
 80009b4:	4662      	mov	r2, ip
 80009b6:	468c      	mov	ip, r1
 80009b8:	4619      	mov	r1, r3
 80009ba:	4663      	mov	r3, ip
 80009bc:	e000      	b.n	80009c0 <__aeabi_cdcmpeq>
 80009be:	bf00      	nop

080009c0 <__aeabi_cdcmpeq>:
 80009c0:	b501      	push	{r0, lr}
 80009c2:	f7ff ffb7 	bl	8000934 <__cmpdf2>
 80009c6:	2800      	cmp	r0, #0
 80009c8:	bf48      	it	mi
 80009ca:	f110 0f00 	cmnmi.w	r0, #0
 80009ce:	bd01      	pop	{r0, pc}

080009d0 <__aeabi_dcmpeq>:
 80009d0:	f84d ed08 	str.w	lr, [sp, #-8]!
 80009d4:	f7ff fff4 	bl	80009c0 <__aeabi_cdcmpeq>
 80009d8:	bf0c      	ite	eq
 80009da:	2001      	moveq	r0, #1
 80009dc:	2000      	movne	r0, #0
 80009de:	f85d fb08 	ldr.w	pc, [sp], #8
 80009e2:	bf00      	nop

080009e4 <__aeabi_dcmplt>:
 80009e4:	f84d ed08 	str.w	lr, [sp, #-8]!
 80009e8:	f7ff ffea 	bl	80009c0 <__aeabi_cdcmpeq>
 80009ec:	bf34      	ite	cc
 80009ee:	2001      	movcc	r0, #1
 80009f0:	2000      	movcs	r0, #0
 80009f2:	f85d fb08 	ldr.w	pc, [sp], #8
 80009f6:	bf00      	nop

080009f8 <__aeabi_dcmple>:
 80009f8:	f84d ed08 	str.w	lr, [sp, #-8]!
 80009fc:	f7ff ffe0 	bl	80009c0 <__aeabi_cdcmpeq>
 8000a00:	bf94      	ite	ls
 8000a02:	2001      	movls	r0, #1
 8000a04:	2000      	movhi	r0, #0
 8000a06:	f85d fb08 	ldr.w	pc, [sp], #8
 8000a0a:	bf00      	nop

08000a0c <__aeabi_dcmpge>:
 8000a0c:	f84d ed08 	str.w	lr, [sp, #-8]!
 8000a10:	f7ff ffce 	bl	80009b0 <__aeabi_cdrcmple>
 8000a14:	bf94      	ite	ls
 8000a16:	2001      	movls	r0, #1
 8000a18:	2000      	movhi	r0, #0
 8000a1a:	f85d fb08 	ldr.w	pc, [sp], #8
 8000a1e:	bf00      	nop

08000a20 <__aeabi_dcmpgt>:
 8000a20:	f84d ed08 	str.w	lr, [sp, #-8]!
 8000a24:	f7ff ffc4 	bl	80009b0 <__aeabi_cdrcmple>
 8000a28:	bf34      	ite	cc
 8000a2a:	2001      	movcc	r0, #1
 8000a2c:	2000      	movcs	r0, #0
 8000a2e:	f85d fb08 	ldr.w	pc, [sp], #8
 8000a32:	bf00      	nop

08000a34 <__aeabi_d2iz>:
 8000a34:	ea4f 0241 	mov.w	r2, r1, lsl #1
 8000a38:	f512 1200 	adds.w	r2, r2, #2097152	; 0x200000
 8000a3c:	d215      	bcs.n	8000a6a <__aeabi_d2iz+0x36>
 8000a3e:	d511      	bpl.n	8000a64 <__aeabi_d2iz+0x30>
 8000a40:	f46f 7378 	mvn.w	r3, #992	; 0x3e0
 8000a44:	ebb3 5262 	subs.w	r2, r3, r2, asr #21
 8000a48:	d912      	bls.n	8000a70 <__aeabi_d2iz+0x3c>
 8000a4a:	ea4f 23c1 	mov.w	r3, r1, lsl #11
 8000a4e:	f043 4300 	orr.w	r3, r3, #2147483648	; 0x80000000
 8000a52:	ea43 5350 	orr.w	r3, r3, r0, lsr #21
 8000a56:	f011 4f00 	tst.w	r1, #2147483648	; 0x80000000
 8000a5a:	fa23 f002 	lsr.w	r0, r3, r2
 8000a5e:	bf18      	it	ne
 8000a60:	4240      	negne	r0, r0
 8000a62:	4770      	bx	lr
 8000a64:	f04f 0000 	mov.w	r0, #0
 8000a68:	4770      	bx	lr
 8000a6a:	ea50 3001 	orrs.w	r0, r0, r1, lsl #12
 8000a6e:	d105      	bne.n	8000a7c <__aeabi_d2iz+0x48>
 8000a70:	f011 4000 	ands.w	r0, r1, #2147483648	; 0x80000000
 8000a74:	bf08      	it	eq
 8000a76:	f06f 4000 	mvneq.w	r0, #2147483648	; 0x80000000
 8000a7a:	4770      	bx	lr
 8000a7c:	f04f 0000 	mov.w	r0, #0
 8000a80:	4770      	bx	lr
 8000a82:	bf00      	nop

08000a84 <__aeabi_d2uiz>:
 8000a84:	004a      	lsls	r2, r1, #1
 8000a86:	d211      	bcs.n	8000aac <__aeabi_d2uiz+0x28>
 8000a88:	f512 1200 	adds.w	r2, r2, #2097152	; 0x200000
 8000a8c:	d211      	bcs.n	8000ab2 <__aeabi_d2uiz+0x2e>
 8000a8e:	d50d      	bpl.n	8000aac <__aeabi_d2uiz+0x28>
 8000a90:	f46f 7378 	mvn.w	r3, #992	; 0x3e0
 8000a94:	ebb3 5262 	subs.w	r2, r3, r2, asr #21
 8000a98:	d40e      	bmi.n	8000ab8 <__aeabi_d2uiz+0x34>
 8000a9a:	ea4f 23c1 	mov.w	r3, r1, lsl #11
 8000a9e:	f043 4300 	orr.w	r3, r3, #2147483648	; 0x80000000
 8000aa2:	ea43 5350 	orr.w	r3, r3, r0, lsr #21
 8000aa6:	fa23 f002 	lsr.w	r0, r3, r2
 8000aaa:	4770      	bx	lr
 8000aac:	f04f 0000 	mov.w	r0, #0
 8000ab0:	4770      	bx	lr
 8000ab2:	ea50 3001 	orrs.w	r0, r0, r1, lsl #12
 8000ab6:	d102      	bne.n	8000abe <__aeabi_d2uiz+0x3a>
 8000ab8:	f04f 30ff 	mov.w	r0, #4294967295
 8000abc:	4770      	bx	lr
 8000abe:	f04f 0000 	mov.w	r0, #0
 8000ac2:	4770      	bx	lr

08000ac4 <__aeabi_d2f>:
 8000ac4:	ea4f 0241 	mov.w	r2, r1, lsl #1
 8000ac8:	f1b2 43e0 	subs.w	r3, r2, #1879048192	; 0x70000000
 8000acc:	bf24      	itt	cs
 8000ace:	f5b3 1c00 	subscs.w	ip, r3, #2097152	; 0x200000
 8000ad2:	f1dc 5cfe 	rsbscs	ip, ip, #532676608	; 0x1fc00000
 8000ad6:	d90d      	bls.n	8000af4 <__aeabi_d2f+0x30>
 8000ad8:	f001 4c00 	and.w	ip, r1, #2147483648	; 0x80000000
 8000adc:	ea4f 02c0 	mov.w	r2, r0, lsl #3
 8000ae0:	ea4c 7050 	orr.w	r0, ip, r0, lsr #29
 8000ae4:	f1b2 4f00 	cmp.w	r2, #2147483648	; 0x80000000
 8000ae8:	eb40 0083 	adc.w	r0, r0, r3, lsl #2
 8000aec:	bf08      	it	eq
 8000aee:	f020 0001 	biceq.w	r0, r0, #1
 8000af2:	4770      	bx	lr
 8000af4:	f011 4f80 	tst.w	r1, #1073741824	; 0x40000000
 8000af8:	d121      	bne.n	8000b3e <__aeabi_d2f+0x7a>
 8000afa:	f113 7238 	adds.w	r2, r3, #48234496	; 0x2e00000
 8000afe:	bfbc      	itt	lt
 8000b00:	f001 4000 	andlt.w	r0, r1, #2147483648	; 0x80000000
 8000b04:	4770      	bxlt	lr
 8000b06:	f441 1180 	orr.w	r1, r1, #1048576	; 0x100000
 8000b0a:	ea4f 5252 	mov.w	r2, r2, lsr #21
 8000b0e:	f1c2 0218 	rsb	r2, r2, #24
 8000b12:	f1c2 0c20 	rsb	ip, r2, #32
 8000b16:	fa10 f30c 	lsls.w	r3, r0, ip
 8000b1a:	fa20 f002 	lsr.w	r0, r0, r2
 8000b1e:	bf18      	it	ne
 8000b20:	f040 0001 	orrne.w	r0, r0, #1
 8000b24:	ea4f 23c1 	mov.w	r3, r1, lsl #11
 8000b28:	ea4f 23d3 	mov.w	r3, r3, lsr #11
 8000b2c:	fa03 fc0c 	lsl.w	ip, r3, ip
 8000b30:	ea40 000c 	orr.w	r0, r0, ip
 8000b34:	fa23 f302 	lsr.w	r3, r3, r2
 8000b38:	ea4f 0343 	mov.w	r3, r3, lsl #1
 8000b3c:	e7cc      	b.n	8000ad8 <__aeabi_d2f+0x14>
 8000b3e:	ea7f 5362 	mvns.w	r3, r2, asr #21
 8000b42:	d107      	bne.n	8000b54 <__aeabi_d2f+0x90>
 8000b44:	ea50 3301 	orrs.w	r3, r0, r1, lsl #12
 8000b48:	bf1e      	ittt	ne
 8000b4a:	f04f 40fe 	movne.w	r0, #2130706432	; 0x7f000000
 8000b4e:	f440 0040 	orrne.w	r0, r0, #12582912	; 0xc00000
 8000b52:	4770      	bxne	lr
 8000b54:	f001 4000 	and.w	r0, r1, #2147483648	; 0x80000000
 8000b58:	f040 40fe 	orr.w	r0, r0, #2130706432	; 0x7f000000
 8000b5c:	f440 0000 	orr.w	r0, r0, #8388608	; 0x800000
 8000b60:	4770      	bx	lr
 8000b62:	bf00      	nop

08000b64 <__aeabi_frsub>:
 8000b64:	f080 4000 	eor.w	r0, r0, #2147483648	; 0x80000000
 8000b68:	e002      	b.n	8000b70 <__addsf3>
 8000b6a:	bf00      	nop

08000b6c <__aeabi_fsub>:
 8000b6c:	f081 4100 	eor.w	r1, r1, #2147483648	; 0x80000000

08000b70 <__addsf3>:
 8000b70:	0042      	lsls	r2, r0, #1
 8000b72:	bf1f      	itttt	ne
 8000b74:	ea5f 0341 	movsne.w	r3, r1, lsl #1
 8000b78:	ea92 0f03 	teqne	r2, r3
 8000b7c:	ea7f 6c22 	mvnsne.w	ip, r2, asr #24
 8000b80:	ea7f 6c23 	mvnsne.w	ip, r3, asr #24
 8000b84:	d06a      	beq.n	8000c5c <__addsf3+0xec>
 8000b86:	ea4f 6212 	mov.w	r2, r2, lsr #24
 8000b8a:	ebd2 6313 	rsbs	r3, r2, r3, lsr #24
 8000b8e:	bfc1      	itttt	gt
 8000b90:	18d2      	addgt	r2, r2, r3
 8000b92:	4041      	eorgt	r1, r0
 8000b94:	4048      	eorgt	r0, r1
 8000b96:	4041      	eorgt	r1, r0
 8000b98:	bfb8      	it	lt
 8000b9a:	425b      	neglt	r3, r3
 8000b9c:	2b19      	cmp	r3, #25
 8000b9e:	bf88      	it	hi
 8000ba0:	4770      	bxhi	lr
 8000ba2:	f010 4f00 	tst.w	r0, #2147483648	; 0x80000000
 8000ba6:	f440 0000 	orr.w	r0, r0, #8388608	; 0x800000
 8000baa:	f020 407f 	bic.w	r0, r0, #4278190080	; 0xff000000
 8000bae:	bf18      	it	ne
 8000bb0:	4240      	negne	r0, r0
 8000bb2:	f011 4f00 	tst.w	r1, #2147483648	; 0x80000000
 8000bb6:	f441 0100 	orr.w	r1, r1, #8388608	; 0x800000
 8000bba:	f021 417f 	bic.w	r1, r1, #4278190080	; 0xff000000
 8000bbe:	bf18      	it	ne
 8000bc0:	4249      	negne	r1, r1
 8000bc2:	ea92 0f03 	teq	r2, r3
 8000bc6:	d03f      	beq.n	8000c48 <__addsf3+0xd8>
 8000bc8:	f1a2 0201 	sub.w	r2, r2, #1
 8000bcc:	fa41 fc03 	asr.w	ip, r1, r3
 8000bd0:	eb10 000c 	adds.w	r0, r0, ip
 8000bd4:	f1c3 0320 	rsb	r3, r3, #32
 8000bd8:	fa01 f103 	lsl.w	r1, r1, r3
 8000bdc:	f000 4300 	and.w	r3, r0, #2147483648	; 0x80000000
 8000be0:	d502      	bpl.n	8000be8 <__addsf3+0x78>
 8000be2:	4249      	negs	r1, r1
 8000be4:	eb60 0040 	sbc.w	r0, r0, r0, lsl #1
 8000be8:	f5b0 0f00 	cmp.w	r0, #8388608	; 0x800000
 8000bec:	d313      	bcc.n	8000c16 <__addsf3+0xa6>
 8000bee:	f1b0 7f80 	cmp.w	r0, #16777216	; 0x1000000
 8000bf2:	d306      	bcc.n	8000c02 <__addsf3+0x92>
 8000bf4:	0840      	lsrs	r0, r0, #1
 8000bf6:	ea4f 0131 	mov.w	r1, r1, rrx
 8000bfa:	f102 0201 	add.w	r2, r2, #1
 8000bfe:	2afe      	cmp	r2, #254	; 0xfe
 8000c00:	d251      	bcs.n	8000ca6 <__addsf3+0x136>
 8000c02:	f1b1 4f00 	cmp.w	r1, #2147483648	; 0x80000000
 8000c06:	eb40 50c2 	adc.w	r0, r0, r2, lsl #23
 8000c0a:	bf08      	it	eq
 8000c0c:	f020 0001 	biceq.w	r0, r0, #1
 8000c10:	ea40 0003 	orr.w	r0, r0, r3
 8000c14:	4770      	bx	lr
 8000c16:	0049      	lsls	r1, r1, #1
 8000c18:	eb40 0000 	adc.w	r0, r0, r0
 8000c1c:	f410 0f00 	tst.w	r0, #8388608	; 0x800000
 8000c20:	f1a2 0201 	sub.w	r2, r2, #1
 8000c24:	d1ed      	bne.n	8000c02 <__addsf3+0x92>
 8000c26:	fab0 fc80 	clz	ip, r0
 8000c2a:	f1ac 0c08 	sub.w	ip, ip, #8
 8000c2e:	ebb2 020c 	subs.w	r2, r2, ip
 8000c32:	fa00 f00c 	lsl.w	r0, r0, ip
 8000c36:	bfaa      	itet	ge
 8000c38:	eb00 50c2 	addge.w	r0, r0, r2, lsl #23
 8000c3c:	4252      	neglt	r2, r2
 8000c3e:	4318      	orrge	r0, r3
 8000c40:	bfbc      	itt	lt
 8000c42:	40d0      	lsrlt	r0, r2
 8000c44:	4318      	orrlt	r0, r3
 8000c46:	4770      	bx	lr
 8000c48:	f092 0f00 	teq	r2, #0
 8000c4c:	f481 0100 	eor.w	r1, r1, #8388608	; 0x800000
 8000c50:	bf06      	itte	eq
 8000c52:	f480 0000 	eoreq.w	r0, r0, #8388608	; 0x800000
 8000c56:	3201      	addeq	r2, #1
 8000c58:	3b01      	subne	r3, #1
 8000c5a:	e7b5      	b.n	8000bc8 <__addsf3+0x58>
 8000c5c:	ea4f 0341 	mov.w	r3, r1, lsl #1
 8000c60:	ea7f 6c22 	mvns.w	ip, r2, asr #24
 8000c64:	bf18      	it	ne
 8000c66:	ea7f 6c23 	mvnsne.w	ip, r3, asr #24
 8000c6a:	d021      	beq.n	8000cb0 <__addsf3+0x140>
 8000c6c:	ea92 0f03 	teq	r2, r3
 8000c70:	d004      	beq.n	8000c7c <__addsf3+0x10c>
 8000c72:	f092 0f00 	teq	r2, #0
 8000c76:	bf08      	it	eq
 8000c78:	4608      	moveq	r0, r1
 8000c7a:	4770      	bx	lr
 8000c7c:	ea90 0f01 	teq	r0, r1
 8000c80:	bf1c      	itt	ne
 8000c82:	2000      	movne	r0, #0
 8000c84:	4770      	bxne	lr
 8000c86:	f012 4f7f 	tst.w	r2, #4278190080	; 0xff000000
 8000c8a:	d104      	bne.n	8000c96 <__addsf3+0x126>
 8000c8c:	0040      	lsls	r0, r0, #1
 8000c8e:	bf28      	it	cs
 8000c90:	f040 4000 	orrcs.w	r0, r0, #2147483648	; 0x80000000
 8000c94:	4770      	bx	lr
 8000c96:	f112 7200 	adds.w	r2, r2, #33554432	; 0x2000000
 8000c9a:	bf3c      	itt	cc
 8000c9c:	f500 0000 	addcc.w	r0, r0, #8388608	; 0x800000
 8000ca0:	4770      	bxcc	lr
 8000ca2:	f000 4300 	and.w	r3, r0, #2147483648	; 0x80000000
 8000ca6:	f043 40fe 	orr.w	r0, r3, #2130706432	; 0x7f000000
 8000caa:	f440 0000 	orr.w	r0, r0, #8388608	; 0x800000
 8000cae:	4770      	bx	lr
 8000cb0:	ea7f 6222 	mvns.w	r2, r2, asr #24
 8000cb4:	bf16      	itet	ne
 8000cb6:	4608      	movne	r0, r1
 8000cb8:	ea7f 6323 	mvnseq.w	r3, r3, asr #24
 8000cbc:	4601      	movne	r1, r0
 8000cbe:	0242      	lsls	r2, r0, #9
 8000cc0:	bf06      	itte	eq
 8000cc2:	ea5f 2341 	movseq.w	r3, r1, lsl #9
 8000cc6:	ea90 0f01 	teqeq	r0, r1
 8000cca:	f440 0080 	orrne.w	r0, r0, #4194304	; 0x400000
 8000cce:	4770      	bx	lr

08000cd0 <__aeabi_ui2f>:
 8000cd0:	f04f 0300 	mov.w	r3, #0
 8000cd4:	e004      	b.n	8000ce0 <__aeabi_i2f+0x8>
 8000cd6:	bf00      	nop

08000cd8 <__aeabi_i2f>:
 8000cd8:	f010 4300 	ands.w	r3, r0, #2147483648	; 0x80000000
 8000cdc:	bf48      	it	mi
 8000cde:	4240      	negmi	r0, r0
 8000ce0:	ea5f 0c00 	movs.w	ip, r0
 8000ce4:	bf08      	it	eq
 8000ce6:	4770      	bxeq	lr
 8000ce8:	f043 4396 	orr.w	r3, r3, #1258291200	; 0x4b000000
 8000cec:	4601      	mov	r1, r0
 8000cee:	f04f 0000 	mov.w	r0, #0
 8000cf2:	e01c      	b.n	8000d2e <__aeabi_l2f+0x2a>

08000cf4 <__aeabi_ul2f>:
 8000cf4:	ea50 0201 	orrs.w	r2, r0, r1
 8000cf8:	bf08      	it	eq
 8000cfa:	4770      	bxeq	lr
 8000cfc:	f04f 0300 	mov.w	r3, #0
 8000d00:	e00a      	b.n	8000d18 <__aeabi_l2f+0x14>
 8000d02:	bf00      	nop

08000d04 <__aeabi_l2f>:
 8000d04:	ea50 0201 	orrs.w	r2, r0, r1
 8000d08:	bf08      	it	eq
 8000d0a:	4770      	bxeq	lr
 8000d0c:	f011 4300 	ands.w	r3, r1, #2147483648	; 0x80000000
 8000d10:	d502      	bpl.n	8000d18 <__aeabi_l2f+0x14>
 8000d12:	4240      	negs	r0, r0
 8000d14:	eb61 0141 	sbc.w	r1, r1, r1, lsl #1
 8000d18:	ea5f 0c01 	movs.w	ip, r1
 8000d1c:	bf02      	ittt	eq
 8000d1e:	4684      	moveq	ip, r0
 8000d20:	4601      	moveq	r1, r0
 8000d22:	2000      	moveq	r0, #0
 8000d24:	f043 43b6 	orr.w	r3, r3, #1526726656	; 0x5b000000
 8000d28:	bf08      	it	eq
 8000d2a:	f1a3 5380 	subeq.w	r3, r3, #268435456	; 0x10000000
 8000d2e:	f5a3 0300 	sub.w	r3, r3, #8388608	; 0x800000
 8000d32:	fabc f28c 	clz	r2, ip
 8000d36:	3a08      	subs	r2, #8
 8000d38:	eba3 53c2 	sub.w	r3, r3, r2, lsl #23
 8000d3c:	db10      	blt.n	8000d60 <__aeabi_l2f+0x5c>
 8000d3e:	fa01 fc02 	lsl.w	ip, r1, r2
 8000d42:	4463      	add	r3, ip
 8000d44:	fa00 fc02 	lsl.w	ip, r0, r2
 8000d48:	f1c2 0220 	rsb	r2, r2, #32
 8000d4c:	f1bc 4f00 	cmp.w	ip, #2147483648	; 0x80000000
 8000d50:	fa20 f202 	lsr.w	r2, r0, r2
 8000d54:	eb43 0002 	adc.w	r0, r3, r2
 8000d58:	bf08      	it	eq
 8000d5a:	f020 0001 	biceq.w	r0, r0, #1
 8000d5e:	4770      	bx	lr
 8000d60:	f102 0220 	add.w	r2, r2, #32
 8000d64:	fa01 fc02 	lsl.w	ip, r1, r2
 8000d68:	f1c2 0220 	rsb	r2, r2, #32
 8000d6c:	ea50 004c 	orrs.w	r0, r0, ip, lsl #1
 8000d70:	fa21 f202 	lsr.w	r2, r1, r2
 8000d74:	eb43 0002 	adc.w	r0, r3, r2
 8000d78:	bf08      	it	eq
 8000d7a:	ea20 70dc 	biceq.w	r0, r0, ip, lsr #31
 8000d7e:	4770      	bx	lr

08000d80 <__aeabi_fmul>:
 8000d80:	f04f 0cff 	mov.w	ip, #255	; 0xff
 8000d84:	ea1c 52d0 	ands.w	r2, ip, r0, lsr #23
 8000d88:	bf1e      	ittt	ne
 8000d8a:	ea1c 53d1 	andsne.w	r3, ip, r1, lsr #23
 8000d8e:	ea92 0f0c 	teqne	r2, ip
 8000d92:	ea93 0f0c 	teqne	r3, ip
 8000d96:	d06f      	beq.n	8000e78 <__aeabi_fmul+0xf8>
 8000d98:	441a      	add	r2, r3
 8000d9a:	ea80 0c01 	eor.w	ip, r0, r1
 8000d9e:	0240      	lsls	r0, r0, #9
 8000da0:	bf18      	it	ne
 8000da2:	ea5f 2141 	movsne.w	r1, r1, lsl #9
 8000da6:	d01e      	beq.n	8000de6 <__aeabi_fmul+0x66>
 8000da8:	f04f 6300 	mov.w	r3, #134217728	; 0x8000000
 8000dac:	ea43 1050 	orr.w	r0, r3, r0, lsr #5
 8000db0:	ea43 1151 	orr.w	r1, r3, r1, lsr #5
 8000db4:	fba0 3101 	umull	r3, r1, r0, r1
 8000db8:	f00c 4000 	and.w	r0, ip, #2147483648	; 0x80000000
 8000dbc:	f5b1 0f00 	cmp.w	r1, #8388608	; 0x800000
 8000dc0:	bf3e      	ittt	cc
 8000dc2:	0049      	lslcc	r1, r1, #1
 8000dc4:	ea41 71d3 	orrcc.w	r1, r1, r3, lsr #31
 8000dc8:	005b      	lslcc	r3, r3, #1
 8000dca:	ea40 0001 	orr.w	r0, r0, r1
 8000dce:	f162 027f 	sbc.w	r2, r2, #127	; 0x7f
 8000dd2:	2afd      	cmp	r2, #253	; 0xfd
 8000dd4:	d81d      	bhi.n	8000e12 <__aeabi_fmul+0x92>
 8000dd6:	f1b3 4f00 	cmp.w	r3, #2147483648	; 0x80000000
 8000dda:	eb40 50c2 	adc.w	r0, r0, r2, lsl #23
 8000dde:	bf08      	it	eq
 8000de0:	f020 0001 	biceq.w	r0, r0, #1
 8000de4:	4770      	bx	lr
 8000de6:	f090 0f00 	teq	r0, #0
 8000dea:	f00c 4c00 	and.w	ip, ip, #2147483648	; 0x80000000
 8000dee:	bf08      	it	eq
 8000df0:	0249      	lsleq	r1, r1, #9
 8000df2:	ea4c 2050 	orr.w	r0, ip, r0, lsr #9
 8000df6:	ea40 2051 	orr.w	r0, r0, r1, lsr #9
 8000dfa:	3a7f      	subs	r2, #127	; 0x7f
 8000dfc:	bfc2      	ittt	gt
 8000dfe:	f1d2 03ff 	rsbsgt	r3, r2, #255	; 0xff
 8000e02:	ea40 50c2 	orrgt.w	r0, r0, r2, lsl #23
 8000e06:	4770      	bxgt	lr
 8000e08:	f440 0000 	orr.w	r0, r0, #8388608	; 0x800000
 8000e0c:	f04f 0300 	mov.w	r3, #0
 8000e10:	3a01      	subs	r2, #1
 8000e12:	dc5d      	bgt.n	8000ed0 <__aeabi_fmul+0x150>
 8000e14:	f112 0f19 	cmn.w	r2, #25
 8000e18:	bfdc      	itt	le
 8000e1a:	f000 4000 	andle.w	r0, r0, #2147483648	; 0x80000000
 8000e1e:	4770      	bxle	lr
 8000e20:	f1c2 0200 	rsb	r2, r2, #0
 8000e24:	0041      	lsls	r1, r0, #1
 8000e26:	fa21 f102 	lsr.w	r1, r1, r2
 8000e2a:	f1c2 0220 	rsb	r2, r2, #32
 8000e2e:	fa00 fc02 	lsl.w	ip, r0, r2
 8000e32:	ea5f 0031 	movs.w	r0, r1, rrx
 8000e36:	f140 0000 	adc.w	r0, r0, #0
 8000e3a:	ea53 034c 	orrs.w	r3, r3, ip, lsl #1
 8000e3e:	bf08      	it	eq
 8000e40:	ea20 70dc 	biceq.w	r0, r0, ip, lsr #31
 8000e44:	4770      	bx	lr
 8000e46:	f092 0f00 	teq	r2, #0
 8000e4a:	f000 4c00 	and.w	ip, r0, #2147483648	; 0x80000000
 8000e4e:	bf02      	ittt	eq
 8000e50:	0040      	lsleq	r0, r0, #1
 8000e52:	f410 0f00 	tsteq.w	r0, #8388608	; 0x800000
 8000e56:	3a01      	subeq	r2, #1
 8000e58:	d0f9      	beq.n	8000e4e <__aeabi_fmul+0xce>
 8000e5a:	ea40 000c 	orr.w	r0, r0, ip
 8000e5e:	f093 0f00 	teq	r3, #0
 8000e62:	f001 4c00 	and.w	ip, r1, #2147483648	; 0x80000000
 8000e66:	bf02      	ittt	eq
 8000e68:	0049      	lsleq	r1, r1, #1
 8000e6a:	f411 0f00 	tsteq.w	r1, #8388608	; 0x800000
 8000e6e:	3b01      	subeq	r3, #1
 8000e70:	d0f9      	beq.n	8000e66 <__aeabi_fmul+0xe6>
 8000e72:	ea41 010c 	orr.w	r1, r1, ip
 8000e76:	e78f      	b.n	8000d98 <__aeabi_fmul+0x18>
 8000e78:	ea0c 53d1 	and.w	r3, ip, r1, lsr #23
 8000e7c:	ea92 0f0c 	teq	r2, ip
 8000e80:	bf18      	it	ne
 8000e82:	ea93 0f0c 	teqne	r3, ip
 8000e86:	d00a      	beq.n	8000e9e <__aeabi_fmul+0x11e>
 8000e88:	f030 4c00 	bics.w	ip, r0, #2147483648	; 0x80000000
 8000e8c:	bf18      	it	ne
 8000e8e:	f031 4c00 	bicsne.w	ip, r1, #2147483648	; 0x80000000
 8000e92:	d1d8      	bne.n	8000e46 <__aeabi_fmul+0xc6>
 8000e94:	ea80 0001 	eor.w	r0, r0, r1
 8000e98:	f000 4000 	and.w	r0, r0, #2147483648	; 0x80000000
 8000e9c:	4770      	bx	lr
 8000e9e:	f090 0f00 	teq	r0, #0
 8000ea2:	bf17      	itett	ne
 8000ea4:	f090 4f00 	teqne	r0, #2147483648	; 0x80000000
 8000ea8:	4608      	moveq	r0, r1
 8000eaa:	f091 0f00 	teqne	r1, #0
 8000eae:	f091 4f00 	teqne	r1, #2147483648	; 0x80000000
 8000eb2:	d014      	beq.n	8000ede <__aeabi_fmul+0x15e>
 8000eb4:	ea92 0f0c 	teq	r2, ip
 8000eb8:	d101      	bne.n	8000ebe <__aeabi_fmul+0x13e>
 8000eba:	0242      	lsls	r2, r0, #9
 8000ebc:	d10f      	bne.n	8000ede <__aeabi_fmul+0x15e>
 8000ebe:	ea93 0f0c 	teq	r3, ip
 8000ec2:	d103      	bne.n	8000ecc <__aeabi_fmul+0x14c>
 8000ec4:	024b      	lsls	r3, r1, #9
 8000ec6:	bf18      	it	ne
 8000ec8:	4608      	movne	r0, r1
 8000eca:	d108      	bne.n	8000ede <__aeabi_fmul+0x15e>
 8000ecc:	ea80 0001 	eor.w	r0, r0, r1
 8000ed0:	f000 4000 	and.w	r0, r0, #2147483648	; 0x80000000
 8000ed4:	f040 40fe 	orr.w	r0, r0, #2130706432	; 0x7f000000
 8000ed8:	f440 0000 	orr.w	r0, r0, #8388608	; 0x800000
 8000edc:	4770      	bx	lr
 8000ede:	f040 40fe 	orr.w	r0, r0, #2130706432	; 0x7f000000
 8000ee2:	f440 0040 	orr.w	r0, r0, #12582912	; 0xc00000
 8000ee6:	4770      	bx	lr

08000ee8 <__aeabi_fdiv>:
 8000ee8:	f04f 0cff 	mov.w	ip, #255	; 0xff
 8000eec:	ea1c 52d0 	ands.w	r2, ip, r0, lsr #23
 8000ef0:	bf1e      	ittt	ne
 8000ef2:	ea1c 53d1 	andsne.w	r3, ip, r1, lsr #23
 8000ef6:	ea92 0f0c 	teqne	r2, ip
 8000efa:	ea93 0f0c 	teqne	r3, ip
 8000efe:	d069      	beq.n	8000fd4 <__aeabi_fdiv+0xec>
 8000f00:	eba2 0203 	sub.w	r2, r2, r3
 8000f04:	ea80 0c01 	eor.w	ip, r0, r1
 8000f08:	0249      	lsls	r1, r1, #9
 8000f0a:	ea4f 2040 	mov.w	r0, r0, lsl #9
 8000f0e:	d037      	beq.n	8000f80 <__aeabi_fdiv+0x98>
 8000f10:	f04f 5380 	mov.w	r3, #268435456	; 0x10000000
 8000f14:	ea43 1111 	orr.w	r1, r3, r1, lsr #4
 8000f18:	ea43 1310 	orr.w	r3, r3, r0, lsr #4
 8000f1c:	f00c 4000 	and.w	r0, ip, #2147483648	; 0x80000000
 8000f20:	428b      	cmp	r3, r1
 8000f22:	bf38      	it	cc
 8000f24:	005b      	lslcc	r3, r3, #1
 8000f26:	f142 027d 	adc.w	r2, r2, #125	; 0x7d
 8000f2a:	f44f 0c00 	mov.w	ip, #8388608	; 0x800000
 8000f2e:	428b      	cmp	r3, r1
 8000f30:	bf24      	itt	cs
 8000f32:	1a5b      	subcs	r3, r3, r1
 8000f34:	ea40 000c 	orrcs.w	r0, r0, ip
 8000f38:	ebb3 0f51 	cmp.w	r3, r1, lsr #1
 8000f3c:	bf24      	itt	cs
 8000f3e:	eba3 0351 	subcs.w	r3, r3, r1, lsr #1
 8000f42:	ea40 005c 	orrcs.w	r0, r0, ip, lsr #1
 8000f46:	ebb3 0f91 	cmp.w	r3, r1, lsr #2
 8000f4a:	bf24      	itt	cs
 8000f4c:	eba3 0391 	subcs.w	r3, r3, r1, lsr #2
 8000f50:	ea40 009c 	orrcs.w	r0, r0, ip, lsr #2
 8000f54:	ebb3 0fd1 	cmp.w	r3, r1, lsr #3
 8000f58:	bf24      	itt	cs
 8000f5a:	eba3 03d1 	subcs.w	r3, r3, r1, lsr #3
 8000f5e:	ea40 00dc 	orrcs.w	r0, r0, ip, lsr #3
 8000f62:	011b      	lsls	r3, r3, #4
 8000f64:	bf18      	it	ne
 8000f66:	ea5f 1c1c 	movsne.w	ip, ip, lsr #4
 8000f6a:	d1e0      	bne.n	8000f2e <__aeabi_fdiv+0x46>
 8000f6c:	2afd      	cmp	r2, #253	; 0xfd
 8000f6e:	f63f af50 	bhi.w	8000e12 <__aeabi_fmul+0x92>
 8000f72:	428b      	cmp	r3, r1
 8000f74:	eb40 50c2 	adc.w	r0, r0, r2, lsl #23
 8000f78:	bf08      	it	eq
 8000f7a:	f020 0001 	biceq.w	r0, r0, #1
 8000f7e:	4770      	bx	lr
 8000f80:	f00c 4c00 	and.w	ip, ip, #2147483648	; 0x80000000
 8000f84:	ea4c 2050 	orr.w	r0, ip, r0, lsr #9
 8000f88:	327f      	adds	r2, #127	; 0x7f
 8000f8a:	bfc2      	ittt	gt
 8000f8c:	f1d2 03ff 	rsbsgt	r3, r2, #255	; 0xff
 8000f90:	ea40 50c2 	orrgt.w	r0, r0, r2, lsl #23
 8000f94:	4770      	bxgt	lr
 8000f96:	f440 0000 	orr.w	r0, r0, #8388608	; 0x800000
 8000f9a:	f04f 0300 	mov.w	r3, #0
 8000f9e:	3a01      	subs	r2, #1
 8000fa0:	e737      	b.n	8000e12 <__aeabi_fmul+0x92>
 8000fa2:	f092 0f00 	teq	r2, #0
 8000fa6:	f000 4c00 	and.w	ip, r0, #2147483648	; 0x80000000
 8000faa:	bf02      	ittt	eq
 8000fac:	0040      	lsleq	r0, r0, #1
 8000fae:	f410 0f00 	tsteq.w	r0, #8388608	; 0x800000
 8000fb2:	3a01      	subeq	r2, #1
 8000fb4:	d0f9      	beq.n	8000faa <__aeabi_fdiv+0xc2>
 8000fb6:	ea40 000c 	orr.w	r0, r0, ip
 8000fba:	f093 0f00 	teq	r3, #0
 8000fbe:	f001 4c00 	and.w	ip, r1, #2147483648	; 0x80000000
 8000fc2:	bf02      	ittt	eq
 8000fc4:	0049      	lsleq	r1, r1, #1
 8000fc6:	f411 0f00 	tsteq.w	r1, #8388608	; 0x800000
 8000fca:	3b01      	subeq	r3, #1
 8000fcc:	d0f9      	beq.n	8000fc2 <__aeabi_fdiv+0xda>
 8000fce:	ea41 010c 	orr.w	r1, r1, ip
 8000fd2:	e795      	b.n	8000f00 <__aeabi_fdiv+0x18>
 8000fd4:	ea0c 53d1 	and.w	r3, ip, r1, lsr #23
 8000fd8:	ea92 0f0c 	teq	r2, ip
 8000fdc:	d108      	bne.n	8000ff0 <__aeabi_fdiv+0x108>
 8000fde:	0242      	lsls	r2, r0, #9
 8000fe0:	f47f af7d 	bne.w	8000ede <__aeabi_fmul+0x15e>
 8000fe4:	ea93 0f0c 	teq	r3, ip
 8000fe8:	f47f af70 	bne.w	8000ecc <__aeabi_fmul+0x14c>
 8000fec:	4608      	mov	r0, r1
 8000fee:	e776      	b.n	8000ede <__aeabi_fmul+0x15e>
 8000ff0:	ea93 0f0c 	teq	r3, ip
 8000ff4:	d104      	bne.n	8001000 <__aeabi_fdiv+0x118>
 8000ff6:	024b      	lsls	r3, r1, #9
 8000ff8:	f43f af4c 	beq.w	8000e94 <__aeabi_fmul+0x114>
 8000ffc:	4608      	mov	r0, r1
 8000ffe:	e76e      	b.n	8000ede <__aeabi_fmul+0x15e>
 8001000:	f030 4c00 	bics.w	ip, r0, #2147483648	; 0x80000000
 8001004:	bf18      	it	ne
 8001006:	f031 4c00 	bicsne.w	ip, r1, #2147483648	; 0x80000000
 800100a:	d1ca      	bne.n	8000fa2 <__aeabi_fdiv+0xba>
 800100c:	f030 4200 	bics.w	r2, r0, #2147483648	; 0x80000000
 8001010:	f47f af5c 	bne.w	8000ecc <__aeabi_fmul+0x14c>
 8001014:	f031 4300 	bics.w	r3, r1, #2147483648	; 0x80000000
 8001018:	f47f af3c 	bne.w	8000e94 <__aeabi_fmul+0x114>
 800101c:	e75f      	b.n	8000ede <__aeabi_fmul+0x15e>
 800101e:	bf00      	nop

08001020 <__gesf2>:
 8001020:	f04f 3cff 	mov.w	ip, #4294967295
 8001024:	e006      	b.n	8001034 <__cmpsf2+0x4>
 8001026:	bf00      	nop

08001028 <__lesf2>:
 8001028:	f04f 0c01 	mov.w	ip, #1
 800102c:	e002      	b.n	8001034 <__cmpsf2+0x4>
 800102e:	bf00      	nop

08001030 <__cmpsf2>:
 8001030:	f04f 0c01 	mov.w	ip, #1
 8001034:	f84d cd04 	str.w	ip, [sp, #-4]!
 8001038:	ea4f 0240 	mov.w	r2, r0, lsl #1
 800103c:	ea4f 0341 	mov.w	r3, r1, lsl #1
 8001040:	ea7f 6c22 	mvns.w	ip, r2, asr #24
 8001044:	bf18      	it	ne
 8001046:	ea7f 6c23 	mvnsne.w	ip, r3, asr #24
 800104a:	d011      	beq.n	8001070 <__cmpsf2+0x40>
 800104c:	b001      	add	sp, #4
 800104e:	ea52 0c53 	orrs.w	ip, r2, r3, lsr #1
 8001052:	bf18      	it	ne
 8001054:	ea90 0f01 	teqne	r0, r1
 8001058:	bf58      	it	pl
 800105a:	ebb2 0003 	subspl.w	r0, r2, r3
 800105e:	bf88      	it	hi
 8001060:	17c8      	asrhi	r0, r1, #31
 8001062:	bf38      	it	cc
 8001064:	ea6f 70e1 	mvncc.w	r0, r1, asr #31
 8001068:	bf18      	it	ne
 800106a:	f040 0001 	orrne.w	r0, r0, #1
 800106e:	4770      	bx	lr
 8001070:	ea7f 6c22 	mvns.w	ip, r2, asr #24
 8001074:	d102      	bne.n	800107c <__cmpsf2+0x4c>
 8001076:	ea5f 2c40 	movs.w	ip, r0, lsl #9
 800107a:	d105      	bne.n	8001088 <__cmpsf2+0x58>
 800107c:	ea7f 6c23 	mvns.w	ip, r3, asr #24
 8001080:	d1e4      	bne.n	800104c <__cmpsf2+0x1c>
 8001082:	ea5f 2c41 	movs.w	ip, r1, lsl #9
 8001086:	d0e1      	beq.n	800104c <__cmpsf2+0x1c>
 8001088:	f85d 0b04 	ldr.w	r0, [sp], #4
 800108c:	4770      	bx	lr
 800108e:	bf00      	nop

08001090 <__aeabi_cfrcmple>:
 8001090:	4684      	mov	ip, r0
 8001092:	4608      	mov	r0, r1
 8001094:	4661      	mov	r1, ip
 8001096:	e7ff      	b.n	8001098 <__aeabi_cfcmpeq>

08001098 <__aeabi_cfcmpeq>:
 8001098:	b50f      	push	{r0, r1, r2, r3, lr}
 800109a:	f7ff ffc9 	bl	8001030 <__cmpsf2>
 800109e:	2800      	cmp	r0, #0
 80010a0:	bf48      	it	mi
 80010a2:	f110 0f00 	cmnmi.w	r0, #0
 80010a6:	bd0f      	pop	{r0, r1, r2, r3, pc}

080010a8 <__aeabi_fcmpeq>:
 80010a8:	f84d ed08 	str.w	lr, [sp, #-8]!
 80010ac:	f7ff fff4 	bl	8001098 <__aeabi_cfcmpeq>
 80010b0:	bf0c      	ite	eq
 80010b2:	2001      	moveq	r0, #1
 80010b4:	2000      	movne	r0, #0
 80010b6:	f85d fb08 	ldr.w	pc, [sp], #8
 80010ba:	bf00      	nop

080010bc <__aeabi_fcmplt>:
 80010bc:	f84d ed08 	str.w	lr, [sp, #-8]!
 80010c0:	f7ff ffea 	bl	8001098 <__aeabi_cfcmpeq>
 80010c4:	bf34      	ite	cc
 80010c6:	2001      	movcc	r0, #1
 80010c8:	2000      	movcs	r0, #0
 80010ca:	f85d fb08 	ldr.w	pc, [sp], #8
 80010ce:	bf00      	nop

080010d0 <__aeabi_fcmple>:
 80010d0:	f84d ed08 	str.w	lr, [sp, #-8]!
 80010d4:	f7ff ffe0 	bl	8001098 <__aeabi_cfcmpeq>
 80010d8:	bf94      	ite	ls
 80010da:	2001      	movls	r0, #1
 80010dc:	2000      	movhi	r0, #0
 80010de:	f85d fb08 	ldr.w	pc, [sp], #8
 80010e2:	bf00      	nop

080010e4 <__aeabi_fcmpge>:
 80010e4:	f84d ed08 	str.w	lr, [sp, #-8]!
 80010e8:	f7ff ffd2 	bl	8001090 <__aeabi_cfrcmple>
 80010ec:	bf94      	ite	ls
 80010ee:	2001      	movls	r0, #1
 80010f0:	2000      	movhi	r0, #0
 80010f2:	f85d fb08 	ldr.w	pc, [sp], #8
 80010f6:	bf00      	nop

080010f8 <__aeabi_fcmpgt>:
 80010f8:	f84d ed08 	str.w	lr, [sp, #-8]!
 80010fc:	f7ff ffc8 	bl	8001090 <__aeabi_cfrcmple>
 8001100:	bf34      	ite	cc
 8001102:	2001      	movcc	r0, #1
 8001104:	2000      	movcs	r0, #0
 8001106:	f85d fb08 	ldr.w	pc, [sp], #8
 800110a:	bf00      	nop

0800110c <__aeabi_f2iz>:
 800110c:	ea4f 0240 	mov.w	r2, r0, lsl #1
 8001110:	f1b2 4ffe 	cmp.w	r2, #2130706432	; 0x7f000000
 8001114:	d30f      	bcc.n	8001136 <__aeabi_f2iz+0x2a>
 8001116:	f04f 039e 	mov.w	r3, #158	; 0x9e
 800111a:	ebb3 6212 	subs.w	r2, r3, r2, lsr #24
 800111e:	d90d      	bls.n	800113c <__aeabi_f2iz+0x30>
 8001120:	ea4f 2300 	mov.w	r3, r0, lsl #8
 8001124:	f043 4300 	orr.w	r3, r3, #2147483648	; 0x80000000
 8001128:	f010 4f00 	tst.w	r0, #2147483648	; 0x80000000
 800112c:	fa23 f002 	lsr.w	r0, r3, r2
 8001130:	bf18      	it	ne
 8001132:	4240      	negne	r0, r0
 8001134:	4770      	bx	lr
 8001136:	f04f 0000 	mov.w	r0, #0
 800113a:	4770      	bx	lr
 800113c:	f112 0f61 	cmn.w	r2, #97	; 0x61
 8001140:	d101      	bne.n	8001146 <__aeabi_f2iz+0x3a>
 8001142:	0242      	lsls	r2, r0, #9
 8001144:	d105      	bne.n	8001152 <__aeabi_f2iz+0x46>
 8001146:	f010 4000 	ands.w	r0, r0, #2147483648	; 0x80000000
 800114a:	bf08      	it	eq
 800114c:	f06f 4000 	mvneq.w	r0, #2147483648	; 0x80000000
 8001150:	4770      	bx	lr
 8001152:	f04f 0000 	mov.w	r0, #0
 8001156:	4770      	bx	lr

08001158 <__aeabi_f2uiz>:
 8001158:	0042      	lsls	r2, r0, #1
 800115a:	d20e      	bcs.n	800117a <__aeabi_f2uiz+0x22>
 800115c:	f1b2 4ffe 	cmp.w	r2, #2130706432	; 0x7f000000
 8001160:	d30b      	bcc.n	800117a <__aeabi_f2uiz+0x22>
 8001162:	f04f 039e 	mov.w	r3, #158	; 0x9e
 8001166:	ebb3 6212 	subs.w	r2, r3, r2, lsr #24
 800116a:	d409      	bmi.n	8001180 <__aeabi_f2uiz+0x28>
 800116c:	ea4f 2300 	mov.w	r3, r0, lsl #8
 8001170:	f043 4300 	orr.w	r3, r3, #2147483648	; 0x80000000
 8001174:	fa23 f002 	lsr.w	r0, r3, r2
 8001178:	4770      	bx	lr
 800117a:	f04f 0000 	mov.w	r0, #0
 800117e:	4770      	bx	lr
 8001180:	f112 0f61 	cmn.w	r2, #97	; 0x61
 8001184:	d101      	bne.n	800118a <__aeabi_f2uiz+0x32>
 8001186:	0242      	lsls	r2, r0, #9
 8001188:	d102      	bne.n	8001190 <__aeabi_f2uiz+0x38>
 800118a:	f04f 30ff 	mov.w	r0, #4294967295
 800118e:	4770      	bx	lr
 8001190:	f04f 0000 	mov.w	r0, #0
 8001194:	4770      	bx	lr
 8001196:	bf00      	nop

08001198 <HAL_InitTick>:
  * @retval HAL status
  */
__weak HAL_StatusTypeDef HAL_InitTick(uint32_t TickPriority)
{
  /*Configure the SysTick to have interrupt in 1ms time basis*/
  HAL_SYSTICK_Config(SystemCoreClock /1000);
 8001198:	4b08      	ldr	r3, [pc, #32]	; (80011bc <HAL_InitTick+0x24>)
{
 800119a:	b510      	push	{r4, lr}
 800119c:	4604      	mov	r4, r0
  HAL_SYSTICK_Config(SystemCoreClock /1000);
 800119e:	6818      	ldr	r0, [r3, #0]
 80011a0:	f44f 737a 	mov.w	r3, #1000	; 0x3e8
 80011a4:	fbb0 f0f3 	udiv	r0, r0, r3
 80011a8:	f000 f884 	bl	80012b4 <HAL_SYSTICK_Config>

  /*Configure the SysTick IRQ priority */
  HAL_NVIC_SetPriority(SysTick_IRQn, TickPriority ,0);
 80011ac:	2200      	movs	r2, #0
 80011ae:	4621      	mov	r1, r4
 80011b0:	f04f 30ff 	mov.w	r0, #4294967295
 80011b4:	f000 f83e 	bl	8001234 <HAL_NVIC_SetPriority>

   /* Return function status */
  return HAL_OK;
}
 80011b8:	2000      	movs	r0, #0
 80011ba:	bd10      	pop	{r4, pc}
 80011bc:	20000004 	.word	0x20000004

080011c0 <HAL_Init>:
{
 80011c0:	b508      	push	{r3, lr}
  HAL_NVIC_SetPriorityGrouping(NVIC_PRIORITYGROUP_4);
 80011c2:	2003      	movs	r0, #3
 80011c4:	f000 f824 	bl	8001210 <HAL_NVIC_SetPriorityGrouping>
  HAL_InitTick(TICK_INT_PRIORITY);
 80011c8:	2000      	movs	r0, #0
 80011ca:	f7ff ffe5 	bl	8001198 <HAL_InitTick>
  HAL_MspInit();
 80011ce:	f003 fc3b 	bl	8004a48 <HAL_MspInit>
}
 80011d2:	2000      	movs	r0, #0
 80011d4:	bd08      	pop	{r3, pc}
	...

080011d8 <HAL_IncTick>:
  *      implementations in user file.
  * @retval None
  */
__weak void HAL_IncTick(void)
{
  uwTick++;
 80011d8:	4a02      	ldr	r2, [pc, #8]	; (80011e4 <HAL_IncTick+0xc>)
 80011da:	6813      	ldr	r3, [r2, #0]
 80011dc:	3301      	adds	r3, #1
 80011de:	6013      	str	r3, [r2, #0]
 80011e0:	4770      	bx	lr
 80011e2:	bf00      	nop
 80011e4:	20000210 	.word	0x20000210

080011e8 <HAL_GetTick>:
  *       implementations in user file.
  * @retval tick value
  */
__weak uint32_t HAL_GetTick(void)
{
  return uwTick;
 80011e8:	4b01      	ldr	r3, [pc, #4]	; (80011f0 <HAL_GetTick+0x8>)
 80011ea:	6818      	ldr	r0, [r3, #0]
}
 80011ec:	4770      	bx	lr
 80011ee:	bf00      	nop
 80011f0:	20000210 	.word	0x20000210

080011f4 <HAL_Delay>:
  *       implementations in user file.
  * @param Delay: specifies the delay time length, in milliseconds.
  * @retval None
  */
__weak void HAL_Delay(__IO uint32_t Delay)
{
 80011f4:	b513      	push	{r0, r1, r4, lr}
 80011f6:	9001      	str	r0, [sp, #4]
  uint32_t tickstart = 0;
  tickstart = HAL_GetTick();
 80011f8:	f7ff fff6 	bl	80011e8 <HAL_GetTick>
 80011fc:	4604      	mov	r4, r0
  while((HAL_GetTick() - tickstart) < Delay)
 80011fe:	f7ff fff3 	bl	80011e8 <HAL_GetTick>
 8001202:	9b01      	ldr	r3, [sp, #4]
 8001204:	1b00      	subs	r0, r0, r4
 8001206:	4298      	cmp	r0, r3
 8001208:	d3f9      	bcc.n	80011fe <HAL_Delay+0xa>
  {
  }
}
 800120a:	b002      	add	sp, #8
 800120c:	bd10      	pop	{r4, pc}
	...

08001210 <HAL_NVIC_SetPriorityGrouping>:
__STATIC_INLINE void NVIC_SetPriorityGrouping(uint32_t PriorityGroup)
{
  uint32_t reg_value;
  uint32_t PriorityGroupTmp = (PriorityGroup & (uint32_t)0x07UL);             /* only values 0..7 are used          */

  reg_value  =  SCB->AIRCR;                                                   /* read old register configuration    */
 8001210:	4a07      	ldr	r2, [pc, #28]	; (8001230 <HAL_NVIC_SetPriorityGrouping+0x20>)
  reg_value &= ~((uint32_t)(SCB_AIRCR_VECTKEY_Msk | SCB_AIRCR_PRIGROUP_Msk)); /* clear bits to change               */
  reg_value  =  (reg_value                                   |
                ((uint32_t)0x5FAUL << SCB_AIRCR_VECTKEY_Pos) |
                (PriorityGroupTmp << 8U)                      );              /* Insert write key and priorty group */
 8001212:	0200      	lsls	r0, r0, #8
  reg_value  =  SCB->AIRCR;                                                   /* read old register configuration    */
 8001214:	68d3      	ldr	r3, [r2, #12]
                (PriorityGroupTmp << 8U)                      );              /* Insert write key and priorty group */
 8001216:	f400 60e0 	and.w	r0, r0, #1792	; 0x700
  reg_value &= ~((uint32_t)(SCB_AIRCR_VECTKEY_Msk | SCB_AIRCR_PRIGROUP_Msk)); /* clear bits to change               */
 800121a:	f423 63e0 	bic.w	r3, r3, #1792	; 0x700
 800121e:	041b      	lsls	r3, r3, #16
 8001220:	0c1b      	lsrs	r3, r3, #16
 8001222:	f043 63bf 	orr.w	r3, r3, #100139008	; 0x5f80000
 8001226:	f443 3300 	orr.w	r3, r3, #131072	; 0x20000
  reg_value  =  (reg_value                                   |
 800122a:	4303      	orrs	r3, r0
  SCB->AIRCR =  reg_value;
 800122c:	60d3      	str	r3, [r2, #12]
 800122e:	4770      	bx	lr
 8001230:	e000ed00 	.word	0xe000ed00

08001234 <HAL_NVIC_SetPriority>:
  \details Reads the priority grouping field from the NVIC Interrupt Controller.
  \return                Priority grouping field (SCB->AIRCR [10:8] PRIGROUP field).
 */
__STATIC_INLINE uint32_t NVIC_GetPriorityGrouping(void)
{
  return ((uint32_t)((SCB->AIRCR & SCB_AIRCR_PRIGROUP_Msk) >> SCB_AIRCR_PRIGROUP_Pos));
 8001234:	4b17      	ldr	r3, [pc, #92]	; (8001294 <HAL_NVIC_SetPriority+0x60>)
  *         This parameter can be a value between 0 and 15
  *         A lower priority value indicates a higher priority.          
  * @retval None
  */
void HAL_NVIC_SetPriority(IRQn_Type IRQn, uint32_t PreemptPriority, uint32_t SubPriority)
{
 8001236:	b530      	push	{r4, r5, lr}
 8001238:	68dc      	ldr	r4, [r3, #12]
 800123a:	f3c4 2402 	ubfx	r4, r4, #8, #3
{
  uint32_t PriorityGroupTmp = (PriorityGroup & (uint32_t)0x07UL);   /* only values 0..7 are used          */
  uint32_t PreemptPriorityBits;
  uint32_t SubPriorityBits;

  PreemptPriorityBits = ((7UL - PriorityGroupTmp) > (uint32_t)(__NVIC_PRIO_BITS)) ? (uint32_t)(__NVIC_PRIO_BITS) : (uint32_t)(7UL - PriorityGroupTmp);
 800123e:	f1c4 0307 	rsb	r3, r4, #7
  SubPriorityBits     = ((PriorityGroupTmp + (uint32_t)(__NVIC_PRIO_BITS)) < (uint32_t)7UL) ? (uint32_t)0UL : (uint32_t)((PriorityGroupTmp - 7UL) + (uint32_t)(__NVIC_PRIO_BITS));
 8001242:	1d25      	adds	r5, r4, #4
  PreemptPriorityBits = ((7UL - PriorityGroupTmp) > (uint32_t)(__NVIC_PRIO_BITS)) ? (uint32_t)(__NVIC_PRIO_BITS) : (uint32_t)(7UL - PriorityGroupTmp);
 8001244:	2b04      	cmp	r3, #4
 8001246:	bf28      	it	cs
 8001248:	2304      	movcs	r3, #4
  SubPriorityBits     = ((PriorityGroupTmp + (uint32_t)(__NVIC_PRIO_BITS)) < (uint32_t)7UL) ? (uint32_t)0UL : (uint32_t)((PriorityGroupTmp - 7UL) + (uint32_t)(__NVIC_PRIO_BITS));
 800124a:	2d06      	cmp	r5, #6

  return (
           ((PreemptPriority & (uint32_t)((1UL << (PreemptPriorityBits)) - 1UL)) << SubPriorityBits) |
 800124c:	f04f 0501 	mov.w	r5, #1
  SubPriorityBits     = ((PriorityGroupTmp + (uint32_t)(__NVIC_PRIO_BITS)) < (uint32_t)7UL) ? (uint32_t)0UL : (uint32_t)((PriorityGroupTmp - 7UL) + (uint32_t)(__NVIC_PRIO_BITS));
 8001250:	bf98      	it	ls
 8001252:	2400      	movls	r4, #0
           ((PreemptPriority & (uint32_t)((1UL << (PreemptPriorityBits)) - 1UL)) << SubPriorityBits) |
 8001254:	fa05 f303 	lsl.w	r3, r5, r3
 8001258:	f103 33ff 	add.w	r3, r3, #4294967295
  SubPriorityBits     = ((PriorityGroupTmp + (uint32_t)(__NVIC_PRIO_BITS)) < (uint32_t)7UL) ? (uint32_t)0UL : (uint32_t)((PriorityGroupTmp - 7UL) + (uint32_t)(__NVIC_PRIO_BITS));
 800125c:	bf88      	it	hi
 800125e:	3c03      	subhi	r4, #3
           ((PreemptPriority & (uint32_t)((1UL << (PreemptPriorityBits)) - 1UL)) << SubPriorityBits) |
 8001260:	4019      	ands	r1, r3
 8001262:	40a1      	lsls	r1, r4
           ((SubPriority     & (uint32_t)((1UL << (SubPriorityBits    )) - 1UL)))
 8001264:	fa05 f404 	lsl.w	r4, r5, r4
 8001268:	3c01      	subs	r4, #1
 800126a:	4022      	ands	r2, r4
  if ((int32_t)(IRQn) < 0)
 800126c:	2800      	cmp	r0, #0
           ((PreemptPriority & (uint32_t)((1UL << (PreemptPriorityBits)) - 1UL)) << SubPriorityBits) |
 800126e:	ea42 0201 	orr.w	r2, r2, r1
 8001272:	ea4f 1202 	mov.w	r2, r2, lsl #4
    NVIC->IP[((uint32_t)(int32_t)IRQn)]               = (uint8_t)((priority << (8U - __NVIC_PRIO_BITS)) & (uint32_t)0xFFUL);
 8001276:	bfaf      	iteee	ge
 8001278:	f100 4060 	addge.w	r0, r0, #3758096384	; 0xe0000000
    SCB->SHP[(((uint32_t)(int32_t)IRQn) & 0xFUL)-4UL] = (uint8_t)((priority << (8U - __NVIC_PRIO_BITS)) & (uint32_t)0xFFUL);
 800127c:	4b06      	ldrlt	r3, [pc, #24]	; (8001298 <HAL_NVIC_SetPriority+0x64>)
 800127e:	f000 000f 	andlt.w	r0, r0, #15
 8001282:	b2d2      	uxtblt	r2, r2
    NVIC->IP[((uint32_t)(int32_t)IRQn)]               = (uint8_t)((priority << (8U - __NVIC_PRIO_BITS)) & (uint32_t)0xFFUL);
 8001284:	bfa5      	ittet	ge
 8001286:	b2d2      	uxtbge	r2, r2
 8001288:	f500 4061 	addge.w	r0, r0, #57600	; 0xe100
    SCB->SHP[(((uint32_t)(int32_t)IRQn) & 0xFUL)-4UL] = (uint8_t)((priority << (8U - __NVIC_PRIO_BITS)) & (uint32_t)0xFFUL);
 800128c:	541a      	strblt	r2, [r3, r0]
    NVIC->IP[((uint32_t)(int32_t)IRQn)]               = (uint8_t)((priority << (8U - __NVIC_PRIO_BITS)) & (uint32_t)0xFFUL);
 800128e:	f880 2300 	strbge.w	r2, [r0, #768]	; 0x300
 8001292:	bd30      	pop	{r4, r5, pc}
 8001294:	e000ed00 	.word	0xe000ed00
 8001298:	e000ed14 	.word	0xe000ed14

0800129c <HAL_NVIC_EnableIRQ>:
  NVIC->ISER[(((uint32_t)(int32_t)IRQn) >> 5UL)] = (uint32_t)(1UL << (((uint32_t)(int32_t)IRQn) & 0x1FUL));
 800129c:	2301      	movs	r3, #1
 800129e:	0942      	lsrs	r2, r0, #5
 80012a0:	f000 001f 	and.w	r0, r0, #31
 80012a4:	fa03 f000 	lsl.w	r0, r3, r0
 80012a8:	4b01      	ldr	r3, [pc, #4]	; (80012b0 <HAL_NVIC_EnableIRQ+0x14>)
 80012aa:	f843 0022 	str.w	r0, [r3, r2, lsl #2]
 80012ae:	4770      	bx	lr
 80012b0:	e000e100 	.word	0xe000e100

080012b4 <HAL_SYSTICK_Config>:
           function <b>SysTick_Config</b> is not included. In this case, the file <b><i>device</i>.h</b>
           must contain a vendor-specific implementation of this function.
 */
__STATIC_INLINE uint32_t SysTick_Config(uint32_t ticks)
{
  if ((ticks - 1UL) > SysTick_LOAD_RELOAD_Msk)
 80012b4:	3801      	subs	r0, #1
 80012b6:	f1b0 7f80 	cmp.w	r0, #16777216	; 0x1000000
 80012ba:	d20a      	bcs.n	80012d2 <HAL_SYSTICK_Config+0x1e>
    SCB->SHP[(((uint32_t)(int32_t)IRQn) & 0xFUL)-4UL] = (uint8_t)((priority << (8U - __NVIC_PRIO_BITS)) & (uint32_t)0xFFUL);
 80012bc:	21f0      	movs	r1, #240	; 0xf0
  {
    return (1UL);                                                   /* Reload value impossible */
  }

  SysTick->LOAD  = (uint32_t)(ticks - 1UL);                         /* set reload register */
 80012be:	4b06      	ldr	r3, [pc, #24]	; (80012d8 <HAL_SYSTICK_Config+0x24>)
    SCB->SHP[(((uint32_t)(int32_t)IRQn) & 0xFUL)-4UL] = (uint8_t)((priority << (8U - __NVIC_PRIO_BITS)) & (uint32_t)0xFFUL);
 80012c0:	4a06      	ldr	r2, [pc, #24]	; (80012dc <HAL_SYSTICK_Config+0x28>)
  SysTick->LOAD  = (uint32_t)(ticks - 1UL);                         /* set reload register */
 80012c2:	6058      	str	r0, [r3, #4]
    SCB->SHP[(((uint32_t)(int32_t)IRQn) & 0xFUL)-4UL] = (uint8_t)((priority << (8U - __NVIC_PRIO_BITS)) & (uint32_t)0xFFUL);
 80012c4:	f882 1023 	strb.w	r1, [r2, #35]	; 0x23
  NVIC_SetPriority (SysTick_IRQn, (1UL << __NVIC_PRIO_BITS) - 1UL); /* set Priority for Systick Interrupt */
  SysTick->VAL   = 0UL;                                             /* Load the SysTick Counter Value */
 80012c8:	2000      	movs	r0, #0
  SysTick->CTRL  = SysTick_CTRL_CLKSOURCE_Msk |
 80012ca:	2207      	movs	r2, #7
  SysTick->VAL   = 0UL;                                             /* Load the SysTick Counter Value */
 80012cc:	6098      	str	r0, [r3, #8]
  SysTick->CTRL  = SysTick_CTRL_CLKSOURCE_Msk |
 80012ce:	601a      	str	r2, [r3, #0]
 80012d0:	4770      	bx	lr
    return (1UL);                                                   /* Reload value impossible */
 80012d2:	2001      	movs	r0, #1
  *                  - 1  Function failed.
  */
uint32_t HAL_SYSTICK_Config(uint32_t TicksNumb)
{
   return SysTick_Config(TicksNumb);
}
 80012d4:	4770      	bx	lr
 80012d6:	bf00      	nop
 80012d8:	e000e010 	.word	0xe000e010
 80012dc:	e000ed00 	.word	0xe000ed00

080012e0 <HAL_SYSTICK_CLKSourceConfig>:
  *             @arg SYSTICK_CLKSOURCE_HCLK_DIV8: AHB clock divided by 8 selected as SysTick clock source.
  *             @arg SYSTICK_CLKSOURCE_HCLK: AHB clock selected as SysTick clock source.
  * @retval None
  */
void HAL_SYSTICK_CLKSourceConfig(uint32_t CLKSource)
{
 80012e0:	4b04      	ldr	r3, [pc, #16]	; (80012f4 <HAL_SYSTICK_CLKSourceConfig+0x14>)
  /* Check the parameters */
  assert_param(IS_SYSTICK_CLK_SOURCE(CLKSource));
  if (CLKSource == SYSTICK_CLKSOURCE_HCLK)
 80012e2:	2804      	cmp	r0, #4
  {
    SysTick->CTRL |= SYSTICK_CLKSOURCE_HCLK;
 80012e4:	681a      	ldr	r2, [r3, #0]
 80012e6:	bf0c      	ite	eq
 80012e8:	f042 0204 	orreq.w	r2, r2, #4
  }
  else
  {
    SysTick->CTRL &= ~SYSTICK_CLKSOURCE_HCLK;
 80012ec:	f022 0204 	bicne.w	r2, r2, #4
 80012f0:	601a      	str	r2, [r3, #0]
 80012f2:	4770      	bx	lr
 80012f4:	e000e010 	.word	0xe000e010

080012f8 <HAL_SYSTICK_Callback>:
/**
  * @brief  SYSTICK callback.
  * @retval None
  */
__weak void HAL_SYSTICK_Callback(void)
{
 80012f8:	4770      	bx	lr

080012fa <HAL_SYSTICK_IRQHandler>:
{
 80012fa:	b508      	push	{r3, lr}
  HAL_SYSTICK_Callback();
 80012fc:	f7ff fffc 	bl	80012f8 <HAL_SYSTICK_Callback>
 8001300:	bd08      	pop	{r3, pc}
	...

08001304 <HAL_GPIO_Init>:
  *         the configuration information for the specified GPIO peripheral.
  * @retval None
  */
void HAL_GPIO_Init(GPIO_TypeDef  *GPIOx, GPIO_InitTypeDef *GPIO_Init)
{ 
  uint32_t position = 0x00;
 8001304:	2300      	movs	r3, #0
{ 
 8001306:	e92d 4ff0 	stmdb	sp!, {r4, r5, r6, r7, r8, r9, sl, fp, lr}
        CLEAR_BIT(temp, (0x0FU) << (4 * (position & 0x03)));
        SET_BIT(temp, (GPIO_GET_INDEX(GPIOx)) << (4 * (position & 0x03)));
        SYSCFG->EXTICR[position >> 2] = temp;
                  
        /* Clear EXTI line configuration */
        temp = EXTI->IMR;
 800130a:	4a62      	ldr	r2, [pc, #392]	; (8001494 <HAL_GPIO_Init+0x190>)
  while (((GPIO_Init->Pin) >> position) != 0)
 800130c:	f8d1 8000 	ldr.w	r8, [r1]
        __HAL_RCC_SYSCFG_CLK_ENABLE();
 8001310:	f8df 9188 	ldr.w	r9, [pc, #392]	; 800149c <HAL_GPIO_Init+0x198>
{ 
 8001314:	b085      	sub	sp, #20
  while (((GPIO_Init->Pin) >> position) != 0)
 8001316:	fa38 f403 	lsrs.w	r4, r8, r3
 800131a:	d102      	bne.n	8001322 <HAL_GPIO_Init+0x1e>
      }
    }
    
    position++;
  } 
}
 800131c:	b005      	add	sp, #20
 800131e:	e8bd 8ff0 	ldmia.w	sp!, {r4, r5, r6, r7, r8, r9, sl, fp, pc}
    iocurrent = (GPIO_Init->Pin) & (1U << position);
 8001322:	2401      	movs	r4, #1
 8001324:	409c      	lsls	r4, r3
    if(iocurrent)
 8001326:	ea18 0604 	ands.w	r6, r8, r4
    iocurrent = (GPIO_Init->Pin) & (1U << position);
 800132a:	9401      	str	r4, [sp, #4]
    if(iocurrent)
 800132c:	f000 80a7 	beq.w	800147e <HAL_GPIO_Init+0x17a>
      if((GPIO_Init->Mode == GPIO_MODE_AF_PP) || (GPIO_Init->Mode == GPIO_MODE_AF_OD)) 
 8001330:	684c      	ldr	r4, [r1, #4]
 8001332:	f024 0a10 	bic.w	sl, r4, #16
 8001336:	f1ba 0f02 	cmp.w	sl, #2
 800133a:	d116      	bne.n	800136a <HAL_GPIO_Init+0x66>
        CLEAR_BIT(temp, 0xFU << ((uint32_t)(position & 0x07U) * 4)) ;      
 800133c:	f04f 0e0f 	mov.w	lr, #15
        temp = GPIOx->AFR[position >> 3];
 8001340:	ea4f 0cd3 	mov.w	ip, r3, lsr #3
 8001344:	eb00 0c8c 	add.w	ip, r0, ip, lsl #2
        CLEAR_BIT(temp, 0xFU << ((uint32_t)(position & 0x07U) * 4)) ;      
 8001348:	f003 0b07 	and.w	fp, r3, #7
        temp = GPIOx->AFR[position >> 3];
 800134c:	f8dc 5020 	ldr.w	r5, [ip, #32]
        CLEAR_BIT(temp, 0xFU << ((uint32_t)(position & 0x07U) * 4)) ;      
 8001350:	ea4f 0b8b 	mov.w	fp, fp, lsl #2
 8001354:	fa0e fe0b 	lsl.w	lr, lr, fp
 8001358:	ea25 0e0e 	bic.w	lr, r5, lr
        SET_BIT(temp, (uint32_t)(GPIO_Init->Alternate) << (((uint32_t)position & 0x07U) * 4));       
 800135c:	690d      	ldr	r5, [r1, #16]
 800135e:	fa05 f50b 	lsl.w	r5, r5, fp
 8001362:	ea45 050e 	orr.w	r5, r5, lr
        GPIOx->AFR[position >> 3] = temp;
 8001366:	f8cc 5020 	str.w	r5, [ip, #32]
      CLEAR_BIT(temp, GPIO_MODER_MODER0 << (position * 2));   
 800136a:	2503      	movs	r5, #3
 800136c:	ea4f 0c43 	mov.w	ip, r3, lsl #1
 8001370:	fa05 f50c 	lsl.w	r5, r5, ip
 8001374:	43ed      	mvns	r5, r5
      temp = GPIOx->MODER;
 8001376:	f8d0 b000 	ldr.w	fp, [r0]
      SET_BIT(temp, (GPIO_Init->Mode & GPIO_MODE) << (position * 2));
 800137a:	f004 0e03 	and.w	lr, r4, #3
      CLEAR_BIT(temp, GPIO_MODER_MODER0 << (position * 2));   
 800137e:	ea0b 0b05 	and.w	fp, fp, r5
      SET_BIT(temp, (GPIO_Init->Mode & GPIO_MODE) << (position * 2));
 8001382:	fa0e fe0c 	lsl.w	lr, lr, ip
      if ((GPIO_Init->Mode == GPIO_MODE_OUTPUT_PP) || (GPIO_Init->Mode == GPIO_MODE_AF_PP) ||
 8001386:	f10a 3aff 	add.w	sl, sl, #4294967295
      SET_BIT(temp, (GPIO_Init->Mode & GPIO_MODE) << (position * 2));
 800138a:	ea4e 0e0b 	orr.w	lr, lr, fp
      if ((GPIO_Init->Mode == GPIO_MODE_OUTPUT_PP) || (GPIO_Init->Mode == GPIO_MODE_AF_PP) ||
 800138e:	f1ba 0f01 	cmp.w	sl, #1
      GPIOx->MODER = temp;
 8001392:	f8c0 e000 	str.w	lr, [r0]
      if ((GPIO_Init->Mode == GPIO_MODE_OUTPUT_PP) || (GPIO_Init->Mode == GPIO_MODE_AF_PP) ||
 8001396:	d816      	bhi.n	80013c6 <HAL_GPIO_Init+0xc2>
        temp = GPIOx->OSPEEDR; 
 8001398:	f8d0 e008 	ldr.w	lr, [r0, #8]
        SET_BIT(temp, GPIO_Init->Speed << (position * 2));
 800139c:	68cf      	ldr	r7, [r1, #12]
        CLEAR_BIT(temp, GPIO_OSPEEDER_OSPEEDR0 << (position * 2));
 800139e:	ea05 0e0e 	and.w	lr, r5, lr
        SET_BIT(temp, GPIO_Init->Speed << (position * 2));
 80013a2:	fa07 fa0c 	lsl.w	sl, r7, ip
 80013a6:	ea4a 0e0e 	orr.w	lr, sl, lr
        GPIOx->OSPEEDR = temp;
 80013aa:	f8c0 e008 	str.w	lr, [r0, #8]
        temp = GPIOx->OTYPER;
 80013ae:	f8d0 e004 	ldr.w	lr, [r0, #4]
        CLEAR_BIT(temp, GPIO_OTYPER_OT_0 << position) ;
 80013b2:	9f01      	ldr	r7, [sp, #4]
 80013b4:	ea2e 0707 	bic.w	r7, lr, r7
        SET_BIT(temp, ((GPIO_Init->Mode & GPIO_OUTPUT_TYPE) >> 4) << position);
 80013b8:	f3c4 1e00 	ubfx	lr, r4, #4, #1
 80013bc:	fa0e fe03 	lsl.w	lr, lr, r3
 80013c0:	ea4e 0707 	orr.w	r7, lr, r7
        GPIOx->OTYPER = temp;
 80013c4:	6047      	str	r7, [r0, #4]
      temp = GPIOx->PUPDR;
 80013c6:	68c7      	ldr	r7, [r0, #12]
      CLEAR_BIT(temp, GPIO_PUPDR_PUPDR0 << (position * 2));
 80013c8:	403d      	ands	r5, r7
      SET_BIT(temp, (GPIO_Init->Pull) << (position * 2));
 80013ca:	688f      	ldr	r7, [r1, #8]
 80013cc:	fa07 f70c 	lsl.w	r7, r7, ip
 80013d0:	433d      	orrs	r5, r7
      GPIOx->PUPDR = temp;
 80013d2:	60c5      	str	r5, [r0, #12]
      if((GPIO_Init->Mode & EXTI_MODE) == EXTI_MODE) 
 80013d4:	00e5      	lsls	r5, r4, #3
 80013d6:	d552      	bpl.n	800147e <HAL_GPIO_Init+0x17a>
        CLEAR_BIT(temp, (0x0FU) << (4 * (position & 0x03)));
 80013d8:	f04f 0e0f 	mov.w	lr, #15
        __HAL_RCC_SYSCFG_CLK_ENABLE();
 80013dc:	f8d9 5020 	ldr.w	r5, [r9, #32]
 80013e0:	f023 0703 	bic.w	r7, r3, #3
 80013e4:	f045 0501 	orr.w	r5, r5, #1
 80013e8:	f8c9 5020 	str.w	r5, [r9, #32]
 80013ec:	f8d9 5020 	ldr.w	r5, [r9, #32]
 80013f0:	f107 4780 	add.w	r7, r7, #1073741824	; 0x40000000
 80013f4:	f005 0501 	and.w	r5, r5, #1
 80013f8:	9503      	str	r5, [sp, #12]
 80013fa:	f507 3780 	add.w	r7, r7, #65536	; 0x10000
        CLEAR_BIT(temp, (0x0FU) << (4 * (position & 0x03)));
 80013fe:	f003 0c03 	and.w	ip, r3, #3
        __HAL_RCC_SYSCFG_CLK_ENABLE();
 8001402:	9d03      	ldr	r5, [sp, #12]
        CLEAR_BIT(temp, (0x0FU) << (4 * (position & 0x03)));
 8001404:	ea4f 0c8c 	mov.w	ip, ip, lsl #2
        temp = SYSCFG->EXTICR[position >> 2];
 8001408:	68bd      	ldr	r5, [r7, #8]
        CLEAR_BIT(temp, (0x0FU) << (4 * (position & 0x03)));
 800140a:	fa0e fe0c 	lsl.w	lr, lr, ip
 800140e:	ea25 0e0e 	bic.w	lr, r5, lr
        SET_BIT(temp, (GPIO_GET_INDEX(GPIOx)) << (4 * (position & 0x03)));
 8001412:	4d21      	ldr	r5, [pc, #132]	; (8001498 <HAL_GPIO_Init+0x194>)
 8001414:	42a8      	cmp	r0, r5
 8001416:	d034      	beq.n	8001482 <HAL_GPIO_Init+0x17e>
 8001418:	f505 6580 	add.w	r5, r5, #1024	; 0x400
 800141c:	42a8      	cmp	r0, r5
 800141e:	d032      	beq.n	8001486 <HAL_GPIO_Init+0x182>
 8001420:	f505 6580 	add.w	r5, r5, #1024	; 0x400
 8001424:	42a8      	cmp	r0, r5
 8001426:	d030      	beq.n	800148a <HAL_GPIO_Init+0x186>
 8001428:	f505 6580 	add.w	r5, r5, #1024	; 0x400
 800142c:	42a8      	cmp	r0, r5
 800142e:	d02e      	beq.n	800148e <HAL_GPIO_Init+0x18a>
 8001430:	f505 6580 	add.w	r5, r5, #1024	; 0x400
 8001434:	42a8      	cmp	r0, r5
 8001436:	bf14      	ite	ne
 8001438:	2505      	movne	r5, #5
 800143a:	2504      	moveq	r5, #4
 800143c:	fa05 f50c 	lsl.w	r5, r5, ip
 8001440:	ea45 050e 	orr.w	r5, r5, lr
        SYSCFG->EXTICR[position >> 2] = temp;
 8001444:	60bd      	str	r5, [r7, #8]
        CLEAR_BIT(temp, (uint32_t)iocurrent);
 8001446:	43f7      	mvns	r7, r6
        temp = EXTI->IMR;
 8001448:	6815      	ldr	r5, [r2, #0]
        if((GPIO_Init->Mode & GPIO_MODE_IT) == GPIO_MODE_IT)
 800144a:	f414 3f80 	tst.w	r4, #65536	; 0x10000
        CLEAR_BIT(temp, (uint32_t)iocurrent);
 800144e:	bf0c      	ite	eq
 8001450:	403d      	andeq	r5, r7
          SET_BIT(temp, iocurrent); 
 8001452:	4335      	orrne	r5, r6
        EXTI->IMR = temp;
 8001454:	6015      	str	r5, [r2, #0]
        temp = EXTI->EMR;
 8001456:	6855      	ldr	r5, [r2, #4]
        if((GPIO_Init->Mode & GPIO_MODE_EVT) == GPIO_MODE_EVT)
 8001458:	f414 3f00 	tst.w	r4, #131072	; 0x20000
        CLEAR_BIT(temp, (uint32_t)iocurrent);      
 800145c:	bf0c      	ite	eq
 800145e:	403d      	andeq	r5, r7
          SET_BIT(temp, iocurrent); 
 8001460:	4335      	orrne	r5, r6
        EXTI->EMR = temp;
 8001462:	6055      	str	r5, [r2, #4]
        temp = EXTI->RTSR;
 8001464:	6895      	ldr	r5, [r2, #8]
        if((GPIO_Init->Mode & RISING_EDGE) == RISING_EDGE)
 8001466:	f414 1f80 	tst.w	r4, #1048576	; 0x100000
        CLEAR_BIT(temp, (uint32_t)iocurrent); 
 800146a:	bf0c      	ite	eq
 800146c:	403d      	andeq	r5, r7
          SET_BIT(temp, iocurrent); 
 800146e:	4335      	orrne	r5, r6
        EXTI->RTSR = temp;
 8001470:	6095      	str	r5, [r2, #8]
        temp = EXTI->FTSR;
 8001472:	68d5      	ldr	r5, [r2, #12]
        if((GPIO_Init->Mode & FALLING_EDGE) == FALLING_EDGE)
 8001474:	02a4      	lsls	r4, r4, #10
        CLEAR_BIT(temp, (uint32_t)iocurrent); 
 8001476:	bf54      	ite	pl
 8001478:	403d      	andpl	r5, r7
          SET_BIT(temp, iocurrent); 
 800147a:	4335      	orrmi	r5, r6
        EXTI->FTSR = temp;
 800147c:	60d5      	str	r5, [r2, #12]
    position++;
 800147e:	3301      	adds	r3, #1
 8001480:	e749      	b.n	8001316 <HAL_GPIO_Init+0x12>
        SET_BIT(temp, (GPIO_GET_INDEX(GPIOx)) << (4 * (position & 0x03)));
 8001482:	2500      	movs	r5, #0
 8001484:	e7da      	b.n	800143c <HAL_GPIO_Init+0x138>
 8001486:	2501      	movs	r5, #1
 8001488:	e7d8      	b.n	800143c <HAL_GPIO_Init+0x138>
 800148a:	2502      	movs	r5, #2
 800148c:	e7d6      	b.n	800143c <HAL_GPIO_Init+0x138>
 800148e:	2503      	movs	r5, #3
 8001490:	e7d4      	b.n	800143c <HAL_GPIO_Init+0x138>
 8001492:	bf00      	nop
 8001494:	40010400 	.word	0x40010400
 8001498:	40020000 	.word	0x40020000
 800149c:	40023800 	.word	0x40023800

080014a0 <HAL_GPIO_WritePin>:
{
  /* Check the parameters */
  assert_param(IS_GPIO_PIN(GPIO_Pin));
  assert_param(IS_GPIO_PIN_ACTION(PinState));

  if (PinState != GPIO_PIN_RESET)
 80014a0:	b10a      	cbz	r2, 80014a6 <HAL_GPIO_WritePin+0x6>
  {
    GPIOx->BSRR = (uint32_t)GPIO_Pin;
  }
  else
  {
    GPIOx->BSRR = (uint32_t)GPIO_Pin << 16 ;
 80014a2:	6181      	str	r1, [r0, #24]
 80014a4:	4770      	bx	lr
 80014a6:	0409      	lsls	r1, r1, #16
 80014a8:	e7fb      	b.n	80014a2 <HAL_GPIO_WritePin+0x2>

080014aa <I2C_IsAcknowledgeFailed>:
  *                the configuration information for the specified I2C.
  * @retval HAL status
  */
static HAL_StatusTypeDef I2C_IsAcknowledgeFailed(I2C_HandleTypeDef *hi2c)
{
  if(__HAL_I2C_GET_FLAG(hi2c, I2C_FLAG_AF) == SET)
 80014aa:	6802      	ldr	r2, [r0, #0]
 80014ac:	6953      	ldr	r3, [r2, #20]
 80014ae:	f413 6380 	ands.w	r3, r3, #1024	; 0x400
 80014b2:	d00d      	beq.n	80014d0 <I2C_IsAcknowledgeFailed+0x26>
  {
    /* Clear NACKF Flag */
    __HAL_I2C_CLEAR_FLAG(hi2c, I2C_FLAG_AF);
 80014b4:	f46f 6380 	mvn.w	r3, #1024	; 0x400
 80014b8:	6153      	str	r3, [r2, #20]

    hi2c->ErrorCode = HAL_I2C_ERROR_AF;
 80014ba:	2304      	movs	r3, #4
    hi2c->PreviousState = I2C_STATE_NONE;
    hi2c->State= HAL_I2C_STATE_READY;
 80014bc:	2220      	movs	r2, #32
    hi2c->ErrorCode = HAL_I2C_ERROR_AF;
 80014be:	6403      	str	r3, [r0, #64]	; 0x40
    hi2c->PreviousState = I2C_STATE_NONE;
 80014c0:	2300      	movs	r3, #0
 80014c2:	6303      	str	r3, [r0, #48]	; 0x30

    /* Process Unlocked */
    __HAL_UNLOCK(hi2c);
 80014c4:	f880 303c 	strb.w	r3, [r0, #60]	; 0x3c
    hi2c->State= HAL_I2C_STATE_READY;
 80014c8:	f880 203d 	strb.w	r2, [r0, #61]	; 0x3d

    return HAL_ERROR;
 80014cc:	2001      	movs	r0, #1
 80014ce:	4770      	bx	lr
  }
  return HAL_OK;
 80014d0:	4618      	mov	r0, r3
}
 80014d2:	4770      	bx	lr

080014d4 <I2C_WaitOnMasterAddressFlagUntilTimeout>:
{
 80014d4:	e92d 43f8 	stmdb	sp!, {r3, r4, r5, r6, r7, r8, r9, lr}
 80014d8:	4604      	mov	r4, r0
 80014da:	4617      	mov	r7, r2
 80014dc:	4699      	mov	r9, r3
  while(__HAL_I2C_GET_FLAG(hi2c, Flag) == RESET)
 80014de:	f3c1 4807 	ubfx	r8, r1, #16, #8
 80014e2:	b28e      	uxth	r6, r1
 80014e4:	6825      	ldr	r5, [r4, #0]
 80014e6:	f1b8 0f01 	cmp.w	r8, #1
 80014ea:	bf0c      	ite	eq
 80014ec:	696b      	ldreq	r3, [r5, #20]
 80014ee:	69ab      	ldrne	r3, [r5, #24]
 80014f0:	ea36 0303 	bics.w	r3, r6, r3
 80014f4:	bf14      	ite	ne
 80014f6:	2001      	movne	r0, #1
 80014f8:	2000      	moveq	r0, #0
 80014fa:	b908      	cbnz	r0, 8001500 <I2C_WaitOnMasterAddressFlagUntilTimeout+0x2c>
}
 80014fc:	e8bd 83f8 	ldmia.w	sp!, {r3, r4, r5, r6, r7, r8, r9, pc}
    if(__HAL_I2C_GET_FLAG(hi2c, I2C_FLAG_AF) == SET)
 8001500:	696b      	ldr	r3, [r5, #20]
 8001502:	055a      	lsls	r2, r3, #21
 8001504:	d512      	bpl.n	800152c <I2C_WaitOnMasterAddressFlagUntilTimeout+0x58>
      SET_BIT(hi2c->Instance->CR1, I2C_CR1_STOP);
 8001506:	682b      	ldr	r3, [r5, #0]
      hi2c->State= HAL_I2C_STATE_READY;
 8001508:	2220      	movs	r2, #32
      SET_BIT(hi2c->Instance->CR1, I2C_CR1_STOP);
 800150a:	f443 7300 	orr.w	r3, r3, #512	; 0x200
 800150e:	602b      	str	r3, [r5, #0]
      __HAL_I2C_CLEAR_FLAG(hi2c, I2C_FLAG_AF);
 8001510:	f46f 6380 	mvn.w	r3, #1024	; 0x400
 8001514:	616b      	str	r3, [r5, #20]
      hi2c->ErrorCode = HAL_I2C_ERROR_AF;
 8001516:	2304      	movs	r3, #4
 8001518:	6423      	str	r3, [r4, #64]	; 0x40
      hi2c->PreviousState = I2C_STATE_NONE;
 800151a:	2300      	movs	r3, #0
      return HAL_ERROR;
 800151c:	2001      	movs	r0, #1
      hi2c->PreviousState = I2C_STATE_NONE;
 800151e:	6323      	str	r3, [r4, #48]	; 0x30
      __HAL_UNLOCK(hi2c);
 8001520:	f884 303c 	strb.w	r3, [r4, #60]	; 0x3c
      hi2c->State= HAL_I2C_STATE_READY;
 8001524:	f884 203d 	strb.w	r2, [r4, #61]	; 0x3d
      return HAL_ERROR;
 8001528:	e8bd 83f8 	ldmia.w	sp!, {r3, r4, r5, r6, r7, r8, r9, pc}
    if(Timeout != HAL_MAX_DELAY)
 800152c:	1c7b      	adds	r3, r7, #1
 800152e:	d0d9      	beq.n	80014e4 <I2C_WaitOnMasterAddressFlagUntilTimeout+0x10>
      if((Timeout == 0U)||((HAL_GetTick() - Tickstart ) > Timeout))
 8001530:	b94f      	cbnz	r7, 8001546 <I2C_WaitOnMasterAddressFlagUntilTimeout+0x72>
        hi2c->PreviousState = I2C_STATE_NONE;
 8001532:	2300      	movs	r3, #0
        hi2c->State= HAL_I2C_STATE_READY;
 8001534:	2220      	movs	r2, #32
        hi2c->PreviousState = I2C_STATE_NONE;
 8001536:	6323      	str	r3, [r4, #48]	; 0x30
        __HAL_UNLOCK(hi2c);
 8001538:	f884 303c 	strb.w	r3, [r4, #60]	; 0x3c
        hi2c->State= HAL_I2C_STATE_READY;
 800153c:	f884 203d 	strb.w	r2, [r4, #61]	; 0x3d
        return HAL_TIMEOUT;
 8001540:	2003      	movs	r0, #3
 8001542:	e8bd 83f8 	ldmia.w	sp!, {r3, r4, r5, r6, r7, r8, r9, pc}
      if((Timeout == 0U)||((HAL_GetTick() - Tickstart ) > Timeout))
 8001546:	f7ff fe4f 	bl	80011e8 <HAL_GetTick>
 800154a:	eba0 0009 	sub.w	r0, r0, r9
 800154e:	4287      	cmp	r7, r0
 8001550:	d2c8      	bcs.n	80014e4 <I2C_WaitOnMasterAddressFlagUntilTimeout+0x10>
 8001552:	e7ee      	b.n	8001532 <I2C_WaitOnMasterAddressFlagUntilTimeout+0x5e>

08001554 <I2C_WaitOnFlagUntilTimeout>:
{
 8001554:	e92d 43f8 	stmdb	sp!, {r3, r4, r5, r6, r7, r8, r9, lr}
 8001558:	4604      	mov	r4, r0
 800155a:	4690      	mov	r8, r2
 800155c:	461f      	mov	r7, r3
 800155e:	9e08      	ldr	r6, [sp, #32]
  while(__HAL_I2C_GET_FLAG(hi2c, Flag) == Status)
 8001560:	f3c1 4907 	ubfx	r9, r1, #16, #8
 8001564:	b28d      	uxth	r5, r1
 8001566:	6823      	ldr	r3, [r4, #0]
 8001568:	f1b9 0f01 	cmp.w	r9, #1
 800156c:	bf0c      	ite	eq
 800156e:	695b      	ldreq	r3, [r3, #20]
 8001570:	699b      	ldrne	r3, [r3, #24]
 8001572:	ea35 0303 	bics.w	r3, r5, r3
 8001576:	bf0c      	ite	eq
 8001578:	2301      	moveq	r3, #1
 800157a:	2300      	movne	r3, #0
 800157c:	4543      	cmp	r3, r8
 800157e:	d002      	beq.n	8001586 <I2C_WaitOnFlagUntilTimeout+0x32>
  return HAL_OK;
 8001580:	2000      	movs	r0, #0
}
 8001582:	e8bd 83f8 	ldmia.w	sp!, {r3, r4, r5, r6, r7, r8, r9, pc}
    if(Timeout != HAL_MAX_DELAY)
 8001586:	1c7b      	adds	r3, r7, #1
 8001588:	d0ed      	beq.n	8001566 <I2C_WaitOnFlagUntilTimeout+0x12>
      if((Timeout == 0U)||((HAL_GetTick() - Tickstart ) > Timeout))
 800158a:	b95f      	cbnz	r7, 80015a4 <I2C_WaitOnFlagUntilTimeout+0x50>
        hi2c->PreviousState = I2C_STATE_NONE;
 800158c:	2300      	movs	r3, #0
        hi2c->State= HAL_I2C_STATE_READY;
 800158e:	2220      	movs	r2, #32
        hi2c->PreviousState = I2C_STATE_NONE;
 8001590:	6323      	str	r3, [r4, #48]	; 0x30
        __HAL_UNLOCK(hi2c);
 8001592:	f884 303c 	strb.w	r3, [r4, #60]	; 0x3c
        hi2c->State= HAL_I2C_STATE_READY;
 8001596:	f884 203d 	strb.w	r2, [r4, #61]	; 0x3d
        __HAL_UNLOCK(hi2c);
 800159a:	2003      	movs	r0, #3
        hi2c->Mode = HAL_I2C_MODE_NONE;
 800159c:	f884 303e 	strb.w	r3, [r4, #62]	; 0x3e
 80015a0:	e8bd 83f8 	ldmia.w	sp!, {r3, r4, r5, r6, r7, r8, r9, pc}
      if((Timeout == 0U)||((HAL_GetTick() - Tickstart ) > Timeout))
 80015a4:	f7ff fe20 	bl	80011e8 <HAL_GetTick>
 80015a8:	1b80      	subs	r0, r0, r6
 80015aa:	4287      	cmp	r7, r0
 80015ac:	d2db      	bcs.n	8001566 <I2C_WaitOnFlagUntilTimeout+0x12>
 80015ae:	e7ed      	b.n	800158c <I2C_WaitOnFlagUntilTimeout+0x38>

080015b0 <I2C_WaitOnTXEFlagUntilTimeout>:
{  
 80015b0:	b570      	push	{r4, r5, r6, lr}
 80015b2:	4604      	mov	r4, r0
 80015b4:	460d      	mov	r5, r1
 80015b6:	4616      	mov	r6, r2
  while(__HAL_I2C_GET_FLAG(hi2c, I2C_FLAG_TXE) == RESET)
 80015b8:	6823      	ldr	r3, [r4, #0]
 80015ba:	695b      	ldr	r3, [r3, #20]
 80015bc:	061b      	lsls	r3, r3, #24
 80015be:	d501      	bpl.n	80015c4 <I2C_WaitOnTXEFlagUntilTimeout+0x14>
  return HAL_OK;      
 80015c0:	2000      	movs	r0, #0
 80015c2:	bd70      	pop	{r4, r5, r6, pc}
    if(I2C_IsAcknowledgeFailed(hi2c) != HAL_OK)
 80015c4:	4620      	mov	r0, r4
 80015c6:	f7ff ff70 	bl	80014aa <I2C_IsAcknowledgeFailed>
 80015ca:	b9a8      	cbnz	r0, 80015f8 <I2C_WaitOnTXEFlagUntilTimeout+0x48>
    if(Timeout != HAL_MAX_DELAY)
 80015cc:	1c6a      	adds	r2, r5, #1
 80015ce:	d0f3      	beq.n	80015b8 <I2C_WaitOnTXEFlagUntilTimeout+0x8>
      if((Timeout == 0U) || ((HAL_GetTick()-Tickstart) > Timeout))
 80015d0:	b965      	cbnz	r5, 80015ec <I2C_WaitOnTXEFlagUntilTimeout+0x3c>
        hi2c->ErrorCode |= HAL_I2C_ERROR_TIMEOUT;
 80015d2:	6c23      	ldr	r3, [r4, #64]	; 0x40
        hi2c->State= HAL_I2C_STATE_READY;
 80015d4:	2220      	movs	r2, #32
        hi2c->ErrorCode |= HAL_I2C_ERROR_TIMEOUT;
 80015d6:	f043 0320 	orr.w	r3, r3, #32
 80015da:	6423      	str	r3, [r4, #64]	; 0x40
        hi2c->PreviousState = I2C_STATE_NONE;
 80015dc:	2300      	movs	r3, #0
        __HAL_UNLOCK(hi2c);
 80015de:	2003      	movs	r0, #3
        hi2c->PreviousState = I2C_STATE_NONE;
 80015e0:	6323      	str	r3, [r4, #48]	; 0x30
        __HAL_UNLOCK(hi2c);
 80015e2:	f884 303c 	strb.w	r3, [r4, #60]	; 0x3c
        hi2c->State= HAL_I2C_STATE_READY;
 80015e6:	f884 203d 	strb.w	r2, [r4, #61]	; 0x3d
 80015ea:	bd70      	pop	{r4, r5, r6, pc}
      if((Timeout == 0U) || ((HAL_GetTick()-Tickstart) > Timeout))
 80015ec:	f7ff fdfc 	bl	80011e8 <HAL_GetTick>
 80015f0:	1b80      	subs	r0, r0, r6
 80015f2:	4285      	cmp	r5, r0
 80015f4:	d2e0      	bcs.n	80015b8 <I2C_WaitOnTXEFlagUntilTimeout+0x8>
 80015f6:	e7ec      	b.n	80015d2 <I2C_WaitOnTXEFlagUntilTimeout+0x22>
      return HAL_ERROR;
 80015f8:	2001      	movs	r0, #1
}
 80015fa:	bd70      	pop	{r4, r5, r6, pc}

080015fc <I2C_WaitOnRXNEFlagUntilTimeout>:
{  
 80015fc:	b570      	push	{r4, r5, r6, lr}
 80015fe:	4604      	mov	r4, r0
 8001600:	460d      	mov	r5, r1
 8001602:	4616      	mov	r6, r2
  while(__HAL_I2C_GET_FLAG(hi2c, I2C_FLAG_RXNE) == RESET)
 8001604:	6820      	ldr	r0, [r4, #0]
 8001606:	6943      	ldr	r3, [r0, #20]
 8001608:	f013 0340 	ands.w	r3, r3, #64	; 0x40
 800160c:	d001      	beq.n	8001612 <I2C_WaitOnRXNEFlagUntilTimeout+0x16>
  return HAL_OK;
 800160e:	2000      	movs	r0, #0
}
 8001610:	bd70      	pop	{r4, r5, r6, pc}
    if(__HAL_I2C_GET_FLAG(hi2c, I2C_FLAG_STOPF) == SET)
 8001612:	6942      	ldr	r2, [r0, #20]
 8001614:	06d2      	lsls	r2, r2, #27
 8001616:	d50b      	bpl.n	8001630 <I2C_WaitOnRXNEFlagUntilTimeout+0x34>
      __HAL_I2C_CLEAR_FLAG(hi2c, I2C_FLAG_STOPF);
 8001618:	f06f 0210 	mvn.w	r2, #16
 800161c:	6142      	str	r2, [r0, #20]
      hi2c->State= HAL_I2C_STATE_READY;
 800161e:	2220      	movs	r2, #32
      hi2c->ErrorCode = HAL_I2C_ERROR_NONE;
 8001620:	6423      	str	r3, [r4, #64]	; 0x40
      __HAL_UNLOCK(hi2c);
 8001622:	f884 303c 	strb.w	r3, [r4, #60]	; 0x3c
      hi2c->PreviousState = I2C_STATE_NONE;
 8001626:	6323      	str	r3, [r4, #48]	; 0x30
      return HAL_ERROR;
 8001628:	2001      	movs	r0, #1
      hi2c->State= HAL_I2C_STATE_READY;
 800162a:	f884 203d 	strb.w	r2, [r4, #61]	; 0x3d
      return HAL_ERROR;
 800162e:	bd70      	pop	{r4, r5, r6, pc}
    if((Timeout == 0U) || ((HAL_GetTick()-Tickstart) > Timeout))
 8001630:	b95d      	cbnz	r5, 800164a <I2C_WaitOnRXNEFlagUntilTimeout+0x4e>
      hi2c->ErrorCode |= HAL_I2C_ERROR_TIMEOUT;
 8001632:	6c23      	ldr	r3, [r4, #64]	; 0x40
      __HAL_UNLOCK(hi2c);
 8001634:	2003      	movs	r0, #3
      hi2c->ErrorCode |= HAL_I2C_ERROR_TIMEOUT;
 8001636:	f043 0320 	orr.w	r3, r3, #32
 800163a:	6423      	str	r3, [r4, #64]	; 0x40
      hi2c->State= HAL_I2C_STATE_READY;
 800163c:	2320      	movs	r3, #32
 800163e:	f884 303d 	strb.w	r3, [r4, #61]	; 0x3d
      __HAL_UNLOCK(hi2c);
 8001642:	2300      	movs	r3, #0
 8001644:	f884 303c 	strb.w	r3, [r4, #60]	; 0x3c
 8001648:	bd70      	pop	{r4, r5, r6, pc}
    if((Timeout == 0U) || ((HAL_GetTick()-Tickstart) > Timeout))
 800164a:	f7ff fdcd 	bl	80011e8 <HAL_GetTick>
 800164e:	1b80      	subs	r0, r0, r6
 8001650:	4285      	cmp	r5, r0
 8001652:	d2d7      	bcs.n	8001604 <I2C_WaitOnRXNEFlagUntilTimeout+0x8>
 8001654:	e7ed      	b.n	8001632 <I2C_WaitOnRXNEFlagUntilTimeout+0x36>

08001656 <I2C_WaitOnBTFFlagUntilTimeout>:
{  
 8001656:	b570      	push	{r4, r5, r6, lr}
 8001658:	4604      	mov	r4, r0
 800165a:	460d      	mov	r5, r1
 800165c:	4616      	mov	r6, r2
  while(__HAL_I2C_GET_FLAG(hi2c, I2C_FLAG_BTF) == RESET)
 800165e:	6823      	ldr	r3, [r4, #0]
 8001660:	695b      	ldr	r3, [r3, #20]
 8001662:	075b      	lsls	r3, r3, #29
 8001664:	d501      	bpl.n	800166a <I2C_WaitOnBTFFlagUntilTimeout+0x14>
  return HAL_OK;
 8001666:	2000      	movs	r0, #0
 8001668:	bd70      	pop	{r4, r5, r6, pc}
    if(I2C_IsAcknowledgeFailed(hi2c) != HAL_OK)
 800166a:	4620      	mov	r0, r4
 800166c:	f7ff ff1d 	bl	80014aa <I2C_IsAcknowledgeFailed>
 8001670:	b9a8      	cbnz	r0, 800169e <I2C_WaitOnBTFFlagUntilTimeout+0x48>
    if(Timeout != HAL_MAX_DELAY)
 8001672:	1c6a      	adds	r2, r5, #1
 8001674:	d0f3      	beq.n	800165e <I2C_WaitOnBTFFlagUntilTimeout+0x8>
      if((Timeout == 0U) || ((HAL_GetTick()-Tickstart) > Timeout))
 8001676:	b965      	cbnz	r5, 8001692 <I2C_WaitOnBTFFlagUntilTimeout+0x3c>
        hi2c->ErrorCode |= HAL_I2C_ERROR_TIMEOUT;
 8001678:	6c23      	ldr	r3, [r4, #64]	; 0x40
        hi2c->State= HAL_I2C_STATE_READY;
 800167a:	2220      	movs	r2, #32
        hi2c->ErrorCode |= HAL_I2C_ERROR_TIMEOUT;
 800167c:	f043 0320 	orr.w	r3, r3, #32
 8001680:	6423      	str	r3, [r4, #64]	; 0x40
        hi2c->PreviousState = I2C_STATE_NONE;
 8001682:	2300      	movs	r3, #0
        __HAL_UNLOCK(hi2c);
 8001684:	2003      	movs	r0, #3
        hi2c->PreviousState = I2C_STATE_NONE;
 8001686:	6323      	str	r3, [r4, #48]	; 0x30
        __HAL_UNLOCK(hi2c);
 8001688:	f884 303c 	strb.w	r3, [r4, #60]	; 0x3c
        hi2c->State= HAL_I2C_STATE_READY;
 800168c:	f884 203d 	strb.w	r2, [r4, #61]	; 0x3d
 8001690:	bd70      	pop	{r4, r5, r6, pc}
      if((Timeout == 0U) || ((HAL_GetTick()-Tickstart) > Timeout))
 8001692:	f7ff fda9 	bl	80011e8 <HAL_GetTick>
 8001696:	1b80      	subs	r0, r0, r6
 8001698:	4285      	cmp	r5, r0
 800169a:	d2e0      	bcs.n	800165e <I2C_WaitOnBTFFlagUntilTimeout+0x8>
 800169c:	e7ec      	b.n	8001678 <I2C_WaitOnBTFFlagUntilTimeout+0x22>
      return HAL_ERROR;
 800169e:	2001      	movs	r0, #1
}
 80016a0:	bd70      	pop	{r4, r5, r6, pc}
	...

080016a4 <HAL_I2C_Init>:
{
 80016a4:	b570      	push	{r4, r5, r6, lr}
  if(hi2c == NULL)
 80016a6:	4604      	mov	r4, r0
 80016a8:	b908      	cbnz	r0, 80016ae <HAL_I2C_Init+0xa>
    return HAL_ERROR;
 80016aa:	2001      	movs	r0, #1
 80016ac:	bd70      	pop	{r4, r5, r6, pc}
  if(hi2c->State == HAL_I2C_STATE_RESET)
 80016ae:	f890 303d 	ldrb.w	r3, [r0, #61]	; 0x3d
 80016b2:	f003 02ff 	and.w	r2, r3, #255	; 0xff
 80016b6:	b91b      	cbnz	r3, 80016c0 <HAL_I2C_Init+0x1c>
    hi2c->Lock = HAL_UNLOCKED;
 80016b8:	f880 203c 	strb.w	r2, [r0, #60]	; 0x3c
    HAL_I2C_MspInit(hi2c);
 80016bc:	f002 ffec 	bl	8004698 <HAL_I2C_MspInit>
  pclk1 = HAL_RCC_GetPCLK1Freq();
 80016c0:	f000 ff8a 	bl	80025d8 <HAL_RCC_GetPCLK1Freq>
  if(pclk1 < I2C_MIN_PCLK_FREQ)
 80016c4:	4b3b      	ldr	r3, [pc, #236]	; (80017b4 <HAL_I2C_Init+0x110>)
 80016c6:	4298      	cmp	r0, r3
 80016c8:	d9ef      	bls.n	80016aa <HAL_I2C_Init+0x6>
  hi2c->State = HAL_I2C_STATE_BUSY;
 80016ca:	2324      	movs	r3, #36	; 0x24
  freqrange = I2C_FREQ_RANGE(pclk1);
 80016cc:	4d3a      	ldr	r5, [pc, #232]	; (80017b8 <HAL_I2C_Init+0x114>)
  hi2c->State = HAL_I2C_STATE_BUSY;
 80016ce:	f884 303d 	strb.w	r3, [r4, #61]	; 0x3d
  freqrange = I2C_FREQ_RANGE(pclk1);
 80016d2:	fbb0 f5f5 	udiv	r5, r0, r5
  __HAL_I2C_DISABLE(hi2c);
 80016d6:	6823      	ldr	r3, [r4, #0]
  MODIFY_REG(hi2c->Instance->TRISE, I2C_TRISE_TRISE, I2C_RISE_TIME(freqrange, hi2c->Init.ClockSpeed));
 80016d8:	4938      	ldr	r1, [pc, #224]	; (80017bc <HAL_I2C_Init+0x118>)
  __HAL_I2C_DISABLE(hi2c);
 80016da:	681a      	ldr	r2, [r3, #0]
 80016dc:	f022 0201 	bic.w	r2, r2, #1
 80016e0:	601a      	str	r2, [r3, #0]
  MODIFY_REG(hi2c->Instance->CR2, I2C_CR2_FREQ, freqrange);
 80016e2:	685a      	ldr	r2, [r3, #4]
 80016e4:	f022 023f 	bic.w	r2, r2, #63	; 0x3f
 80016e8:	432a      	orrs	r2, r5
 80016ea:	605a      	str	r2, [r3, #4]
  MODIFY_REG(hi2c->Instance->TRISE, I2C_TRISE_TRISE, I2C_RISE_TIME(freqrange, hi2c->Init.ClockSpeed));
 80016ec:	6862      	ldr	r2, [r4, #4]
 80016ee:	6a1e      	ldr	r6, [r3, #32]
 80016f0:	428a      	cmp	r2, r1
 80016f2:	bf81      	itttt	hi
 80016f4:	f44f 7196 	movhi.w	r1, #300	; 0x12c
 80016f8:	4369      	mulhi	r1, r5
 80016fa:	f44f 757a 	movhi.w	r5, #1000	; 0x3e8
 80016fe:	fbb1 f1f5 	udivhi	r1, r1, r5
 8001702:	bf94      	ite	ls
 8001704:	1c69      	addls	r1, r5, #1
 8001706:	3101      	addhi	r1, #1
 8001708:	f026 063f 	bic.w	r6, r6, #63	; 0x3f
 800170c:	4331      	orrs	r1, r6
 800170e:	6219      	str	r1, [r3, #32]
  MODIFY_REG(hi2c->Instance->CCR, (I2C_CCR_FS | I2C_CCR_DUTY | I2C_CCR_CCR), I2C_SPEED(pclk1, hi2c->Init.ClockSpeed, hi2c->Init.DutyCycle));
 8001710:	69dd      	ldr	r5, [r3, #28]
 8001712:	492a      	ldr	r1, [pc, #168]	; (80017bc <HAL_I2C_Init+0x118>)
 8001714:	f425 454f 	bic.w	r5, r5, #52992	; 0xcf00
 8001718:	428a      	cmp	r2, r1
 800171a:	f025 05ff 	bic.w	r5, r5, #255	; 0xff
 800171e:	d830      	bhi.n	8001782 <HAL_I2C_Init+0xde>
 8001720:	0052      	lsls	r2, r2, #1
 8001722:	fbb0 f0f2 	udiv	r0, r0, r2
 8001726:	f3c0 020b 	ubfx	r2, r0, #0, #12
 800172a:	2a03      	cmp	r2, #3
 800172c:	bf98      	it	ls
 800172e:	2004      	movls	r0, #4
 8001730:	4328      	orrs	r0, r5
 8001732:	61d8      	str	r0, [r3, #28]
  MODIFY_REG(hi2c->Instance->CR1, (I2C_CR1_ENGC | I2C_CR1_NOSTRETCH), (hi2c->Init.GeneralCallMode | hi2c->Init.NoStretchMode));
 8001734:	6819      	ldr	r1, [r3, #0]
 8001736:	6a20      	ldr	r0, [r4, #32]
 8001738:	69e2      	ldr	r2, [r4, #28]
 800173a:	f021 01c0 	bic.w	r1, r1, #192	; 0xc0
 800173e:	4302      	orrs	r2, r0
 8001740:	430a      	orrs	r2, r1
 8001742:	601a      	str	r2, [r3, #0]
  MODIFY_REG(hi2c->Instance->OAR1, (I2C_OAR1_ADDMODE | I2C_OAR1_ADD8_9 | I2C_OAR1_ADD1_7 | I2C_OAR1_ADD0), (hi2c->Init.AddressingMode | hi2c->Init.OwnAddress1));
 8001744:	6899      	ldr	r1, [r3, #8]
 8001746:	68e0      	ldr	r0, [r4, #12]
 8001748:	6922      	ldr	r2, [r4, #16]
 800174a:	f421 4103 	bic.w	r1, r1, #33536	; 0x8300
 800174e:	4302      	orrs	r2, r0
 8001750:	f021 01ff 	bic.w	r1, r1, #255	; 0xff
 8001754:	430a      	orrs	r2, r1
 8001756:	609a      	str	r2, [r3, #8]
  MODIFY_REG(hi2c->Instance->OAR2, (I2C_OAR2_ENDUAL | I2C_OAR2_ADD2), (hi2c->Init.DualAddressMode | hi2c->Init.OwnAddress2));
 8001758:	68d9      	ldr	r1, [r3, #12]
 800175a:	69a0      	ldr	r0, [r4, #24]
 800175c:	6962      	ldr	r2, [r4, #20]
 800175e:	f021 01ff 	bic.w	r1, r1, #255	; 0xff
 8001762:	4302      	orrs	r2, r0
 8001764:	430a      	orrs	r2, r1
 8001766:	60da      	str	r2, [r3, #12]
  __HAL_I2C_ENABLE(hi2c);
 8001768:	681a      	ldr	r2, [r3, #0]
  hi2c->ErrorCode = HAL_I2C_ERROR_NONE;
 800176a:	2000      	movs	r0, #0
  __HAL_I2C_ENABLE(hi2c);
 800176c:	f042 0201 	orr.w	r2, r2, #1
 8001770:	601a      	str	r2, [r3, #0]
  hi2c->State = HAL_I2C_STATE_READY;
 8001772:	2320      	movs	r3, #32
  hi2c->ErrorCode = HAL_I2C_ERROR_NONE;
 8001774:	6420      	str	r0, [r4, #64]	; 0x40
  hi2c->State = HAL_I2C_STATE_READY;
 8001776:	f884 303d 	strb.w	r3, [r4, #61]	; 0x3d
  hi2c->PreviousState = I2C_STATE_NONE;
 800177a:	6320      	str	r0, [r4, #48]	; 0x30
  hi2c->Mode = HAL_I2C_MODE_NONE;
 800177c:	f884 003e 	strb.w	r0, [r4, #62]	; 0x3e
}
 8001780:	bd70      	pop	{r4, r5, r6, pc}
  MODIFY_REG(hi2c->Instance->CCR, (I2C_CCR_FS | I2C_CCR_DUTY | I2C_CCR_CCR), I2C_SPEED(pclk1, hi2c->Init.ClockSpeed, hi2c->Init.DutyCycle));
 8001782:	68a1      	ldr	r1, [r4, #8]
 8001784:	b949      	cbnz	r1, 800179a <HAL_I2C_Init+0xf6>
 8001786:	eb02 0242 	add.w	r2, r2, r2, lsl #1
 800178a:	fbb0 f0f2 	udiv	r0, r0, r2
 800178e:	f3c0 020b 	ubfx	r2, r0, #0, #12
 8001792:	b162      	cbz	r2, 80017ae <HAL_I2C_Init+0x10a>
 8001794:	f440 4000 	orr.w	r0, r0, #32768	; 0x8000
 8001798:	e7ca      	b.n	8001730 <HAL_I2C_Init+0x8c>
 800179a:	2119      	movs	r1, #25
 800179c:	434a      	muls	r2, r1
 800179e:	fbb0 f0f2 	udiv	r0, r0, r2
 80017a2:	f3c0 020b 	ubfx	r2, r0, #0, #12
 80017a6:	b112      	cbz	r2, 80017ae <HAL_I2C_Init+0x10a>
 80017a8:	f440 4040 	orr.w	r0, r0, #49152	; 0xc000
 80017ac:	e7c0      	b.n	8001730 <HAL_I2C_Init+0x8c>
 80017ae:	2001      	movs	r0, #1
 80017b0:	e7be      	b.n	8001730 <HAL_I2C_Init+0x8c>
 80017b2:	bf00      	nop
 80017b4:	001e847f 	.word	0x001e847f
 80017b8:	000f4240 	.word	0x000f4240
 80017bc:	000186a0 	.word	0x000186a0

080017c0 <HAL_I2C_Master_Transmit>:
{
 80017c0:	e92d 41ff 	stmdb	sp!, {r0, r1, r2, r3, r4, r5, r6, r7, r8, lr}
 80017c4:	4604      	mov	r4, r0
 80017c6:	461f      	mov	r7, r3
 80017c8:	460d      	mov	r5, r1
 80017ca:	4690      	mov	r8, r2
  tickstart = HAL_GetTick();
 80017cc:	f7ff fd0c 	bl	80011e8 <HAL_GetTick>
  if(hi2c->State == HAL_I2C_STATE_READY)
 80017d0:	f894 303d 	ldrb.w	r3, [r4, #61]	; 0x3d
  tickstart = HAL_GetTick();
 80017d4:	4606      	mov	r6, r0
  if(hi2c->State == HAL_I2C_STATE_READY)
 80017d6:	2b20      	cmp	r3, #32
 80017d8:	d004      	beq.n	80017e4 <HAL_I2C_Master_Transmit+0x24>
    return HAL_BUSY; 
 80017da:	2502      	movs	r5, #2
}
 80017dc:	4628      	mov	r0, r5
 80017de:	b004      	add	sp, #16
 80017e0:	e8bd 81f0 	ldmia.w	sp!, {r4, r5, r6, r7, r8, pc}
    if(I2C_WaitOnFlagUntilTimeout(hi2c, I2C_FLAG_BUSY, SET, I2C_TIMEOUT_BUSY_FLAG, tickstart) != HAL_OK)
 80017e4:	9000      	str	r0, [sp, #0]
 80017e6:	2319      	movs	r3, #25
 80017e8:	2201      	movs	r2, #1
 80017ea:	f04f 1102 	mov.w	r1, #131074	; 0x20002
 80017ee:	4620      	mov	r0, r4
 80017f0:	f7ff feb0 	bl	8001554 <I2C_WaitOnFlagUntilTimeout>
 80017f4:	2800      	cmp	r0, #0
 80017f6:	d1f0      	bne.n	80017da <HAL_I2C_Master_Transmit+0x1a>
    __HAL_LOCK(hi2c);
 80017f8:	f894 303c 	ldrb.w	r3, [r4, #60]	; 0x3c
 80017fc:	2b01      	cmp	r3, #1
 80017fe:	d0ec      	beq.n	80017da <HAL_I2C_Master_Transmit+0x1a>
 8001800:	2301      	movs	r3, #1
 8001802:	f884 303c 	strb.w	r3, [r4, #60]	; 0x3c
    if((hi2c->Instance->CR1 & I2C_CR1_PE) != I2C_CR1_PE)
 8001806:	6823      	ldr	r3, [r4, #0]
 8001808:	681a      	ldr	r2, [r3, #0]
 800180a:	07d2      	lsls	r2, r2, #31
      __HAL_I2C_ENABLE(hi2c);
 800180c:	bf5e      	ittt	pl
 800180e:	681a      	ldrpl	r2, [r3, #0]
 8001810:	f042 0201 	orrpl.w	r2, r2, #1
 8001814:	601a      	strpl	r2, [r3, #0]
    CLEAR_BIT(hi2c->Instance->CR1, I2C_CR1_POS);
 8001816:	681a      	ldr	r2, [r3, #0]
 8001818:	f422 6200 	bic.w	r2, r2, #2048	; 0x800
 800181c:	601a      	str	r2, [r3, #0]
    hi2c->State       = HAL_I2C_STATE_BUSY_TX;
 800181e:	2221      	movs	r2, #33	; 0x21
 8001820:	f884 203d 	strb.w	r2, [r4, #61]	; 0x3d
    hi2c->Mode        = HAL_I2C_MODE_MASTER;
 8001824:	2210      	movs	r2, #16
 8001826:	f884 203e 	strb.w	r2, [r4, #62]	; 0x3e
    hi2c->ErrorCode   = HAL_I2C_ERROR_NONE;
 800182a:	2200      	movs	r2, #0
 800182c:	6422      	str	r2, [r4, #64]	; 0x40
    hi2c->XferOptions = I2C_NO_OPTION_FRAME;
 800182e:	f5a2 3280 	sub.w	r2, r2, #65536	; 0x10000
    hi2c->XferCount   = Size;
 8001832:	8567      	strh	r7, [r4, #42]	; 0x2a
    hi2c->XferOptions = I2C_NO_OPTION_FRAME;
 8001834:	62e2      	str	r2, [r4, #44]	; 0x2c
    hi2c->XferSize    = hi2c->XferCount;
 8001836:	8d62      	ldrh	r2, [r4, #42]	; 0x2a
    hi2c->pBuffPtr    = pData;
 8001838:	f8c4 8024 	str.w	r8, [r4, #36]	; 0x24
    hi2c->XferSize    = hi2c->XferCount;
 800183c:	8522      	strh	r2, [r4, #40]	; 0x28
  if((hi2c->XferOptions == I2C_FIRST_AND_LAST_FRAME) || (hi2c->XferOptions == I2C_FIRST_FRAME) || (hi2c->XferOptions == I2C_NO_OPTION_FRAME))
 800183e:	6ae2      	ldr	r2, [r4, #44]	; 0x2c
 8001840:	2a04      	cmp	r2, #4
 8001842:	d006      	beq.n	8001852 <HAL_I2C_Master_Transmit+0x92>
 8001844:	6ae2      	ldr	r2, [r4, #44]	; 0x2c
 8001846:	2a01      	cmp	r2, #1
 8001848:	d003      	beq.n	8001852 <HAL_I2C_Master_Transmit+0x92>
 800184a:	6ae2      	ldr	r2, [r4, #44]	; 0x2c
 800184c:	f512 3f80 	cmn.w	r2, #65536	; 0x10000
 8001850:	d104      	bne.n	800185c <HAL_I2C_Master_Transmit+0x9c>
    SET_BIT(hi2c->Instance->CR1, I2C_CR1_START);
 8001852:	681a      	ldr	r2, [r3, #0]
 8001854:	f442 7280 	orr.w	r2, r2, #256	; 0x100
 8001858:	601a      	str	r2, [r3, #0]
 800185a:	e002      	b.n	8001862 <HAL_I2C_Master_Transmit+0xa2>
  else if(hi2c->PreviousState == I2C_STATE_MASTER_BUSY_RX)
 800185c:	6b22      	ldr	r2, [r4, #48]	; 0x30
 800185e:	2a12      	cmp	r2, #18
 8001860:	d0f7      	beq.n	8001852 <HAL_I2C_Master_Transmit+0x92>
  if(I2C_WaitOnFlagUntilTimeout(hi2c, I2C_FLAG_SB, RESET, Timeout, Tickstart) != HAL_OK)
 8001862:	9600      	str	r6, [sp, #0]
 8001864:	9b0a      	ldr	r3, [sp, #40]	; 0x28
 8001866:	2200      	movs	r2, #0
 8001868:	f04f 1101 	mov.w	r1, #65537	; 0x10001
 800186c:	4620      	mov	r0, r4
 800186e:	f7ff fe71 	bl	8001554 <I2C_WaitOnFlagUntilTimeout>
 8001872:	bb28      	cbnz	r0, 80018c0 <HAL_I2C_Master_Transmit+0x100>
  if(hi2c->Init.AddressingMode == I2C_ADDRESSINGMODE_7BIT)
 8001874:	6923      	ldr	r3, [r4, #16]
 8001876:	6822      	ldr	r2, [r4, #0]
 8001878:	f5b3 4f80 	cmp.w	r3, #16384	; 0x4000
 800187c:	d112      	bne.n	80018a4 <HAL_I2C_Master_Transmit+0xe4>
    hi2c->Instance->DR = I2C_7BIT_ADD_WRITE(DevAddress);
 800187e:	f005 05fe 	and.w	r5, r5, #254	; 0xfe
 8001882:	6115      	str	r5, [r2, #16]
  if(I2C_WaitOnMasterAddressFlagUntilTimeout(hi2c, I2C_FLAG_ADDR, Timeout, Tickstart) != HAL_OK)
 8001884:	4633      	mov	r3, r6
 8001886:	9a0a      	ldr	r2, [sp, #40]	; 0x28
 8001888:	4936      	ldr	r1, [pc, #216]	; (8001964 <HAL_I2C_Master_Transmit+0x1a4>)
 800188a:	4620      	mov	r0, r4
 800188c:	f7ff fe22 	bl	80014d4 <I2C_WaitOnMasterAddressFlagUntilTimeout>
 8001890:	4605      	mov	r5, r0
 8001892:	b9a0      	cbnz	r0, 80018be <HAL_I2C_Master_Transmit+0xfe>
    __HAL_I2C_CLEAR_ADDRFLAG(hi2c);
 8001894:	6823      	ldr	r3, [r4, #0]
 8001896:	9003      	str	r0, [sp, #12]
 8001898:	695a      	ldr	r2, [r3, #20]
 800189a:	9203      	str	r2, [sp, #12]
 800189c:	699b      	ldr	r3, [r3, #24]
 800189e:	9303      	str	r3, [sp, #12]
 80018a0:	9b03      	ldr	r3, [sp, #12]
    while(hi2c->XferSize > 0U)
 80018a2:	e04f      	b.n	8001944 <HAL_I2C_Master_Transmit+0x184>
    hi2c->Instance->DR = I2C_10BIT_HEADER_WRITE(DevAddress);
 80018a4:	11eb      	asrs	r3, r5, #7
 80018a6:	f003 0306 	and.w	r3, r3, #6
 80018aa:	f043 03f0 	orr.w	r3, r3, #240	; 0xf0
 80018ae:	6113      	str	r3, [r2, #16]
    if(I2C_WaitOnMasterAddressFlagUntilTimeout(hi2c, I2C_FLAG_ADD10, Timeout, Tickstart) != HAL_OK)
 80018b0:	492d      	ldr	r1, [pc, #180]	; (8001968 <HAL_I2C_Master_Transmit+0x1a8>)
 80018b2:	4633      	mov	r3, r6
 80018b4:	9a0a      	ldr	r2, [sp, #40]	; 0x28
 80018b6:	4620      	mov	r0, r4
 80018b8:	f7ff fe0c 	bl	80014d4 <I2C_WaitOnMasterAddressFlagUntilTimeout>
 80018bc:	b148      	cbz	r0, 80018d2 <HAL_I2C_Master_Transmit+0x112>
    if(hi2c->ErrorCode == HAL_I2C_ERROR_AF)
 80018be:	6c23      	ldr	r3, [r4, #64]	; 0x40
      if(hi2c->ErrorCode == HAL_I2C_ERROR_AF)
 80018c0:	6c23      	ldr	r3, [r4, #64]	; 0x40
 80018c2:	2b04      	cmp	r3, #4
 80018c4:	f04f 0300 	mov.w	r3, #0
 80018c8:	d107      	bne.n	80018da <HAL_I2C_Master_Transmit+0x11a>
        __HAL_UNLOCK(hi2c);
 80018ca:	f884 303c 	strb.w	r3, [r4, #60]	; 0x3c
          return HAL_ERROR;
 80018ce:	2501      	movs	r5, #1
 80018d0:	e784      	b.n	80017dc <HAL_I2C_Master_Transmit+0x1c>
    hi2c->Instance->DR = I2C_10BIT_ADDRESS(DevAddress);
 80018d2:	6823      	ldr	r3, [r4, #0]
 80018d4:	b2ed      	uxtb	r5, r5
 80018d6:	611d      	str	r5, [r3, #16]
 80018d8:	e7d4      	b.n	8001884 <HAL_I2C_Master_Transmit+0xc4>
        __HAL_UNLOCK(hi2c);
 80018da:	f884 303c 	strb.w	r3, [r4, #60]	; 0x3c
          return HAL_TIMEOUT;
 80018de:	2503      	movs	r5, #3
 80018e0:	e77c      	b.n	80017dc <HAL_I2C_Master_Transmit+0x1c>
      if(I2C_WaitOnTXEFlagUntilTimeout(hi2c, Timeout, tickstart) != HAL_OK)
 80018e2:	4632      	mov	r2, r6
 80018e4:	990a      	ldr	r1, [sp, #40]	; 0x28
 80018e6:	4620      	mov	r0, r4
 80018e8:	f7ff fe62 	bl	80015b0 <I2C_WaitOnTXEFlagUntilTimeout>
 80018ec:	b140      	cbz	r0, 8001900 <HAL_I2C_Master_Transmit+0x140>
        if(hi2c->ErrorCode == HAL_I2C_ERROR_AF)
 80018ee:	6c23      	ldr	r3, [r4, #64]	; 0x40
 80018f0:	2b04      	cmp	r3, #4
 80018f2:	d1f4      	bne.n	80018de <HAL_I2C_Master_Transmit+0x11e>
          SET_BIT(hi2c->Instance->CR1, I2C_CR1_STOP);
 80018f4:	6822      	ldr	r2, [r4, #0]
 80018f6:	6813      	ldr	r3, [r2, #0]
 80018f8:	f443 7300 	orr.w	r3, r3, #512	; 0x200
 80018fc:	6013      	str	r3, [r2, #0]
 80018fe:	e7e6      	b.n	80018ce <HAL_I2C_Master_Transmit+0x10e>
      hi2c->Instance->DR = (*hi2c->pBuffPtr++);
 8001900:	6a61      	ldr	r1, [r4, #36]	; 0x24
 8001902:	6820      	ldr	r0, [r4, #0]
 8001904:	1c4b      	adds	r3, r1, #1
 8001906:	6263      	str	r3, [r4, #36]	; 0x24
 8001908:	780b      	ldrb	r3, [r1, #0]
      hi2c->XferSize--;
 800190a:	8d22      	ldrh	r2, [r4, #40]	; 0x28
      hi2c->Instance->DR = (*hi2c->pBuffPtr++);
 800190c:	6103      	str	r3, [r0, #16]
      hi2c->XferCount--;
 800190e:	8d63      	ldrh	r3, [r4, #42]	; 0x2a
 8001910:	3b01      	subs	r3, #1
 8001912:	b29b      	uxth	r3, r3
 8001914:	8563      	strh	r3, [r4, #42]	; 0x2a
      hi2c->XferSize--;
 8001916:	1e53      	subs	r3, r2, #1
 8001918:	8523      	strh	r3, [r4, #40]	; 0x28
      if((__HAL_I2C_GET_FLAG(hi2c, I2C_FLAG_BTF) == SET) && (Size != 0U))
 800191a:	6943      	ldr	r3, [r0, #20]
 800191c:	075b      	lsls	r3, r3, #29
 800191e:	d50a      	bpl.n	8001936 <HAL_I2C_Master_Transmit+0x176>
 8001920:	b14f      	cbz	r7, 8001936 <HAL_I2C_Master_Transmit+0x176>
        hi2c->Instance->DR = (*hi2c->pBuffPtr++);
 8001922:	1c8b      	adds	r3, r1, #2
 8001924:	6263      	str	r3, [r4, #36]	; 0x24
 8001926:	784b      	ldrb	r3, [r1, #1]
        hi2c->XferSize--;
 8001928:	3a02      	subs	r2, #2
        hi2c->Instance->DR = (*hi2c->pBuffPtr++);
 800192a:	6103      	str	r3, [r0, #16]
        hi2c->XferCount--;
 800192c:	8d63      	ldrh	r3, [r4, #42]	; 0x2a
        hi2c->XferSize--;
 800192e:	8522      	strh	r2, [r4, #40]	; 0x28
        hi2c->XferCount--;
 8001930:	3b01      	subs	r3, #1
 8001932:	b29b      	uxth	r3, r3
 8001934:	8563      	strh	r3, [r4, #42]	; 0x2a
      if(I2C_WaitOnBTFFlagUntilTimeout(hi2c, Timeout, tickstart) != HAL_OK)
 8001936:	4632      	mov	r2, r6
 8001938:	990a      	ldr	r1, [sp, #40]	; 0x28
 800193a:	4620      	mov	r0, r4
 800193c:	f7ff fe8b 	bl	8001656 <I2C_WaitOnBTFFlagUntilTimeout>
 8001940:	2800      	cmp	r0, #0
 8001942:	d1d4      	bne.n	80018ee <HAL_I2C_Master_Transmit+0x12e>
    while(hi2c->XferSize > 0U)
 8001944:	8d23      	ldrh	r3, [r4, #40]	; 0x28
 8001946:	2b00      	cmp	r3, #0
 8001948:	d1cb      	bne.n	80018e2 <HAL_I2C_Master_Transmit+0x122>
    SET_BIT(hi2c->Instance->CR1, I2C_CR1_STOP);
 800194a:	6821      	ldr	r1, [r4, #0]
 800194c:	680a      	ldr	r2, [r1, #0]
 800194e:	f442 7200 	orr.w	r2, r2, #512	; 0x200
 8001952:	600a      	str	r2, [r1, #0]
    hi2c->State = HAL_I2C_STATE_READY;
 8001954:	2220      	movs	r2, #32
    __HAL_UNLOCK(hi2c);
 8001956:	f884 303c 	strb.w	r3, [r4, #60]	; 0x3c
    hi2c->State = HAL_I2C_STATE_READY;
 800195a:	f884 203d 	strb.w	r2, [r4, #61]	; 0x3d
    hi2c->Mode = HAL_I2C_MODE_NONE;
 800195e:	f884 303e 	strb.w	r3, [r4, #62]	; 0x3e
    return HAL_OK;
 8001962:	e73b      	b.n	80017dc <HAL_I2C_Master_Transmit+0x1c>
 8001964:	00010002 	.word	0x00010002
 8001968:	00010008 	.word	0x00010008

0800196c <HAL_I2C_Master_Receive>:
{
 800196c:	e92d 43f0 	stmdb	sp!, {r4, r5, r6, r7, r8, r9, lr}
 8001970:	4604      	mov	r4, r0
 8001972:	b089      	sub	sp, #36	; 0x24
 8001974:	4698      	mov	r8, r3
 8001976:	460d      	mov	r5, r1
 8001978:	4691      	mov	r9, r2
 800197a:	9f10      	ldr	r7, [sp, #64]	; 0x40
  tickstart = HAL_GetTick();
 800197c:	f7ff fc34 	bl	80011e8 <HAL_GetTick>
  if(hi2c->State == HAL_I2C_STATE_READY)
 8001980:	f894 303d 	ldrb.w	r3, [r4, #61]	; 0x3d
  tickstart = HAL_GetTick();
 8001984:	4606      	mov	r6, r0
  if(hi2c->State == HAL_I2C_STATE_READY)
 8001986:	2b20      	cmp	r3, #32
 8001988:	d004      	beq.n	8001994 <HAL_I2C_Master_Receive+0x28>
    return HAL_BUSY; 
 800198a:	2502      	movs	r5, #2
}
 800198c:	4628      	mov	r0, r5
 800198e:	b009      	add	sp, #36	; 0x24
 8001990:	e8bd 83f0 	ldmia.w	sp!, {r4, r5, r6, r7, r8, r9, pc}
    if(I2C_WaitOnFlagUntilTimeout(hi2c, I2C_FLAG_BUSY, SET, I2C_TIMEOUT_BUSY_FLAG, tickstart) != HAL_OK)
 8001994:	9000      	str	r0, [sp, #0]
 8001996:	2319      	movs	r3, #25
 8001998:	2201      	movs	r2, #1
 800199a:	f04f 1102 	mov.w	r1, #131074	; 0x20002
 800199e:	4620      	mov	r0, r4
 80019a0:	f7ff fdd8 	bl	8001554 <I2C_WaitOnFlagUntilTimeout>
 80019a4:	2800      	cmp	r0, #0
 80019a6:	d1f0      	bne.n	800198a <HAL_I2C_Master_Receive+0x1e>
    __HAL_LOCK(hi2c);
 80019a8:	f894 303c 	ldrb.w	r3, [r4, #60]	; 0x3c
 80019ac:	2b01      	cmp	r3, #1
 80019ae:	d0ec      	beq.n	800198a <HAL_I2C_Master_Receive+0x1e>
 80019b0:	2301      	movs	r3, #1
 80019b2:	f884 303c 	strb.w	r3, [r4, #60]	; 0x3c
    if((hi2c->Instance->CR1 & I2C_CR1_PE) != I2C_CR1_PE)
 80019b6:	6823      	ldr	r3, [r4, #0]
 80019b8:	681a      	ldr	r2, [r3, #0]
 80019ba:	07d2      	lsls	r2, r2, #31
      __HAL_I2C_ENABLE(hi2c);
 80019bc:	bf5e      	ittt	pl
 80019be:	681a      	ldrpl	r2, [r3, #0]
 80019c0:	f042 0201 	orrpl.w	r2, r2, #1
 80019c4:	601a      	strpl	r2, [r3, #0]
    CLEAR_BIT(hi2c->Instance->CR1, I2C_CR1_POS);
 80019c6:	681a      	ldr	r2, [r3, #0]
 80019c8:	f422 6200 	bic.w	r2, r2, #2048	; 0x800
 80019cc:	601a      	str	r2, [r3, #0]
    hi2c->State       = HAL_I2C_STATE_BUSY_RX;
 80019ce:	2222      	movs	r2, #34	; 0x22
 80019d0:	f884 203d 	strb.w	r2, [r4, #61]	; 0x3d
    hi2c->Mode        = HAL_I2C_MODE_MASTER;
 80019d4:	2210      	movs	r2, #16
 80019d6:	f884 203e 	strb.w	r2, [r4, #62]	; 0x3e
    hi2c->ErrorCode   = HAL_I2C_ERROR_NONE;
 80019da:	2200      	movs	r2, #0
 80019dc:	6422      	str	r2, [r4, #64]	; 0x40
    hi2c->XferOptions = I2C_NO_OPTION_FRAME;
 80019de:	f5a2 3280 	sub.w	r2, r2, #65536	; 0x10000
    hi2c->XferCount   = Size;
 80019e2:	f8a4 802a 	strh.w	r8, [r4, #42]	; 0x2a
    hi2c->XferOptions = I2C_NO_OPTION_FRAME;
 80019e6:	62e2      	str	r2, [r4, #44]	; 0x2c
    hi2c->XferSize    = hi2c->XferCount;
 80019e8:	8d62      	ldrh	r2, [r4, #42]	; 0x2a
    hi2c->pBuffPtr    = pData;
 80019ea:	f8c4 9024 	str.w	r9, [r4, #36]	; 0x24
    hi2c->XferSize    = hi2c->XferCount;
 80019ee:	8522      	strh	r2, [r4, #40]	; 0x28
  SET_BIT(hi2c->Instance->CR1, I2C_CR1_ACK);
 80019f0:	681a      	ldr	r2, [r3, #0]
 80019f2:	f442 6280 	orr.w	r2, r2, #1024	; 0x400
 80019f6:	601a      	str	r2, [r3, #0]
  if((hi2c->XferOptions == I2C_FIRST_AND_LAST_FRAME) || (hi2c->XferOptions == I2C_FIRST_FRAME)  || (hi2c->XferOptions == I2C_NO_OPTION_FRAME))
 80019f8:	6ae2      	ldr	r2, [r4, #44]	; 0x2c
 80019fa:	2a04      	cmp	r2, #4
 80019fc:	d006      	beq.n	8001a0c <HAL_I2C_Master_Receive+0xa0>
 80019fe:	6ae2      	ldr	r2, [r4, #44]	; 0x2c
 8001a00:	2a01      	cmp	r2, #1
 8001a02:	d003      	beq.n	8001a0c <HAL_I2C_Master_Receive+0xa0>
 8001a04:	6ae2      	ldr	r2, [r4, #44]	; 0x2c
 8001a06:	f512 3f80 	cmn.w	r2, #65536	; 0x10000
 8001a0a:	d104      	bne.n	8001a16 <HAL_I2C_Master_Receive+0xaa>
    SET_BIT(hi2c->Instance->CR1, I2C_CR1_START);
 8001a0c:	681a      	ldr	r2, [r3, #0]
 8001a0e:	f442 7280 	orr.w	r2, r2, #256	; 0x100
 8001a12:	601a      	str	r2, [r3, #0]
 8001a14:	e002      	b.n	8001a1c <HAL_I2C_Master_Receive+0xb0>
  else if(hi2c->PreviousState == I2C_STATE_MASTER_BUSY_TX)
 8001a16:	6b22      	ldr	r2, [r4, #48]	; 0x30
 8001a18:	2a11      	cmp	r2, #17
 8001a1a:	d0f7      	beq.n	8001a0c <HAL_I2C_Master_Receive+0xa0>
  if(I2C_WaitOnFlagUntilTimeout(hi2c, I2C_FLAG_SB, RESET, Timeout, Tickstart) != HAL_OK)
 8001a1c:	9600      	str	r6, [sp, #0]
 8001a1e:	463b      	mov	r3, r7
 8001a20:	2200      	movs	r2, #0
 8001a22:	f04f 1101 	mov.w	r1, #65537	; 0x10001
 8001a26:	4620      	mov	r0, r4
 8001a28:	f7ff fd94 	bl	8001554 <I2C_WaitOnFlagUntilTimeout>
 8001a2c:	2800      	cmp	r0, #0
 8001a2e:	d14a      	bne.n	8001ac6 <HAL_I2C_Master_Receive+0x15a>
  if(hi2c->Init.AddressingMode == I2C_ADDRESSINGMODE_7BIT)
 8001a30:	6923      	ldr	r3, [r4, #16]
 8001a32:	f5b3 4f80 	cmp.w	r3, #16384	; 0x4000
 8001a36:	6823      	ldr	r3, [r4, #0]
 8001a38:	d136      	bne.n	8001aa8 <HAL_I2C_Master_Receive+0x13c>
    hi2c->Instance->DR = I2C_7BIT_ADD_READ(DevAddress);
 8001a3a:	f045 0501 	orr.w	r5, r5, #1
 8001a3e:	b2ed      	uxtb	r5, r5
 8001a40:	611d      	str	r5, [r3, #16]
  if(I2C_WaitOnMasterAddressFlagUntilTimeout(hi2c, I2C_FLAG_ADDR, Timeout, Tickstart) != HAL_OK)
 8001a42:	4633      	mov	r3, r6
 8001a44:	463a      	mov	r2, r7
 8001a46:	4982      	ldr	r1, [pc, #520]	; (8001c50 <HAL_I2C_Master_Receive+0x2e4>)
 8001a48:	4620      	mov	r0, r4
 8001a4a:	f7ff fd43 	bl	80014d4 <I2C_WaitOnMasterAddressFlagUntilTimeout>
 8001a4e:	4605      	mov	r5, r0
 8001a50:	2800      	cmp	r0, #0
 8001a52:	d137      	bne.n	8001ac4 <HAL_I2C_Master_Receive+0x158>
    if(hi2c->XferSize == 0U)
 8001a54:	8d22      	ldrh	r2, [r4, #40]	; 0x28
 8001a56:	6823      	ldr	r3, [r4, #0]
 8001a58:	2a00      	cmp	r2, #0
 8001a5a:	d066      	beq.n	8001b2a <HAL_I2C_Master_Receive+0x1be>
    else if(hi2c->XferSize == 1U)
 8001a5c:	2a01      	cmp	r2, #1
 8001a5e:	d177      	bne.n	8001b50 <HAL_I2C_Master_Receive+0x1e4>
      CLEAR_BIT(hi2c->Instance->CR1, I2C_CR1_ACK);
 8001a60:	681a      	ldr	r2, [r3, #0]
 8001a62:	f422 6280 	bic.w	r2, r2, #1024	; 0x400
 8001a66:	601a      	str	r2, [r3, #0]
      __HAL_I2C_CLEAR_ADDRFLAG(hi2c);
 8001a68:	9504      	str	r5, [sp, #16]
 8001a6a:	695a      	ldr	r2, [r3, #20]
 8001a6c:	9204      	str	r2, [sp, #16]
 8001a6e:	699a      	ldr	r2, [r3, #24]
 8001a70:	9204      	str	r2, [sp, #16]
 8001a72:	9a04      	ldr	r2, [sp, #16]
      SET_BIT(hi2c->Instance->CR1, I2C_CR1_STOP);
 8001a74:	681a      	ldr	r2, [r3, #0]
 8001a76:	f442 7200 	orr.w	r2, r2, #512	; 0x200
 8001a7a:	601a      	str	r2, [r3, #0]
          if(I2C_WaitOnFlagUntilTimeout(hi2c, I2C_FLAG_BTF, RESET, Timeout, tickstart) != HAL_OK)
 8001a7c:	f8df 81d8 	ldr.w	r8, [pc, #472]	; 8001c58 <HAL_I2C_Master_Receive+0x2ec>
    while(hi2c->XferSize > 0U)
 8001a80:	8d23      	ldrh	r3, [r4, #40]	; 0x28
 8001a82:	2b00      	cmp	r3, #0
 8001a84:	d05b      	beq.n	8001b3e <HAL_I2C_Master_Receive+0x1d2>
      if(hi2c->XferSize <= 3U)
 8001a86:	2b03      	cmp	r3, #3
 8001a88:	f200 80c3 	bhi.w	8001c12 <HAL_I2C_Master_Receive+0x2a6>
        if(hi2c->XferSize == 1U)
 8001a8c:	2b01      	cmp	r3, #1
 8001a8e:	d17a      	bne.n	8001b86 <HAL_I2C_Master_Receive+0x21a>
          if(I2C_WaitOnRXNEFlagUntilTimeout(hi2c, Timeout, tickstart) != HAL_OK)      
 8001a90:	4632      	mov	r2, r6
 8001a92:	4639      	mov	r1, r7
 8001a94:	4620      	mov	r0, r4
 8001a96:	f7ff fdb1 	bl	80015fc <I2C_WaitOnRXNEFlagUntilTimeout>
 8001a9a:	2800      	cmp	r0, #0
 8001a9c:	f000 8090 	beq.w	8001bc0 <HAL_I2C_Master_Receive+0x254>
            if(hi2c->ErrorCode == HAL_I2C_ERROR_TIMEOUT)
 8001aa0:	6c23      	ldr	r3, [r4, #64]	; 0x40
 8001aa2:	2b20      	cmp	r3, #32
 8001aa4:	d116      	bne.n	8001ad4 <HAL_I2C_Master_Receive+0x168>
 8001aa6:	e03e      	b.n	8001b26 <HAL_I2C_Master_Receive+0x1ba>
    hi2c->Instance->DR = I2C_10BIT_HEADER_WRITE(DevAddress);
 8001aa8:	ea4f 18e5 	mov.w	r8, r5, asr #7
 8001aac:	f008 0806 	and.w	r8, r8, #6
 8001ab0:	f048 02f0 	orr.w	r2, r8, #240	; 0xf0
 8001ab4:	611a      	str	r2, [r3, #16]
    if(I2C_WaitOnMasterAddressFlagUntilTimeout(hi2c, I2C_FLAG_ADD10, Timeout, Tickstart) != HAL_OK)
 8001ab6:	4967      	ldr	r1, [pc, #412]	; (8001c54 <HAL_I2C_Master_Receive+0x2e8>)
 8001ab8:	4633      	mov	r3, r6
 8001aba:	463a      	mov	r2, r7
 8001abc:	4620      	mov	r0, r4
 8001abe:	f7ff fd09 	bl	80014d4 <I2C_WaitOnMasterAddressFlagUntilTimeout>
 8001ac2:	b148      	cbz	r0, 8001ad8 <HAL_I2C_Master_Receive+0x16c>
    if(hi2c->ErrorCode == HAL_I2C_ERROR_AF)
 8001ac4:	6c23      	ldr	r3, [r4, #64]	; 0x40
      if(hi2c->ErrorCode == HAL_I2C_ERROR_AF)
 8001ac6:	6c23      	ldr	r3, [r4, #64]	; 0x40
 8001ac8:	2b04      	cmp	r3, #4
 8001aca:	f04f 0300 	mov.w	r3, #0
 8001ace:	d128      	bne.n	8001b22 <HAL_I2C_Master_Receive+0x1b6>
        __HAL_UNLOCK(hi2c);
 8001ad0:	f884 303c 	strb.w	r3, [r4, #60]	; 0x3c
              return HAL_ERROR;
 8001ad4:	2501      	movs	r5, #1
 8001ad6:	e759      	b.n	800198c <HAL_I2C_Master_Receive+0x20>
    hi2c->Instance->DR = I2C_10BIT_ADDRESS(DevAddress);
 8001ad8:	6823      	ldr	r3, [r4, #0]
 8001ada:	b2ed      	uxtb	r5, r5
 8001adc:	611d      	str	r5, [r3, #16]
    if(I2C_WaitOnMasterAddressFlagUntilTimeout(hi2c, I2C_FLAG_ADDR, Timeout, Tickstart) != HAL_OK)
 8001ade:	463a      	mov	r2, r7
 8001ae0:	4633      	mov	r3, r6
 8001ae2:	495b      	ldr	r1, [pc, #364]	; (8001c50 <HAL_I2C_Master_Receive+0x2e4>)
 8001ae4:	4620      	mov	r0, r4
 8001ae6:	f7ff fcf5 	bl	80014d4 <I2C_WaitOnMasterAddressFlagUntilTimeout>
 8001aea:	4602      	mov	r2, r0
 8001aec:	2800      	cmp	r0, #0
 8001aee:	d1e9      	bne.n	8001ac4 <HAL_I2C_Master_Receive+0x158>
    __HAL_I2C_CLEAR_ADDRFLAG(hi2c);
 8001af0:	6823      	ldr	r3, [r4, #0]
 8001af2:	9007      	str	r0, [sp, #28]
 8001af4:	6959      	ldr	r1, [r3, #20]
    if(I2C_WaitOnFlagUntilTimeout(hi2c, I2C_FLAG_SB, RESET, Timeout, Tickstart) != HAL_OK)
 8001af6:	4620      	mov	r0, r4
    __HAL_I2C_CLEAR_ADDRFLAG(hi2c);
 8001af8:	9107      	str	r1, [sp, #28]
 8001afa:	6999      	ldr	r1, [r3, #24]
 8001afc:	9107      	str	r1, [sp, #28]
 8001afe:	9907      	ldr	r1, [sp, #28]
    SET_BIT(hi2c->Instance->CR1, I2C_CR1_START);
 8001b00:	6819      	ldr	r1, [r3, #0]
 8001b02:	f441 7180 	orr.w	r1, r1, #256	; 0x100
 8001b06:	6019      	str	r1, [r3, #0]
    if(I2C_WaitOnFlagUntilTimeout(hi2c, I2C_FLAG_SB, RESET, Timeout, Tickstart) != HAL_OK)
 8001b08:	9600      	str	r6, [sp, #0]
 8001b0a:	463b      	mov	r3, r7
 8001b0c:	f04f 1101 	mov.w	r1, #65537	; 0x10001
 8001b10:	f7ff fd20 	bl	8001554 <I2C_WaitOnFlagUntilTimeout>
 8001b14:	2800      	cmp	r0, #0
 8001b16:	d1d6      	bne.n	8001ac6 <HAL_I2C_Master_Receive+0x15a>
    hi2c->Instance->DR = I2C_10BIT_HEADER_READ(DevAddress);
 8001b18:	6822      	ldr	r2, [r4, #0]
 8001b1a:	f048 03f1 	orr.w	r3, r8, #241	; 0xf1
 8001b1e:	6113      	str	r3, [r2, #16]
 8001b20:	e78f      	b.n	8001a42 <HAL_I2C_Master_Receive+0xd6>
        __HAL_UNLOCK(hi2c);
 8001b22:	f884 303c 	strb.w	r3, [r4, #60]	; 0x3c
              return HAL_TIMEOUT;
 8001b26:	2503      	movs	r5, #3
 8001b28:	e730      	b.n	800198c <HAL_I2C_Master_Receive+0x20>
      __HAL_I2C_CLEAR_ADDRFLAG(hi2c);
 8001b2a:	9503      	str	r5, [sp, #12]
 8001b2c:	695a      	ldr	r2, [r3, #20]
 8001b2e:	9203      	str	r2, [sp, #12]
 8001b30:	699a      	ldr	r2, [r3, #24]
 8001b32:	9203      	str	r2, [sp, #12]
 8001b34:	9a03      	ldr	r2, [sp, #12]
      SET_BIT(hi2c->Instance->CR1, I2C_CR1_STOP);
 8001b36:	681a      	ldr	r2, [r3, #0]
 8001b38:	f442 7200 	orr.w	r2, r2, #512	; 0x200
 8001b3c:	601a      	str	r2, [r3, #0]
    hi2c->State = HAL_I2C_STATE_READY;
 8001b3e:	2320      	movs	r3, #32
 8001b40:	f884 303d 	strb.w	r3, [r4, #61]	; 0x3d
    hi2c->Mode = HAL_I2C_MODE_NONE;
 8001b44:	2300      	movs	r3, #0
 8001b46:	f884 303e 	strb.w	r3, [r4, #62]	; 0x3e
    __HAL_UNLOCK(hi2c);
 8001b4a:	f884 303c 	strb.w	r3, [r4, #60]	; 0x3c
    return HAL_OK;
 8001b4e:	e71d      	b.n	800198c <HAL_I2C_Master_Receive+0x20>
    else if(hi2c->XferSize == 2U)
 8001b50:	2a02      	cmp	r2, #2
      CLEAR_BIT(hi2c->Instance->CR1, I2C_CR1_ACK);
 8001b52:	681a      	ldr	r2, [r3, #0]
    else if(hi2c->XferSize == 2U)
 8001b54:	d10d      	bne.n	8001b72 <HAL_I2C_Master_Receive+0x206>
      CLEAR_BIT(hi2c->Instance->CR1, I2C_CR1_ACK);
 8001b56:	f422 6280 	bic.w	r2, r2, #1024	; 0x400
 8001b5a:	601a      	str	r2, [r3, #0]
      SET_BIT(hi2c->Instance->CR1, I2C_CR1_POS);
 8001b5c:	681a      	ldr	r2, [r3, #0]
 8001b5e:	f442 6200 	orr.w	r2, r2, #2048	; 0x800
 8001b62:	601a      	str	r2, [r3, #0]
      __HAL_I2C_CLEAR_ADDRFLAG(hi2c);
 8001b64:	9505      	str	r5, [sp, #20]
 8001b66:	695a      	ldr	r2, [r3, #20]
 8001b68:	9205      	str	r2, [sp, #20]
 8001b6a:	699b      	ldr	r3, [r3, #24]
 8001b6c:	9305      	str	r3, [sp, #20]
 8001b6e:	9b05      	ldr	r3, [sp, #20]
 8001b70:	e784      	b.n	8001a7c <HAL_I2C_Master_Receive+0x110>
      SET_BIT(hi2c->Instance->CR1, I2C_CR1_ACK);
 8001b72:	f442 6280 	orr.w	r2, r2, #1024	; 0x400
 8001b76:	601a      	str	r2, [r3, #0]
      __HAL_I2C_CLEAR_ADDRFLAG(hi2c);
 8001b78:	9506      	str	r5, [sp, #24]
 8001b7a:	695a      	ldr	r2, [r3, #20]
 8001b7c:	9206      	str	r2, [sp, #24]
 8001b7e:	699b      	ldr	r3, [r3, #24]
 8001b80:	9306      	str	r3, [sp, #24]
 8001b82:	9b06      	ldr	r3, [sp, #24]
 8001b84:	e77a      	b.n	8001a7c <HAL_I2C_Master_Receive+0x110>
        else if(hi2c->XferSize == 2U)
 8001b86:	2b02      	cmp	r3, #2
          if(I2C_WaitOnFlagUntilTimeout(hi2c, I2C_FLAG_BTF, RESET, Timeout, tickstart) != HAL_OK)
 8001b88:	9600      	str	r6, [sp, #0]
 8001b8a:	463b      	mov	r3, r7
 8001b8c:	f04f 0200 	mov.w	r2, #0
 8001b90:	4641      	mov	r1, r8
 8001b92:	4620      	mov	r0, r4
        else if(hi2c->XferSize == 2U)
 8001b94:	d122      	bne.n	8001bdc <HAL_I2C_Master_Receive+0x270>
          if(I2C_WaitOnFlagUntilTimeout(hi2c, I2C_FLAG_BTF, RESET, Timeout, tickstart) != HAL_OK)
 8001b96:	f7ff fcdd 	bl	8001554 <I2C_WaitOnFlagUntilTimeout>
 8001b9a:	2800      	cmp	r0, #0
 8001b9c:	d1c3      	bne.n	8001b26 <HAL_I2C_Master_Receive+0x1ba>
          SET_BIT(hi2c->Instance->CR1, I2C_CR1_STOP);
 8001b9e:	6823      	ldr	r3, [r4, #0]
 8001ba0:	681a      	ldr	r2, [r3, #0]
 8001ba2:	f442 7200 	orr.w	r2, r2, #512	; 0x200
 8001ba6:	601a      	str	r2, [r3, #0]
          (*hi2c->pBuffPtr++) = hi2c->Instance->DR;
 8001ba8:	6a62      	ldr	r2, [r4, #36]	; 0x24
 8001baa:	691b      	ldr	r3, [r3, #16]
 8001bac:	1c51      	adds	r1, r2, #1
 8001bae:	6261      	str	r1, [r4, #36]	; 0x24
 8001bb0:	7013      	strb	r3, [r2, #0]
          hi2c->XferSize--;
 8001bb2:	8d23      	ldrh	r3, [r4, #40]	; 0x28
 8001bb4:	3b01      	subs	r3, #1
 8001bb6:	8523      	strh	r3, [r4, #40]	; 0x28
          hi2c->XferCount--;
 8001bb8:	8d63      	ldrh	r3, [r4, #42]	; 0x2a
 8001bba:	3b01      	subs	r3, #1
 8001bbc:	b29b      	uxth	r3, r3
 8001bbe:	8563      	strh	r3, [r4, #42]	; 0x2a
          (*hi2c->pBuffPtr++) = hi2c->Instance->DR;
 8001bc0:	6a63      	ldr	r3, [r4, #36]	; 0x24
 8001bc2:	1c5a      	adds	r2, r3, #1
 8001bc4:	6262      	str	r2, [r4, #36]	; 0x24
 8001bc6:	6822      	ldr	r2, [r4, #0]
          (*hi2c->pBuffPtr++) = hi2c->Instance->DR;
 8001bc8:	6912      	ldr	r2, [r2, #16]
 8001bca:	701a      	strb	r2, [r3, #0]
          hi2c->XferSize--;
 8001bcc:	8d23      	ldrh	r3, [r4, #40]	; 0x28
 8001bce:	3b01      	subs	r3, #1
 8001bd0:	8523      	strh	r3, [r4, #40]	; 0x28
          hi2c->XferCount--;
 8001bd2:	8d63      	ldrh	r3, [r4, #42]	; 0x2a
 8001bd4:	3b01      	subs	r3, #1
 8001bd6:	b29b      	uxth	r3, r3
 8001bd8:	8563      	strh	r3, [r4, #42]	; 0x2a
 8001bda:	e751      	b.n	8001a80 <HAL_I2C_Master_Receive+0x114>
          if(I2C_WaitOnFlagUntilTimeout(hi2c, I2C_FLAG_BTF, RESET, Timeout, tickstart) != HAL_OK)
 8001bdc:	f7ff fcba 	bl	8001554 <I2C_WaitOnFlagUntilTimeout>
 8001be0:	4602      	mov	r2, r0
 8001be2:	2800      	cmp	r0, #0
 8001be4:	d19f      	bne.n	8001b26 <HAL_I2C_Master_Receive+0x1ba>
          CLEAR_BIT(hi2c->Instance->CR1, I2C_CR1_ACK);
 8001be6:	6823      	ldr	r3, [r4, #0]
 8001be8:	6819      	ldr	r1, [r3, #0]
 8001bea:	f421 6180 	bic.w	r1, r1, #1024	; 0x400
 8001bee:	6019      	str	r1, [r3, #0]
          (*hi2c->pBuffPtr++) = hi2c->Instance->DR;
 8001bf0:	6a61      	ldr	r1, [r4, #36]	; 0x24
 8001bf2:	691b      	ldr	r3, [r3, #16]
 8001bf4:	1c48      	adds	r0, r1, #1
 8001bf6:	6260      	str	r0, [r4, #36]	; 0x24
 8001bf8:	700b      	strb	r3, [r1, #0]
          hi2c->XferSize--;
 8001bfa:	8d23      	ldrh	r3, [r4, #40]	; 0x28
          if(I2C_WaitOnFlagUntilTimeout(hi2c, I2C_FLAG_BTF, RESET, Timeout, tickstart) != HAL_OK)
 8001bfc:	9600      	str	r6, [sp, #0]
          hi2c->XferSize--;
 8001bfe:	3b01      	subs	r3, #1
 8001c00:	8523      	strh	r3, [r4, #40]	; 0x28
          hi2c->XferCount--;
 8001c02:	8d63      	ldrh	r3, [r4, #42]	; 0x2a
          if(I2C_WaitOnFlagUntilTimeout(hi2c, I2C_FLAG_BTF, RESET, Timeout, tickstart) != HAL_OK)
 8001c04:	4641      	mov	r1, r8
          hi2c->XferCount--;
 8001c06:	3b01      	subs	r3, #1
 8001c08:	b29b      	uxth	r3, r3
 8001c0a:	8563      	strh	r3, [r4, #42]	; 0x2a
          if(I2C_WaitOnFlagUntilTimeout(hi2c, I2C_FLAG_BTF, RESET, Timeout, tickstart) != HAL_OK)
 8001c0c:	4620      	mov	r0, r4
 8001c0e:	463b      	mov	r3, r7
 8001c10:	e7c1      	b.n	8001b96 <HAL_I2C_Master_Receive+0x22a>
        if(I2C_WaitOnRXNEFlagUntilTimeout(hi2c, Timeout, tickstart) != HAL_OK)      
 8001c12:	4632      	mov	r2, r6
 8001c14:	4639      	mov	r1, r7
 8001c16:	4620      	mov	r0, r4
 8001c18:	f7ff fcf0 	bl	80015fc <I2C_WaitOnRXNEFlagUntilTimeout>
 8001c1c:	2800      	cmp	r0, #0
 8001c1e:	f47f af3f 	bne.w	8001aa0 <HAL_I2C_Master_Receive+0x134>
        (*hi2c->pBuffPtr++) = hi2c->Instance->DR;
 8001c22:	6a63      	ldr	r3, [r4, #36]	; 0x24
 8001c24:	1c5a      	adds	r2, r3, #1
 8001c26:	6262      	str	r2, [r4, #36]	; 0x24
 8001c28:	6822      	ldr	r2, [r4, #0]
 8001c2a:	6912      	ldr	r2, [r2, #16]
 8001c2c:	701a      	strb	r2, [r3, #0]
        hi2c->XferSize--;
 8001c2e:	8d23      	ldrh	r3, [r4, #40]	; 0x28
        if(__HAL_I2C_GET_FLAG(hi2c, I2C_FLAG_BTF) == SET)
 8001c30:	6822      	ldr	r2, [r4, #0]
        hi2c->XferSize--;
 8001c32:	3b01      	subs	r3, #1
 8001c34:	8523      	strh	r3, [r4, #40]	; 0x28
        hi2c->XferCount--;
 8001c36:	8d63      	ldrh	r3, [r4, #42]	; 0x2a
 8001c38:	3b01      	subs	r3, #1
 8001c3a:	b29b      	uxth	r3, r3
 8001c3c:	8563      	strh	r3, [r4, #42]	; 0x2a
        if(__HAL_I2C_GET_FLAG(hi2c, I2C_FLAG_BTF) == SET)
 8001c3e:	6953      	ldr	r3, [r2, #20]
 8001c40:	075b      	lsls	r3, r3, #29
 8001c42:	f57f af1d 	bpl.w	8001a80 <HAL_I2C_Master_Receive+0x114>
          (*hi2c->pBuffPtr++) = hi2c->Instance->DR;
 8001c46:	6a63      	ldr	r3, [r4, #36]	; 0x24
 8001c48:	1c59      	adds	r1, r3, #1
 8001c4a:	6261      	str	r1, [r4, #36]	; 0x24
 8001c4c:	e7bc      	b.n	8001bc8 <HAL_I2C_Master_Receive+0x25c>
 8001c4e:	bf00      	nop
 8001c50:	00010002 	.word	0x00010002
 8001c54:	00010008 	.word	0x00010008
 8001c58:	00010004 	.word	0x00010004

08001c5c <RCC_SetFlashLatencyFromMSIRange>:
{
  uint32_t vos = 0U;
  uint32_t latency = FLASH_LATENCY_0;  /* default value 0WS */

  /* HCLK can reach 4 MHz only if AHB prescaler = 1 */
  if (READ_BIT(RCC->CFGR, RCC_CFGR_HPRE) == RCC_SYSCLK_DIV1)
 8001c5c:	4b1c      	ldr	r3, [pc, #112]	; (8001cd0 <RCC_SetFlashLatencyFromMSIRange+0x74>)
{
 8001c5e:	b082      	sub	sp, #8
  if (READ_BIT(RCC->CFGR, RCC_CFGR_HPRE) == RCC_SYSCLK_DIV1)
 8001c60:	689a      	ldr	r2, [r3, #8]
 8001c62:	f012 0ff0 	tst.w	r2, #240	; 0xf0
 8001c66:	d00c      	beq.n	8001c82 <RCC_SetFlashLatencyFromMSIRange+0x26>
{
 8001c68:	2200      	movs	r2, #0
    {
      latency = FLASH_LATENCY_1; /* 1WS */
    }
  }
  
  __HAL_FLASH_SET_LATENCY(latency);
 8001c6a:	491a      	ldr	r1, [pc, #104]	; (8001cd4 <RCC_SetFlashLatencyFromMSIRange+0x78>)
 8001c6c:	680b      	ldr	r3, [r1, #0]
 8001c6e:	f023 0301 	bic.w	r3, r3, #1
 8001c72:	4313      	orrs	r3, r2
 8001c74:	600b      	str	r3, [r1, #0]
  
  /* Check that the new number of wait states is taken into account to access the Flash
     memory by reading the FLASH_ACR register */
  if((FLASH->ACR & FLASH_ACR_LATENCY) != latency)
 8001c76:	6808      	ldr	r0, [r1, #0]
 8001c78:	f000 0001 	and.w	r0, r0, #1
 8001c7c:	4050      	eors	r0, r2
  {
    return HAL_ERROR;
  }
  
  return HAL_OK;
}
 8001c7e:	b002      	add	sp, #8
 8001c80:	4770      	bx	lr
    if(__HAL_RCC_PWR_IS_CLK_ENABLED())
 8001c82:	6a5a      	ldr	r2, [r3, #36]	; 0x24
 8001c84:	4914      	ldr	r1, [pc, #80]	; (8001cd8 <RCC_SetFlashLatencyFromMSIRange+0x7c>)
 8001c86:	f012 5f80 	tst.w	r2, #268435456	; 0x10000000
 8001c8a:	d00f      	beq.n	8001cac <RCC_SetFlashLatencyFromMSIRange+0x50>
      vos = READ_BIT(PWR->CR, PWR_CR_VOS);
 8001c8c:	680a      	ldr	r2, [r1, #0]
 8001c8e:	f402 52c0 	and.w	r2, r2, #6144	; 0x1800
    if((vos == PWR_REGULATOR_VOLTAGE_SCALE3) && (MSIrange == RCC_MSIRANGE_6))
 8001c92:	f5b2 5fc0 	cmp.w	r2, #6144	; 0x1800
 8001c96:	d1e7      	bne.n	8001c68 <RCC_SetFlashLatencyFromMSIRange+0xc>
 8001c98:	f5b0 4f40 	cmp.w	r0, #49152	; 0xc000
 8001c9c:	d1e4      	bne.n	8001c68 <RCC_SetFlashLatencyFromMSIRange+0xc>
  __HAL_FLASH_SET_LATENCY(latency);
 8001c9e:	4a0d      	ldr	r2, [pc, #52]	; (8001cd4 <RCC_SetFlashLatencyFromMSIRange+0x78>)
 8001ca0:	6813      	ldr	r3, [r2, #0]
 8001ca2:	f043 0304 	orr.w	r3, r3, #4
 8001ca6:	6013      	str	r3, [r2, #0]
      latency = FLASH_LATENCY_1; /* 1WS */
 8001ca8:	2201      	movs	r2, #1
 8001caa:	e7de      	b.n	8001c6a <RCC_SetFlashLatencyFromMSIRange+0xe>
      __HAL_RCC_PWR_CLK_ENABLE();
 8001cac:	6a5a      	ldr	r2, [r3, #36]	; 0x24
 8001cae:	f042 5280 	orr.w	r2, r2, #268435456	; 0x10000000
 8001cb2:	625a      	str	r2, [r3, #36]	; 0x24
 8001cb4:	6a5a      	ldr	r2, [r3, #36]	; 0x24
 8001cb6:	f002 5280 	and.w	r2, r2, #268435456	; 0x10000000
 8001cba:	9201      	str	r2, [sp, #4]
 8001cbc:	9a01      	ldr	r2, [sp, #4]
      vos = READ_BIT(PWR->CR, PWR_CR_VOS);
 8001cbe:	680a      	ldr	r2, [r1, #0]
      __HAL_RCC_PWR_CLK_DISABLE();
 8001cc0:	6a59      	ldr	r1, [r3, #36]	; 0x24
      vos = READ_BIT(PWR->CR, PWR_CR_VOS);
 8001cc2:	f402 52c0 	and.w	r2, r2, #6144	; 0x1800
      __HAL_RCC_PWR_CLK_DISABLE();
 8001cc6:	f021 5180 	bic.w	r1, r1, #268435456	; 0x10000000
 8001cca:	6259      	str	r1, [r3, #36]	; 0x24
 8001ccc:	e7e1      	b.n	8001c92 <RCC_SetFlashLatencyFromMSIRange+0x36>
 8001cce:	bf00      	nop
 8001cd0:	40023800 	.word	0x40023800
 8001cd4:	40023c00 	.word	0x40023c00
 8001cd8:	40007000 	.word	0x40007000

08001cdc <HAL_RCC_OscConfig>:
  if(((RCC_OscInitStruct->OscillatorType) & RCC_OSCILLATORTYPE_HSE) == RCC_OSCILLATORTYPE_HSE)
 8001cdc:	6803      	ldr	r3, [r0, #0]
{
 8001cde:	e92d 43f7 	stmdb	sp!, {r0, r1, r2, r4, r5, r6, r7, r8, r9, lr}
  if(((RCC_OscInitStruct->OscillatorType) & RCC_OSCILLATORTYPE_HSE) == RCC_OSCILLATORTYPE_HSE)
 8001ce2:	07d9      	lsls	r1, r3, #31
{
 8001ce4:	4604      	mov	r4, r0
  if(((RCC_OscInitStruct->OscillatorType) & RCC_OSCILLATORTYPE_HSE) == RCC_OSCILLATORTYPE_HSE)
 8001ce6:	d46a      	bmi.n	8001dbe <HAL_RCC_OscConfig+0xe2>
  if(((RCC_OscInitStruct->OscillatorType) & RCC_OSCILLATORTYPE_HSI) == RCC_OSCILLATORTYPE_HSI)
 8001ce8:	6823      	ldr	r3, [r4, #0]
 8001cea:	079a      	lsls	r2, r3, #30
 8001cec:	f100 80e6 	bmi.w	8001ebc <HAL_RCC_OscConfig+0x1e0>
  if(((RCC_OscInitStruct->OscillatorType) & RCC_OSCILLATORTYPE_MSI) == RCC_OSCILLATORTYPE_MSI)
 8001cf0:	6823      	ldr	r3, [r4, #0]
 8001cf2:	06de      	lsls	r6, r3, #27
 8001cf4:	d555      	bpl.n	8001da2 <HAL_RCC_OscConfig+0xc6>
    if((__HAL_RCC_GET_SYSCLK_SOURCE() == RCC_CFGR_SWS_MSI) )
 8001cf6:	4dc1      	ldr	r5, [pc, #772]	; (8001ffc <HAL_RCC_OscConfig+0x320>)
 8001cf8:	68ab      	ldr	r3, [r5, #8]
 8001cfa:	f013 0f0c 	tst.w	r3, #12
 8001cfe:	f040 8183 	bne.w	8002008 <HAL_RCC_OscConfig+0x32c>
__attribute__((always_inline)) __STATIC_INLINE uint32_t __RBIT(uint32_t value)
{
  uint32_t result;

#if       (__CORTEX_M >= 0x03U) || (__CORTEX_SC >= 300U)
   __ASM volatile ("rbit %0, %1" : "=r" (result) : "r" (value) );
 8001d02:	f44f 7300 	mov.w	r3, #512	; 0x200
 8001d06:	fa93 f2a3 	rbit	r2, r3
      if((__HAL_RCC_GET_FLAG(RCC_FLAG_MSIRDY) != RESET) && (RCC_OscInitStruct->MSIState == RCC_MSI_OFF))
 8001d0a:	6829      	ldr	r1, [r5, #0]
 8001d0c:	fa93 f3a3 	rbit	r3, r3
 8001d10:	fab3 f383 	clz	r3, r3
 8001d14:	2201      	movs	r2, #1
 8001d16:	f003 031f 	and.w	r3, r3, #31
 8001d1a:	fa02 f303 	lsl.w	r3, r2, r3
 8001d1e:	420b      	tst	r3, r1
 8001d20:	d002      	beq.n	8001d28 <HAL_RCC_OscConfig+0x4c>
 8001d22:	69a3      	ldr	r3, [r4, #24]
 8001d24:	2b00      	cmp	r3, #0
 8001d26:	d06e      	beq.n	8001e06 <HAL_RCC_OscConfig+0x12a>
        if(RCC_OscInitStruct->MSIClockRange > __HAL_RCC_GET_MSI_RANGE())
 8001d28:	4db4      	ldr	r5, [pc, #720]	; (8001ffc <HAL_RCC_OscConfig+0x320>)
 8001d2a:	6a20      	ldr	r0, [r4, #32]
 8001d2c:	686b      	ldr	r3, [r5, #4]
 8001d2e:	f403 4360 	and.w	r3, r3, #57344	; 0xe000
 8001d32:	4298      	cmp	r0, r3
 8001d34:	f240 814a 	bls.w	8001fcc <HAL_RCC_OscConfig+0x2f0>
          if(RCC_SetFlashLatencyFromMSIRange(RCC_OscInitStruct->MSIClockRange) != HAL_OK)
 8001d38:	f7ff ff90 	bl	8001c5c <RCC_SetFlashLatencyFromMSIRange>
 8001d3c:	2800      	cmp	r0, #0
 8001d3e:	d162      	bne.n	8001e06 <HAL_RCC_OscConfig+0x12a>
          __HAL_RCC_MSI_RANGE_CONFIG(RCC_OscInitStruct->MSIClockRange);
 8001d40:	686b      	ldr	r3, [r5, #4]
 8001d42:	6a22      	ldr	r2, [r4, #32]
 8001d44:	f423 4360 	bic.w	r3, r3, #57344	; 0xe000
 8001d48:	4313      	orrs	r3, r2
 8001d4a:	606b      	str	r3, [r5, #4]
          __HAL_RCC_MSI_CALIBRATIONVALUE_ADJUST(RCC_OscInitStruct->MSICalibrationValue);
 8001d4c:	6869      	ldr	r1, [r5, #4]
 8001d4e:	f04f 437f 	mov.w	r3, #4278190080	; 0xff000000
 8001d52:	fa93 f3a3 	rbit	r3, r3
 8001d56:	fab3 f283 	clz	r2, r3
 8001d5a:	69e3      	ldr	r3, [r4, #28]
 8001d5c:	4093      	lsls	r3, r2
 8001d5e:	f021 427f 	bic.w	r2, r1, #4278190080	; 0xff000000
 8001d62:	4313      	orrs	r3, r2
 8001d64:	606b      	str	r3, [r5, #4]
 8001d66:	f44f 4360 	mov.w	r3, #57344	; 0xe000
 8001d6a:	fa93 f3a3 	rbit	r3, r3
        SystemCoreClock =  (32768U * (1U << ((RCC_OscInitStruct->MSIClockRange >> RCC_ICSCR_MSIRANGE_BITNUMBER) + 1U))) 
 8001d6e:	fab3 f083 	clz	r0, r3
                           >> AHBPrescTable[((RCC->CFGR & RCC_CFGR_HPRE) >> RCC_CFGR_HPRE_BITNUMBER)];
 8001d72:	4ba2      	ldr	r3, [pc, #648]	; (8001ffc <HAL_RCC_OscConfig+0x320>)
 8001d74:	21f0      	movs	r1, #240	; 0xf0
 8001d76:	689a      	ldr	r2, [r3, #8]
 8001d78:	fa91 f1a1 	rbit	r1, r1
 8001d7c:	fab1 f181 	clz	r1, r1
        SystemCoreClock =  (32768U * (1U << ((RCC_OscInitStruct->MSIClockRange >> RCC_ICSCR_MSIRANGE_BITNUMBER) + 1U))) 
 8001d80:	6a23      	ldr	r3, [r4, #32]
                           >> AHBPrescTable[((RCC->CFGR & RCC_CFGR_HPRE) >> RCC_CFGR_HPRE_BITNUMBER)];
 8001d82:	f002 02f0 	and.w	r2, r2, #240	; 0xf0
        SystemCoreClock =  (32768U * (1U << ((RCC_OscInitStruct->MSIClockRange >> RCC_ICSCR_MSIRANGE_BITNUMBER) + 1U))) 
 8001d86:	40c3      	lsrs	r3, r0
 8001d88:	1c58      	adds	r0, r3, #1
 8001d8a:	f44f 4300 	mov.w	r3, #32768	; 0x8000
                           >> AHBPrescTable[((RCC->CFGR & RCC_CFGR_HPRE) >> RCC_CFGR_HPRE_BITNUMBER)];
 8001d8e:	40ca      	lsrs	r2, r1
 8001d90:	499b      	ldr	r1, [pc, #620]	; (8002000 <HAL_RCC_OscConfig+0x324>)
        SystemCoreClock =  (32768U * (1U << ((RCC_OscInitStruct->MSIClockRange >> RCC_ICSCR_MSIRANGE_BITNUMBER) + 1U))) 
 8001d92:	4083      	lsls	r3, r0
                           >> AHBPrescTable[((RCC->CFGR & RCC_CFGR_HPRE) >> RCC_CFGR_HPRE_BITNUMBER)];
 8001d94:	5c8a      	ldrb	r2, [r1, r2]
        HAL_InitTick (TICK_INT_PRIORITY);
 8001d96:	2000      	movs	r0, #0
                           >> AHBPrescTable[((RCC->CFGR & RCC_CFGR_HPRE) >> RCC_CFGR_HPRE_BITNUMBER)];
 8001d98:	40d3      	lsrs	r3, r2
        SystemCoreClock =  (32768U * (1U << ((RCC_OscInitStruct->MSIClockRange >> RCC_ICSCR_MSIRANGE_BITNUMBER) + 1U))) 
 8001d9a:	4a9a      	ldr	r2, [pc, #616]	; (8002004 <HAL_RCC_OscConfig+0x328>)
 8001d9c:	6013      	str	r3, [r2, #0]
        HAL_InitTick (TICK_INT_PRIORITY);
 8001d9e:	f7ff f9fb 	bl	8001198 <HAL_InitTick>
  if(((RCC_OscInitStruct->OscillatorType) & RCC_OSCILLATORTYPE_LSI) == RCC_OSCILLATORTYPE_LSI)
 8001da2:	6823      	ldr	r3, [r4, #0]
 8001da4:	071d      	lsls	r5, r3, #28
 8001da6:	f100 8191 	bmi.w	80020cc <HAL_RCC_OscConfig+0x3f0>
  if(((RCC_OscInitStruct->OscillatorType) & RCC_OSCILLATORTYPE_LSE) == RCC_OSCILLATORTYPE_LSE)
 8001daa:	6823      	ldr	r3, [r4, #0]
 8001dac:	0758      	lsls	r0, r3, #29
 8001dae:	f100 81d3 	bmi.w	8002158 <HAL_RCC_OscConfig+0x47c>
  if ((RCC_OscInitStruct->PLL.PLLState) != RCC_PLL_NONE)
 8001db2:	6a62      	ldr	r2, [r4, #36]	; 0x24
 8001db4:	2a00      	cmp	r2, #0
 8001db6:	f040 8257 	bne.w	8002268 <HAL_RCC_OscConfig+0x58c>
  return HAL_OK;
 8001dba:	2000      	movs	r0, #0
 8001dbc:	e024      	b.n	8001e08 <HAL_RCC_OscConfig+0x12c>
    if((__HAL_RCC_GET_SYSCLK_SOURCE() == RCC_SYSCLKSOURCE_STATUS_HSE) 
 8001dbe:	4b8f      	ldr	r3, [pc, #572]	; (8001ffc <HAL_RCC_OscConfig+0x320>)
 8001dc0:	689a      	ldr	r2, [r3, #8]
 8001dc2:	f002 020c 	and.w	r2, r2, #12
 8001dc6:	2a08      	cmp	r2, #8
 8001dc8:	d007      	beq.n	8001dda <HAL_RCC_OscConfig+0xfe>
       || ((__HAL_RCC_GET_SYSCLK_SOURCE() == RCC_SYSCLKSOURCE_STATUS_PLLCLK) && (__HAL_RCC_GET_PLL_OSCSOURCE() == RCC_PLLSOURCE_HSE)))
 8001dca:	689a      	ldr	r2, [r3, #8]
 8001dcc:	f002 020c 	and.w	r2, r2, #12
 8001dd0:	2a0c      	cmp	r2, #12
 8001dd2:	d11c      	bne.n	8001e0e <HAL_RCC_OscConfig+0x132>
 8001dd4:	689b      	ldr	r3, [r3, #8]
 8001dd6:	03db      	lsls	r3, r3, #15
 8001dd8:	d519      	bpl.n	8001e0e <HAL_RCC_OscConfig+0x132>
 8001dda:	f44f 3300 	mov.w	r3, #131072	; 0x20000
 8001dde:	fa93 f2a3 	rbit	r2, r3
      if((__HAL_RCC_GET_FLAG(RCC_FLAG_HSERDY) != RESET) && (RCC_OscInitStruct->HSEState == RCC_HSE_OFF))
 8001de2:	4a86      	ldr	r2, [pc, #536]	; (8001ffc <HAL_RCC_OscConfig+0x320>)
 8001de4:	6811      	ldr	r1, [r2, #0]
 8001de6:	fa93 f3a3 	rbit	r3, r3
 8001dea:	fab3 f383 	clz	r3, r3
 8001dee:	2201      	movs	r2, #1
 8001df0:	f003 031f 	and.w	r3, r3, #31
 8001df4:	fa02 f303 	lsl.w	r3, r2, r3
 8001df8:	420b      	tst	r3, r1
 8001dfa:	f43f af75 	beq.w	8001ce8 <HAL_RCC_OscConfig+0xc>
 8001dfe:	6863      	ldr	r3, [r4, #4]
 8001e00:	2b00      	cmp	r3, #0
 8001e02:	f47f af71 	bne.w	8001ce8 <HAL_RCC_OscConfig+0xc>
        return HAL_ERROR;
 8001e06:	2001      	movs	r0, #1
}
 8001e08:	b003      	add	sp, #12
 8001e0a:	e8bd 83f0 	ldmia.w	sp!, {r4, r5, r6, r7, r8, r9, pc}
      __HAL_RCC_HSE_CONFIG(RCC_OscInitStruct->HSEState);
 8001e0e:	6863      	ldr	r3, [r4, #4]
 8001e10:	4d7a      	ldr	r5, [pc, #488]	; (8001ffc <HAL_RCC_OscConfig+0x320>)
 8001e12:	2b01      	cmp	r3, #1
 8001e14:	d120      	bne.n	8001e58 <HAL_RCC_OscConfig+0x17c>
 8001e16:	682b      	ldr	r3, [r5, #0]
 8001e18:	f443 3380 	orr.w	r3, r3, #65536	; 0x10000
 8001e1c:	602b      	str	r3, [r5, #0]
        tickstart = HAL_GetTick();
 8001e1e:	f7ff f9e3 	bl	80011e8 <HAL_GetTick>
 8001e22:	f44f 3500 	mov.w	r5, #131072	; 0x20000
 8001e26:	4680      	mov	r8, r0
        while(__HAL_RCC_GET_FLAG(RCC_FLAG_HSERDY) == RESET)
 8001e28:	2601      	movs	r6, #1
 8001e2a:	4f74      	ldr	r7, [pc, #464]	; (8001ffc <HAL_RCC_OscConfig+0x320>)
 8001e2c:	fa95 f3a5 	rbit	r3, r5
 8001e30:	683a      	ldr	r2, [r7, #0]
 8001e32:	fa95 f3a5 	rbit	r3, r5
 8001e36:	fab3 f383 	clz	r3, r3
 8001e3a:	f003 031f 	and.w	r3, r3, #31
 8001e3e:	fa06 f303 	lsl.w	r3, r6, r3
 8001e42:	4213      	tst	r3, r2
 8001e44:	f47f af50 	bne.w	8001ce8 <HAL_RCC_OscConfig+0xc>
          if((HAL_GetTick() - tickstart ) > HSE_TIMEOUT_VALUE)
 8001e48:	f7ff f9ce 	bl	80011e8 <HAL_GetTick>
 8001e4c:	eba0 0008 	sub.w	r0, r0, r8
 8001e50:	2864      	cmp	r0, #100	; 0x64
 8001e52:	d9eb      	bls.n	8001e2c <HAL_RCC_OscConfig+0x150>
            return HAL_TIMEOUT;
 8001e54:	2003      	movs	r0, #3
 8001e56:	e7d7      	b.n	8001e08 <HAL_RCC_OscConfig+0x12c>
      __HAL_RCC_HSE_CONFIG(RCC_OscInitStruct->HSEState);
 8001e58:	bb13      	cbnz	r3, 8001ea0 <HAL_RCC_OscConfig+0x1c4>
 8001e5a:	682b      	ldr	r3, [r5, #0]
 8001e5c:	f44f 3600 	mov.w	r6, #131072	; 0x20000
 8001e60:	f423 3380 	bic.w	r3, r3, #65536	; 0x10000
 8001e64:	602b      	str	r3, [r5, #0]
 8001e66:	682b      	ldr	r3, [r5, #0]
        while(__HAL_RCC_GET_FLAG(RCC_FLAG_HSERDY) != RESET)
 8001e68:	2701      	movs	r7, #1
      __HAL_RCC_HSE_CONFIG(RCC_OscInitStruct->HSEState);
 8001e6a:	f423 2380 	bic.w	r3, r3, #262144	; 0x40000
 8001e6e:	602b      	str	r3, [r5, #0]
        tickstart = HAL_GetTick();
 8001e70:	f7ff f9ba 	bl	80011e8 <HAL_GetTick>
 8001e74:	4680      	mov	r8, r0
 8001e76:	fa96 f3a6 	rbit	r3, r6
        while(__HAL_RCC_GET_FLAG(RCC_FLAG_HSERDY) != RESET)
 8001e7a:	682a      	ldr	r2, [r5, #0]
 8001e7c:	fa96 f3a6 	rbit	r3, r6
 8001e80:	fab3 f383 	clz	r3, r3
 8001e84:	f003 031f 	and.w	r3, r3, #31
 8001e88:	fa07 f303 	lsl.w	r3, r7, r3
 8001e8c:	4213      	tst	r3, r2
 8001e8e:	f43f af2b 	beq.w	8001ce8 <HAL_RCC_OscConfig+0xc>
           if((HAL_GetTick() - tickstart ) > HSE_TIMEOUT_VALUE)
 8001e92:	f7ff f9a9 	bl	80011e8 <HAL_GetTick>
 8001e96:	eba0 0008 	sub.w	r0, r0, r8
 8001e9a:	2864      	cmp	r0, #100	; 0x64
 8001e9c:	d9eb      	bls.n	8001e76 <HAL_RCC_OscConfig+0x19a>
 8001e9e:	e7d9      	b.n	8001e54 <HAL_RCC_OscConfig+0x178>
      __HAL_RCC_HSE_CONFIG(RCC_OscInitStruct->HSEState);
 8001ea0:	2b05      	cmp	r3, #5
 8001ea2:	682b      	ldr	r3, [r5, #0]
 8001ea4:	d103      	bne.n	8001eae <HAL_RCC_OscConfig+0x1d2>
 8001ea6:	f443 2380 	orr.w	r3, r3, #262144	; 0x40000
 8001eaa:	602b      	str	r3, [r5, #0]
 8001eac:	e7b3      	b.n	8001e16 <HAL_RCC_OscConfig+0x13a>
 8001eae:	f423 3380 	bic.w	r3, r3, #65536	; 0x10000
 8001eb2:	602b      	str	r3, [r5, #0]
 8001eb4:	682b      	ldr	r3, [r5, #0]
 8001eb6:	f423 2380 	bic.w	r3, r3, #262144	; 0x40000
 8001eba:	e7af      	b.n	8001e1c <HAL_RCC_OscConfig+0x140>
    if((__HAL_RCC_GET_SYSCLK_SOURCE() == RCC_SYSCLKSOURCE_STATUS_HSI) 
 8001ebc:	4b4f      	ldr	r3, [pc, #316]	; (8001ffc <HAL_RCC_OscConfig+0x320>)
 8001ebe:	689a      	ldr	r2, [r3, #8]
 8001ec0:	f002 020c 	and.w	r2, r2, #12
 8001ec4:	2a04      	cmp	r2, #4
 8001ec6:	d007      	beq.n	8001ed8 <HAL_RCC_OscConfig+0x1fc>
       || ((__HAL_RCC_GET_SYSCLK_SOURCE() == RCC_SYSCLKSOURCE_STATUS_PLLCLK) && (__HAL_RCC_GET_PLL_OSCSOURCE() == RCC_PLLSOURCE_HSI)))
 8001ec8:	689a      	ldr	r2, [r3, #8]
 8001eca:	f002 020c 	and.w	r2, r2, #12
 8001ece:	2a0c      	cmp	r2, #12
 8001ed0:	d124      	bne.n	8001f1c <HAL_RCC_OscConfig+0x240>
 8001ed2:	689b      	ldr	r3, [r3, #8]
 8001ed4:	03df      	lsls	r7, r3, #15
 8001ed6:	d421      	bmi.n	8001f1c <HAL_RCC_OscConfig+0x240>
 8001ed8:	2302      	movs	r3, #2
 8001eda:	fa93 f2a3 	rbit	r2, r3
      if((__HAL_RCC_GET_FLAG(RCC_FLAG_HSIRDY) != RESET) && (RCC_OscInitStruct->HSIState != RCC_HSI_ON))
 8001ede:	4a47      	ldr	r2, [pc, #284]	; (8001ffc <HAL_RCC_OscConfig+0x320>)
 8001ee0:	6810      	ldr	r0, [r2, #0]
 8001ee2:	fa93 f3a3 	rbit	r3, r3
 8001ee6:	fab3 f383 	clz	r3, r3
 8001eea:	2101      	movs	r1, #1
 8001eec:	f003 031f 	and.w	r3, r3, #31
 8001ef0:	fa01 f303 	lsl.w	r3, r1, r3
 8001ef4:	4203      	tst	r3, r0
 8001ef6:	4613      	mov	r3, r2
 8001ef8:	d002      	beq.n	8001f00 <HAL_RCC_OscConfig+0x224>
 8001efa:	68e2      	ldr	r2, [r4, #12]
 8001efc:	428a      	cmp	r2, r1
 8001efe:	d182      	bne.n	8001e06 <HAL_RCC_OscConfig+0x12a>
        __HAL_RCC_HSI_CALIBRATIONVALUE_ADJUST(RCC_OscInitStruct->HSICalibrationValue);
 8001f00:	6858      	ldr	r0, [r3, #4]
 8001f02:	f44f 52f8 	mov.w	r2, #7936	; 0x1f00
 8001f06:	fa92 f2a2 	rbit	r2, r2
 8001f0a:	fab2 f182 	clz	r1, r2
 8001f0e:	6922      	ldr	r2, [r4, #16]
 8001f10:	408a      	lsls	r2, r1
 8001f12:	f420 51f8 	bic.w	r1, r0, #7936	; 0x1f00
 8001f16:	430a      	orrs	r2, r1
 8001f18:	605a      	str	r2, [r3, #4]
      if((__HAL_RCC_GET_FLAG(RCC_FLAG_HSIRDY) != RESET) && (RCC_OscInitStruct->HSIState != RCC_HSI_ON))
 8001f1a:	e6e9      	b.n	8001cf0 <HAL_RCC_OscConfig+0x14>
      if(RCC_OscInitStruct->HSIState != RCC_HSI_OFF)
 8001f1c:	68e2      	ldr	r2, [r4, #12]
 8001f1e:	2501      	movs	r5, #1
 8001f20:	b382      	cbz	r2, 8001f84 <HAL_RCC_OscConfig+0x2a8>
 8001f22:	fa95 f3a5 	rbit	r3, r5
        __HAL_RCC_HSI_ENABLE();
 8001f26:	fab3 f383 	clz	r3, r3
 8001f2a:	f103 5384 	add.w	r3, r3, #276824064	; 0x10800000
 8001f2e:	f503 138e 	add.w	r3, r3, #1163264	; 0x11c000
 8001f32:	009b      	lsls	r3, r3, #2
 8001f34:	601d      	str	r5, [r3, #0]
        tickstart = HAL_GetTick();
 8001f36:	f7ff f957 	bl	80011e8 <HAL_GetTick>
 8001f3a:	2702      	movs	r7, #2
 8001f3c:	4680      	mov	r8, r0
        while(__HAL_RCC_GET_FLAG(RCC_FLAG_HSIRDY) == RESET)
 8001f3e:	4e2f      	ldr	r6, [pc, #188]	; (8001ffc <HAL_RCC_OscConfig+0x320>)
 8001f40:	fa97 f3a7 	rbit	r3, r7
 8001f44:	6832      	ldr	r2, [r6, #0]
 8001f46:	fa97 f3a7 	rbit	r3, r7
 8001f4a:	fab3 f383 	clz	r3, r3
 8001f4e:	f003 031f 	and.w	r3, r3, #31
 8001f52:	fa05 f303 	lsl.w	r3, r5, r3
 8001f56:	4213      	tst	r3, r2
 8001f58:	d00d      	beq.n	8001f76 <HAL_RCC_OscConfig+0x29a>
        __HAL_RCC_HSI_CALIBRATIONVALUE_ADJUST(RCC_OscInitStruct->HSICalibrationValue);
 8001f5a:	6871      	ldr	r1, [r6, #4]
 8001f5c:	f44f 53f8 	mov.w	r3, #7936	; 0x1f00
 8001f60:	fa93 f3a3 	rbit	r3, r3
 8001f64:	fab3 f283 	clz	r2, r3
 8001f68:	6923      	ldr	r3, [r4, #16]
 8001f6a:	4093      	lsls	r3, r2
 8001f6c:	f421 52f8 	bic.w	r2, r1, #7936	; 0x1f00
 8001f70:	4313      	orrs	r3, r2
 8001f72:	6073      	str	r3, [r6, #4]
 8001f74:	e6bc      	b.n	8001cf0 <HAL_RCC_OscConfig+0x14>
          if((HAL_GetTick() - tickstart ) > HSI_TIMEOUT_VALUE)
 8001f76:	f7ff f937 	bl	80011e8 <HAL_GetTick>
 8001f7a:	eba0 0008 	sub.w	r0, r0, r8
 8001f7e:	2802      	cmp	r0, #2
 8001f80:	d9de      	bls.n	8001f40 <HAL_RCC_OscConfig+0x264>
 8001f82:	e767      	b.n	8001e54 <HAL_RCC_OscConfig+0x178>
 8001f84:	fa95 f3a5 	rbit	r3, r5
        __HAL_RCC_HSI_DISABLE();
 8001f88:	fab3 f383 	clz	r3, r3
 8001f8c:	f103 5384 	add.w	r3, r3, #276824064	; 0x10800000
 8001f90:	f503 138e 	add.w	r3, r3, #1163264	; 0x11c000
 8001f94:	009b      	lsls	r3, r3, #2
 8001f96:	601a      	str	r2, [r3, #0]
        tickstart = HAL_GetTick();
 8001f98:	f7ff f926 	bl	80011e8 <HAL_GetTick>
 8001f9c:	2602      	movs	r6, #2
 8001f9e:	4680      	mov	r8, r0
        while(__HAL_RCC_GET_FLAG(RCC_FLAG_HSIRDY) != RESET)
 8001fa0:	4f16      	ldr	r7, [pc, #88]	; (8001ffc <HAL_RCC_OscConfig+0x320>)
 8001fa2:	fa96 f3a6 	rbit	r3, r6
 8001fa6:	683a      	ldr	r2, [r7, #0]
 8001fa8:	fa96 f3a6 	rbit	r3, r6
 8001fac:	fab3 f383 	clz	r3, r3
 8001fb0:	f003 031f 	and.w	r3, r3, #31
 8001fb4:	fa05 f303 	lsl.w	r3, r5, r3
 8001fb8:	4213      	tst	r3, r2
 8001fba:	f43f ae99 	beq.w	8001cf0 <HAL_RCC_OscConfig+0x14>
          if((HAL_GetTick() - tickstart ) > HSI_TIMEOUT_VALUE)
 8001fbe:	f7ff f913 	bl	80011e8 <HAL_GetTick>
 8001fc2:	eba0 0008 	sub.w	r0, r0, r8
 8001fc6:	2802      	cmp	r0, #2
 8001fc8:	d9eb      	bls.n	8001fa2 <HAL_RCC_OscConfig+0x2c6>
 8001fca:	e743      	b.n	8001e54 <HAL_RCC_OscConfig+0x178>
          __HAL_RCC_MSI_RANGE_CONFIG(RCC_OscInitStruct->MSIClockRange);
 8001fcc:	686b      	ldr	r3, [r5, #4]
 8001fce:	f423 4360 	bic.w	r3, r3, #57344	; 0xe000
 8001fd2:	4303      	orrs	r3, r0
 8001fd4:	606b      	str	r3, [r5, #4]
          __HAL_RCC_MSI_CALIBRATIONVALUE_ADJUST(RCC_OscInitStruct->MSICalibrationValue);
 8001fd6:	6869      	ldr	r1, [r5, #4]
 8001fd8:	f04f 437f 	mov.w	r3, #4278190080	; 0xff000000
 8001fdc:	fa93 f3a3 	rbit	r3, r3
 8001fe0:	fab3 f283 	clz	r2, r3
 8001fe4:	69e3      	ldr	r3, [r4, #28]
 8001fe6:	4093      	lsls	r3, r2
 8001fe8:	f021 427f 	bic.w	r2, r1, #4278190080	; 0xff000000
 8001fec:	4313      	orrs	r3, r2
 8001fee:	606b      	str	r3, [r5, #4]
          if(RCC_SetFlashLatencyFromMSIRange(RCC_OscInitStruct->MSIClockRange) != HAL_OK)
 8001ff0:	f7ff fe34 	bl	8001c5c <RCC_SetFlashLatencyFromMSIRange>
 8001ff4:	2800      	cmp	r0, #0
 8001ff6:	f43f aeb6 	beq.w	8001d66 <HAL_RCC_OscConfig+0x8a>
 8001ffa:	e704      	b.n	8001e06 <HAL_RCC_OscConfig+0x12a>
 8001ffc:	40023800 	.word	0x40023800
 8002000:	080078ce 	.word	0x080078ce
 8002004:	20000004 	.word	0x20000004
      if(RCC_OscInitStruct->MSIState != RCC_MSI_OFF)
 8002008:	69a2      	ldr	r2, [r4, #24]
 800200a:	f44f 7380 	mov.w	r3, #256	; 0x100
 800200e:	2a00      	cmp	r2, #0
 8002010:	d037      	beq.n	8002082 <HAL_RCC_OscConfig+0x3a6>
 8002012:	fa93 f3a3 	rbit	r3, r3
        __HAL_RCC_MSI_ENABLE();
 8002016:	fab3 f383 	clz	r3, r3
 800201a:	2601      	movs	r6, #1
 800201c:	f103 5384 	add.w	r3, r3, #276824064	; 0x10800000
 8002020:	f503 138e 	add.w	r3, r3, #1163264	; 0x11c000
 8002024:	009b      	lsls	r3, r3, #2
 8002026:	601e      	str	r6, [r3, #0]
        tickstart = HAL_GetTick();
 8002028:	f7ff f8de 	bl	80011e8 <HAL_GetTick>
 800202c:	f44f 7700 	mov.w	r7, #512	; 0x200
 8002030:	4680      	mov	r8, r0
 8002032:	fa97 f3a7 	rbit	r3, r7
        while(__HAL_RCC_GET_FLAG(RCC_FLAG_MSIRDY) == RESET)
 8002036:	682a      	ldr	r2, [r5, #0]
 8002038:	fa97 f3a7 	rbit	r3, r7
 800203c:	fab3 f383 	clz	r3, r3
 8002040:	f003 031f 	and.w	r3, r3, #31
 8002044:	fa06 f303 	lsl.w	r3, r6, r3
 8002048:	4213      	tst	r3, r2
 800204a:	d013      	beq.n	8002074 <HAL_RCC_OscConfig+0x398>
        __HAL_RCC_MSI_RANGE_CONFIG(RCC_OscInitStruct->MSIClockRange);
 800204c:	686b      	ldr	r3, [r5, #4]
 800204e:	6a22      	ldr	r2, [r4, #32]
 8002050:	f423 4360 	bic.w	r3, r3, #57344	; 0xe000
 8002054:	4313      	orrs	r3, r2
 8002056:	606b      	str	r3, [r5, #4]
        __HAL_RCC_MSI_CALIBRATIONVALUE_ADJUST(RCC_OscInitStruct->MSICalibrationValue);
 8002058:	6869      	ldr	r1, [r5, #4]
 800205a:	f04f 437f 	mov.w	r3, #4278190080	; 0xff000000
 800205e:	fa93 f3a3 	rbit	r3, r3
 8002062:	fab3 f283 	clz	r2, r3
 8002066:	69e3      	ldr	r3, [r4, #28]
 8002068:	4093      	lsls	r3, r2
 800206a:	f021 427f 	bic.w	r2, r1, #4278190080	; 0xff000000
 800206e:	4313      	orrs	r3, r2
 8002070:	606b      	str	r3, [r5, #4]
 8002072:	e696      	b.n	8001da2 <HAL_RCC_OscConfig+0xc6>
          if((HAL_GetTick() - tickstart) > MSI_TIMEOUT_VALUE)
 8002074:	f7ff f8b8 	bl	80011e8 <HAL_GetTick>
 8002078:	eba0 0008 	sub.w	r0, r0, r8
 800207c:	2802      	cmp	r0, #2
 800207e:	d9d8      	bls.n	8002032 <HAL_RCC_OscConfig+0x356>
 8002080:	e6e8      	b.n	8001e54 <HAL_RCC_OscConfig+0x178>
 8002082:	fa93 f3a3 	rbit	r3, r3
        __HAL_RCC_MSI_DISABLE();
 8002086:	fab3 f383 	clz	r3, r3
 800208a:	f103 5384 	add.w	r3, r3, #276824064	; 0x10800000
 800208e:	f503 138e 	add.w	r3, r3, #1163264	; 0x11c000
 8002092:	009b      	lsls	r3, r3, #2
 8002094:	601a      	str	r2, [r3, #0]
        tickstart = HAL_GetTick();
 8002096:	f7ff f8a7 	bl	80011e8 <HAL_GetTick>
 800209a:	f44f 7600 	mov.w	r6, #512	; 0x200
 800209e:	4680      	mov	r8, r0
        while(__HAL_RCC_GET_FLAG(RCC_FLAG_MSIRDY) != RESET)
 80020a0:	2701      	movs	r7, #1
 80020a2:	fa96 f3a6 	rbit	r3, r6
 80020a6:	682a      	ldr	r2, [r5, #0]
 80020a8:	fa96 f3a6 	rbit	r3, r6
 80020ac:	fab3 f383 	clz	r3, r3
 80020b0:	f003 031f 	and.w	r3, r3, #31
 80020b4:	fa07 f303 	lsl.w	r3, r7, r3
 80020b8:	4213      	tst	r3, r2
 80020ba:	f43f ae72 	beq.w	8001da2 <HAL_RCC_OscConfig+0xc6>
          if((HAL_GetTick() - tickstart) > MSI_TIMEOUT_VALUE)
 80020be:	f7ff f893 	bl	80011e8 <HAL_GetTick>
 80020c2:	eba0 0008 	sub.w	r0, r0, r8
 80020c6:	2802      	cmp	r0, #2
 80020c8:	d9eb      	bls.n	80020a2 <HAL_RCC_OscConfig+0x3c6>
 80020ca:	e6c3      	b.n	8001e54 <HAL_RCC_OscConfig+0x178>
    if(RCC_OscInitStruct->LSIState != RCC_LSI_OFF)
 80020cc:	6962      	ldr	r2, [r4, #20]
 80020ce:	2501      	movs	r5, #1
 80020d0:	49a9      	ldr	r1, [pc, #676]	; (8002378 <HAL_RCC_OscConfig+0x69c>)
 80020d2:	b302      	cbz	r2, 8002116 <HAL_RCC_OscConfig+0x43a>
 80020d4:	fa95 f3a5 	rbit	r3, r5
      __HAL_RCC_LSI_ENABLE();
 80020d8:	fab3 f383 	clz	r3, r3
 80020dc:	440b      	add	r3, r1
 80020de:	009b      	lsls	r3, r3, #2
 80020e0:	601d      	str	r5, [r3, #0]
      tickstart = HAL_GetTick();
 80020e2:	f7ff f881 	bl	80011e8 <HAL_GetTick>
 80020e6:	2602      	movs	r6, #2
 80020e8:	4680      	mov	r8, r0
      while(__HAL_RCC_GET_FLAG(RCC_FLAG_LSIRDY) == RESET)
 80020ea:	4fa4      	ldr	r7, [pc, #656]	; (800237c <HAL_RCC_OscConfig+0x6a0>)
 80020ec:	fa96 f3a6 	rbit	r3, r6
 80020f0:	6b7a      	ldr	r2, [r7, #52]	; 0x34
 80020f2:	fa96 f3a6 	rbit	r3, r6
 80020f6:	fab3 f383 	clz	r3, r3
 80020fa:	f003 031f 	and.w	r3, r3, #31
 80020fe:	fa05 f303 	lsl.w	r3, r5, r3
 8002102:	4213      	tst	r3, r2
 8002104:	f47f ae51 	bne.w	8001daa <HAL_RCC_OscConfig+0xce>
        if((HAL_GetTick() - tickstart ) > LSI_TIMEOUT_VALUE)
 8002108:	f7ff f86e 	bl	80011e8 <HAL_GetTick>
 800210c:	eba0 0008 	sub.w	r0, r0, r8
 8002110:	2802      	cmp	r0, #2
 8002112:	d9eb      	bls.n	80020ec <HAL_RCC_OscConfig+0x410>
 8002114:	e69e      	b.n	8001e54 <HAL_RCC_OscConfig+0x178>
 8002116:	fa95 f3a5 	rbit	r3, r5
      __HAL_RCC_LSI_DISABLE();
 800211a:	fab3 f383 	clz	r3, r3
 800211e:	440b      	add	r3, r1
 8002120:	009b      	lsls	r3, r3, #2
 8002122:	601a      	str	r2, [r3, #0]
      tickstart = HAL_GetTick();
 8002124:	f7ff f860 	bl	80011e8 <HAL_GetTick>
 8002128:	2602      	movs	r6, #2
 800212a:	4680      	mov	r8, r0
      while(__HAL_RCC_GET_FLAG(RCC_FLAG_LSIRDY) != RESET)
 800212c:	4f93      	ldr	r7, [pc, #588]	; (800237c <HAL_RCC_OscConfig+0x6a0>)
 800212e:	fa96 f3a6 	rbit	r3, r6
 8002132:	6b7a      	ldr	r2, [r7, #52]	; 0x34
 8002134:	fa96 f3a6 	rbit	r3, r6
 8002138:	fab3 f383 	clz	r3, r3
 800213c:	f003 031f 	and.w	r3, r3, #31
 8002140:	fa05 f303 	lsl.w	r3, r5, r3
 8002144:	4213      	tst	r3, r2
 8002146:	f43f ae30 	beq.w	8001daa <HAL_RCC_OscConfig+0xce>
        if((HAL_GetTick() - tickstart ) > LSI_TIMEOUT_VALUE)
 800214a:	f7ff f84d 	bl	80011e8 <HAL_GetTick>
 800214e:	eba0 0008 	sub.w	r0, r0, r8
 8002152:	2802      	cmp	r0, #2
 8002154:	d9eb      	bls.n	800212e <HAL_RCC_OscConfig+0x452>
 8002156:	e67d      	b.n	8001e54 <HAL_RCC_OscConfig+0x178>
    if(__HAL_RCC_PWR_IS_CLK_DISABLED())
 8002158:	4b88      	ldr	r3, [pc, #544]	; (800237c <HAL_RCC_OscConfig+0x6a0>)
 800215a:	6a5a      	ldr	r2, [r3, #36]	; 0x24
 800215c:	00d1      	lsls	r1, r2, #3
 800215e:	d434      	bmi.n	80021ca <HAL_RCC_OscConfig+0x4ee>
      pwrclkchanged = SET;
 8002160:	2601      	movs	r6, #1
      __HAL_RCC_PWR_CLK_ENABLE();
 8002162:	6a5a      	ldr	r2, [r3, #36]	; 0x24
 8002164:	f042 5280 	orr.w	r2, r2, #268435456	; 0x10000000
 8002168:	625a      	str	r2, [r3, #36]	; 0x24
 800216a:	6a5b      	ldr	r3, [r3, #36]	; 0x24
 800216c:	f003 5380 	and.w	r3, r3, #268435456	; 0x10000000
 8002170:	9301      	str	r3, [sp, #4]
 8002172:	9b01      	ldr	r3, [sp, #4]
    if(HAL_IS_BIT_CLR(PWR->CR, PWR_CR_DBP))
 8002174:	4d82      	ldr	r5, [pc, #520]	; (8002380 <HAL_RCC_OscConfig+0x6a4>)
 8002176:	682b      	ldr	r3, [r5, #0]
 8002178:	05da      	lsls	r2, r3, #23
 800217a:	d528      	bpl.n	80021ce <HAL_RCC_OscConfig+0x4f2>
    __HAL_RCC_LSE_CONFIG(RCC_OscInitStruct->LSEState);
 800217c:	68a3      	ldr	r3, [r4, #8]
 800217e:	4d7f      	ldr	r5, [pc, #508]	; (800237c <HAL_RCC_OscConfig+0x6a0>)
 8002180:	2b01      	cmp	r3, #1
 8002182:	d134      	bne.n	80021ee <HAL_RCC_OscConfig+0x512>
 8002184:	6b6b      	ldr	r3, [r5, #52]	; 0x34
 8002186:	f443 7380 	orr.w	r3, r3, #256	; 0x100
 800218a:	636b      	str	r3, [r5, #52]	; 0x34
      tickstart = HAL_GetTick();
 800218c:	f7ff f82c 	bl	80011e8 <HAL_GetTick>
 8002190:	f44f 7500 	mov.w	r5, #512	; 0x200
 8002194:	4681      	mov	r9, r0
      while(__HAL_RCC_GET_FLAG(RCC_FLAG_LSERDY) == RESET)
 8002196:	2701      	movs	r7, #1
 8002198:	f8df 81e0 	ldr.w	r8, [pc, #480]	; 800237c <HAL_RCC_OscConfig+0x6a0>
 800219c:	fa95 f3a5 	rbit	r3, r5
 80021a0:	f8d8 2034 	ldr.w	r2, [r8, #52]	; 0x34
 80021a4:	fa95 f3a5 	rbit	r3, r5
 80021a8:	fab3 f383 	clz	r3, r3
 80021ac:	f003 031f 	and.w	r3, r3, #31
 80021b0:	fa07 f303 	lsl.w	r3, r7, r3
 80021b4:	4213      	tst	r3, r2
 80021b6:	d04e      	beq.n	8002256 <HAL_RCC_OscConfig+0x57a>
    if(pwrclkchanged == SET)
 80021b8:	2e00      	cmp	r6, #0
 80021ba:	f43f adfa 	beq.w	8001db2 <HAL_RCC_OscConfig+0xd6>
      __HAL_RCC_PWR_CLK_DISABLE();
 80021be:	4a6f      	ldr	r2, [pc, #444]	; (800237c <HAL_RCC_OscConfig+0x6a0>)
 80021c0:	6a53      	ldr	r3, [r2, #36]	; 0x24
 80021c2:	f023 5380 	bic.w	r3, r3, #268435456	; 0x10000000
 80021c6:	6253      	str	r3, [r2, #36]	; 0x24
 80021c8:	e5f3      	b.n	8001db2 <HAL_RCC_OscConfig+0xd6>
    FlagStatus       pwrclkchanged = RESET;
 80021ca:	2600      	movs	r6, #0
 80021cc:	e7d2      	b.n	8002174 <HAL_RCC_OscConfig+0x498>
      SET_BIT(PWR->CR, PWR_CR_DBP);
 80021ce:	682b      	ldr	r3, [r5, #0]
 80021d0:	f443 7380 	orr.w	r3, r3, #256	; 0x100
 80021d4:	602b      	str	r3, [r5, #0]
      tickstart = HAL_GetTick();
 80021d6:	f7ff f807 	bl	80011e8 <HAL_GetTick>
 80021da:	4607      	mov	r7, r0
      while(HAL_IS_BIT_CLR(PWR->CR, PWR_CR_DBP))
 80021dc:	682b      	ldr	r3, [r5, #0]
 80021de:	05db      	lsls	r3, r3, #23
 80021e0:	d4cc      	bmi.n	800217c <HAL_RCC_OscConfig+0x4a0>
        if((HAL_GetTick() - tickstart) > RCC_DBP_TIMEOUT_VALUE)
 80021e2:	f7ff f801 	bl	80011e8 <HAL_GetTick>
 80021e6:	1bc0      	subs	r0, r0, r7
 80021e8:	2864      	cmp	r0, #100	; 0x64
 80021ea:	d9f7      	bls.n	80021dc <HAL_RCC_OscConfig+0x500>
 80021ec:	e632      	b.n	8001e54 <HAL_RCC_OscConfig+0x178>
    __HAL_RCC_LSE_CONFIG(RCC_OscInitStruct->LSEState);
 80021ee:	bb23      	cbnz	r3, 800223a <HAL_RCC_OscConfig+0x55e>
 80021f0:	6b6b      	ldr	r3, [r5, #52]	; 0x34
 80021f2:	f44f 7700 	mov.w	r7, #512	; 0x200
 80021f6:	f423 7380 	bic.w	r3, r3, #256	; 0x100
 80021fa:	636b      	str	r3, [r5, #52]	; 0x34
 80021fc:	6b6b      	ldr	r3, [r5, #52]	; 0x34
      while(__HAL_RCC_GET_FLAG(RCC_FLAG_LSERDY) != RESET)
 80021fe:	f04f 0801 	mov.w	r8, #1
    __HAL_RCC_LSE_CONFIG(RCC_OscInitStruct->LSEState);
 8002202:	f423 6380 	bic.w	r3, r3, #1024	; 0x400
 8002206:	636b      	str	r3, [r5, #52]	; 0x34
      tickstart = HAL_GetTick();
 8002208:	f7fe ffee 	bl	80011e8 <HAL_GetTick>
 800220c:	4681      	mov	r9, r0
 800220e:	fa97 f3a7 	rbit	r3, r7
      while(__HAL_RCC_GET_FLAG(RCC_FLAG_LSERDY) != RESET)
 8002212:	6b6a      	ldr	r2, [r5, #52]	; 0x34
 8002214:	fa97 f3a7 	rbit	r3, r7
 8002218:	fab3 f383 	clz	r3, r3
 800221c:	f003 031f 	and.w	r3, r3, #31
 8002220:	fa08 f303 	lsl.w	r3, r8, r3
 8002224:	4213      	tst	r3, r2
 8002226:	d0c7      	beq.n	80021b8 <HAL_RCC_OscConfig+0x4dc>
        if((HAL_GetTick() - tickstart ) > RCC_LSE_TIMEOUT_VALUE)
 8002228:	f7fe ffde 	bl	80011e8 <HAL_GetTick>
 800222c:	f241 3388 	movw	r3, #5000	; 0x1388
 8002230:	eba0 0009 	sub.w	r0, r0, r9
 8002234:	4298      	cmp	r0, r3
 8002236:	d9ea      	bls.n	800220e <HAL_RCC_OscConfig+0x532>
 8002238:	e60c      	b.n	8001e54 <HAL_RCC_OscConfig+0x178>
    __HAL_RCC_LSE_CONFIG(RCC_OscInitStruct->LSEState);
 800223a:	2b05      	cmp	r3, #5
 800223c:	6b6b      	ldr	r3, [r5, #52]	; 0x34
 800223e:	d103      	bne.n	8002248 <HAL_RCC_OscConfig+0x56c>
 8002240:	f443 6380 	orr.w	r3, r3, #1024	; 0x400
 8002244:	636b      	str	r3, [r5, #52]	; 0x34
 8002246:	e79d      	b.n	8002184 <HAL_RCC_OscConfig+0x4a8>
 8002248:	f423 7380 	bic.w	r3, r3, #256	; 0x100
 800224c:	636b      	str	r3, [r5, #52]	; 0x34
 800224e:	6b6b      	ldr	r3, [r5, #52]	; 0x34
 8002250:	f423 6380 	bic.w	r3, r3, #1024	; 0x400
 8002254:	e799      	b.n	800218a <HAL_RCC_OscConfig+0x4ae>
        if((HAL_GetTick() - tickstart ) > RCC_LSE_TIMEOUT_VALUE)
 8002256:	f7fe ffc7 	bl	80011e8 <HAL_GetTick>
 800225a:	f241 3388 	movw	r3, #5000	; 0x1388
 800225e:	eba0 0009 	sub.w	r0, r0, r9
 8002262:	4298      	cmp	r0, r3
 8002264:	d99a      	bls.n	800219c <HAL_RCC_OscConfig+0x4c0>
 8002266:	e5f5      	b.n	8001e54 <HAL_RCC_OscConfig+0x178>
    if(__HAL_RCC_GET_SYSCLK_SOURCE() != RCC_SYSCLKSOURCE_STATUS_PLLCLK)
 8002268:	4d44      	ldr	r5, [pc, #272]	; (800237c <HAL_RCC_OscConfig+0x6a0>)
 800226a:	68ab      	ldr	r3, [r5, #8]
 800226c:	f003 030c 	and.w	r3, r3, #12
 8002270:	2b0c      	cmp	r3, #12
 8002272:	f43f adc8 	beq.w	8001e06 <HAL_RCC_OscConfig+0x12a>
      if((RCC_OscInitStruct->PLL.PLLState) == RCC_PLL_ON)
 8002276:	2a02      	cmp	r2, #2
 8002278:	f04f 7380 	mov.w	r3, #16777216	; 0x1000000
 800227c:	d156      	bne.n	800232c <HAL_RCC_OscConfig+0x650>
 800227e:	fa93 f3a3 	rbit	r3, r3
        __HAL_RCC_PLL_DISABLE();
 8002282:	fab3 f383 	clz	r3, r3
 8002286:	2200      	movs	r2, #0
 8002288:	f103 5384 	add.w	r3, r3, #276824064	; 0x10800000
 800228c:	f503 138e 	add.w	r3, r3, #1163264	; 0x11c000
 8002290:	009b      	lsls	r3, r3, #2
 8002292:	601a      	str	r2, [r3, #0]
        tickstart = HAL_GetTick();
 8002294:	f7fe ffa8 	bl	80011e8 <HAL_GetTick>
        while(__HAL_RCC_GET_FLAG(RCC_FLAG_PLLRDY)  != RESET)
 8002298:	462e      	mov	r6, r5
        tickstart = HAL_GetTick();
 800229a:	4680      	mov	r8, r0
 800229c:	f04f 7700 	mov.w	r7, #33554432	; 0x2000000
        while(__HAL_RCC_GET_FLAG(RCC_FLAG_PLLRDY)  != RESET)
 80022a0:	2501      	movs	r5, #1
 80022a2:	fa97 f3a7 	rbit	r3, r7
 80022a6:	6832      	ldr	r2, [r6, #0]
 80022a8:	fa97 f3a7 	rbit	r3, r7
 80022ac:	fab3 f383 	clz	r3, r3
 80022b0:	f003 031f 	and.w	r3, r3, #31
 80022b4:	fa05 f303 	lsl.w	r3, r5, r3
 80022b8:	4213      	tst	r3, r2
 80022ba:	d130      	bne.n	800231e <HAL_RCC_OscConfig+0x642>
        __HAL_RCC_PLL_CONFIG(RCC_OscInitStruct->PLL.PLLSource,
 80022bc:	68b2      	ldr	r2, [r6, #8]
 80022be:	6aa3      	ldr	r3, [r4, #40]	; 0x28
 80022c0:	6ae1      	ldr	r1, [r4, #44]	; 0x2c
 80022c2:	f422 027d 	bic.w	r2, r2, #16580608	; 0xfd0000
 80022c6:	430b      	orrs	r3, r1
 80022c8:	4313      	orrs	r3, r2
 80022ca:	6b22      	ldr	r2, [r4, #48]	; 0x30
 80022cc:	4313      	orrs	r3, r2
 80022ce:	60b3      	str	r3, [r6, #8]
 80022d0:	f04f 7380 	mov.w	r3, #16777216	; 0x1000000
 80022d4:	fa93 f3a3 	rbit	r3, r3
        __HAL_RCC_PLL_ENABLE();
 80022d8:	fab3 f383 	clz	r3, r3
 80022dc:	f103 5384 	add.w	r3, r3, #276824064	; 0x10800000
 80022e0:	f503 138e 	add.w	r3, r3, #1163264	; 0x11c000
 80022e4:	009b      	lsls	r3, r3, #2
 80022e6:	601d      	str	r5, [r3, #0]
        tickstart = HAL_GetTick();
 80022e8:	f7fe ff7e 	bl	80011e8 <HAL_GetTick>
 80022ec:	f04f 7400 	mov.w	r4, #33554432	; 0x2000000
 80022f0:	4607      	mov	r7, r0
        while(__HAL_RCC_GET_FLAG(RCC_FLAG_PLLRDY)  == RESET)
 80022f2:	2501      	movs	r5, #1
 80022f4:	4e21      	ldr	r6, [pc, #132]	; (800237c <HAL_RCC_OscConfig+0x6a0>)
 80022f6:	fa94 f3a4 	rbit	r3, r4
 80022fa:	6832      	ldr	r2, [r6, #0]
 80022fc:	fa94 f3a4 	rbit	r3, r4
 8002300:	fab3 f383 	clz	r3, r3
 8002304:	f003 031f 	and.w	r3, r3, #31
 8002308:	fa05 f303 	lsl.w	r3, r5, r3
 800230c:	4213      	tst	r3, r2
 800230e:	f47f ad54 	bne.w	8001dba <HAL_RCC_OscConfig+0xde>
          if((HAL_GetTick() - tickstart ) > PLL_TIMEOUT_VALUE)
 8002312:	f7fe ff69 	bl	80011e8 <HAL_GetTick>
 8002316:	1bc0      	subs	r0, r0, r7
 8002318:	2802      	cmp	r0, #2
 800231a:	d9ec      	bls.n	80022f6 <HAL_RCC_OscConfig+0x61a>
 800231c:	e59a      	b.n	8001e54 <HAL_RCC_OscConfig+0x178>
          if((HAL_GetTick() - tickstart ) > PLL_TIMEOUT_VALUE)
 800231e:	f7fe ff63 	bl	80011e8 <HAL_GetTick>
 8002322:	eba0 0008 	sub.w	r0, r0, r8
 8002326:	2802      	cmp	r0, #2
 8002328:	d9bb      	bls.n	80022a2 <HAL_RCC_OscConfig+0x5c6>
 800232a:	e593      	b.n	8001e54 <HAL_RCC_OscConfig+0x178>
 800232c:	fa93 f3a3 	rbit	r3, r3
        __HAL_RCC_PLL_DISABLE();
 8002330:	fab3 f383 	clz	r3, r3
 8002334:	2200      	movs	r2, #0
 8002336:	f103 5384 	add.w	r3, r3, #276824064	; 0x10800000
 800233a:	f503 138e 	add.w	r3, r3, #1163264	; 0x11c000
 800233e:	009b      	lsls	r3, r3, #2
 8002340:	601a      	str	r2, [r3, #0]
        tickstart = HAL_GetTick();
 8002342:	f7fe ff51 	bl	80011e8 <HAL_GetTick>
 8002346:	f04f 7400 	mov.w	r4, #33554432	; 0x2000000
 800234a:	4607      	mov	r7, r0
        while(__HAL_RCC_GET_FLAG(RCC_FLAG_PLLRDY)  != RESET)
 800234c:	2601      	movs	r6, #1
 800234e:	fa94 f3a4 	rbit	r3, r4
 8002352:	682a      	ldr	r2, [r5, #0]
 8002354:	fa94 f3a4 	rbit	r3, r4
 8002358:	fab3 f383 	clz	r3, r3
 800235c:	f003 031f 	and.w	r3, r3, #31
 8002360:	fa06 f303 	lsl.w	r3, r6, r3
 8002364:	4213      	tst	r3, r2
 8002366:	f43f ad28 	beq.w	8001dba <HAL_RCC_OscConfig+0xde>
          if((HAL_GetTick() - tickstart ) > PLL_TIMEOUT_VALUE)
 800236a:	f7fe ff3d 	bl	80011e8 <HAL_GetTick>
 800236e:	1bc0      	subs	r0, r0, r7
 8002370:	2802      	cmp	r0, #2
 8002372:	d9ec      	bls.n	800234e <HAL_RCC_OscConfig+0x672>
 8002374:	e56e      	b.n	8001e54 <HAL_RCC_OscConfig+0x178>
 8002376:	bf00      	nop
 8002378:	1091c1a0 	.word	0x1091c1a0
 800237c:	40023800 	.word	0x40023800
 8002380:	40007000 	.word	0x40007000

08002384 <HAL_RCC_GetSysClockFreq>:
  tmpreg = RCC->CFGR;
 8002384:	491e      	ldr	r1, [pc, #120]	; (8002400 <HAL_RCC_GetSysClockFreq+0x7c>)
{
 8002386:	b510      	push	{r4, lr}
  tmpreg = RCC->CFGR;
 8002388:	688b      	ldr	r3, [r1, #8]
  switch (tmpreg & RCC_CFGR_SWS)
 800238a:	f003 020c 	and.w	r2, r3, #12
 800238e:	2a08      	cmp	r2, #8
 8002390:	d005      	beq.n	800239e <HAL_RCC_GetSysClockFreq+0x1a>
 8002392:	2a0c      	cmp	r2, #12
 8002394:	d005      	beq.n	80023a2 <HAL_RCC_GetSysClockFreq+0x1e>
 8002396:	2a04      	cmp	r2, #4
 8002398:	d122      	bne.n	80023e0 <HAL_RCC_GetSysClockFreq+0x5c>
      sysclockfreq = HSI_VALUE;
 800239a:	481a      	ldr	r0, [pc, #104]	; (8002404 <HAL_RCC_GetSysClockFreq+0x80>)
}
 800239c:	bd10      	pop	{r4, pc}
      sysclockfreq = HSE_VALUE;
 800239e:	481a      	ldr	r0, [pc, #104]	; (8002408 <HAL_RCC_GetSysClockFreq+0x84>)
 80023a0:	bd10      	pop	{r4, pc}
 80023a2:	f44f 1270 	mov.w	r2, #3932160	; 0x3c0000
 80023a6:	fa92 f2a2 	rbit	r2, r2
      pllm = PLLMulTable[(uint32_t)(tmpreg & RCC_CFGR_PLLMUL) >> RCC_CFGR_PLLMUL_BITNUMBER];
 80023aa:	fab2 f282 	clz	r2, r2
 80023ae:	f403 1070 	and.w	r0, r3, #3932160	; 0x3c0000
 80023b2:	fa20 f202 	lsr.w	r2, r0, r2
 80023b6:	4815      	ldr	r0, [pc, #84]	; (800240c <HAL_RCC_GetSysClockFreq+0x88>)
 80023b8:	5c84      	ldrb	r4, [r0, r2]
 80023ba:	f44f 0040 	mov.w	r0, #12582912	; 0xc00000
 80023be:	fa90 f0a0 	rbit	r0, r0
      plld = ((uint32_t)(tmpreg & RCC_CFGR_PLLDIV) >> RCC_CFGR_PLLDIV_BITNUMBER) + 1U;
 80023c2:	fab0 f280 	clz	r2, r0
 80023c6:	f403 0040 	and.w	r0, r3, #12582912	; 0xc00000
      if (__HAL_RCC_GET_PLL_OSCSOURCE() != RCC_PLLSOURCE_HSI)
 80023ca:	688b      	ldr	r3, [r1, #8]
      plld = ((uint32_t)(tmpreg & RCC_CFGR_PLLDIV) >> RCC_CFGR_PLLDIV_BITNUMBER) + 1U;
 80023cc:	40d0      	lsrs	r0, r2
      if (__HAL_RCC_GET_PLL_OSCSOURCE() != RCC_PLLSOURCE_HSI)
 80023ce:	03db      	lsls	r3, r3, #15
        pllvco = (HSE_VALUE * pllm) / plld;
 80023d0:	bf4c      	ite	mi
 80023d2:	4b0d      	ldrmi	r3, [pc, #52]	; (8002408 <HAL_RCC_GetSysClockFreq+0x84>)
        pllvco = (HSI_VALUE * pllm) / plld;
 80023d4:	4b0b      	ldrpl	r3, [pc, #44]	; (8002404 <HAL_RCC_GetSysClockFreq+0x80>)
      plld = ((uint32_t)(tmpreg & RCC_CFGR_PLLDIV) >> RCC_CFGR_PLLDIV_BITNUMBER) + 1U;
 80023d6:	3001      	adds	r0, #1
        pllvco = (HSI_VALUE * pllm) / plld;
 80023d8:	4363      	muls	r3, r4
 80023da:	fbb3 f0f0 	udiv	r0, r3, r0
 80023de:	bd10      	pop	{r4, pc}
      msiclkrange = (RCC->ICSCR & RCC_ICSCR_MSIRANGE ) >> RCC_ICSCR_MSIRANGE_BITNUMBER;
 80023e0:	6848      	ldr	r0, [r1, #4]
 80023e2:	f44f 4360 	mov.w	r3, #57344	; 0xe000
 80023e6:	fa93 f3a3 	rbit	r3, r3
 80023ea:	fab3 f383 	clz	r3, r3
 80023ee:	f400 4060 	and.w	r0, r0, #57344	; 0xe000
 80023f2:	40d8      	lsrs	r0, r3
      sysclockfreq = (32768U * (1U << (msiclkrange + 1U)));
 80023f4:	1c43      	adds	r3, r0, #1
 80023f6:	f44f 4000 	mov.w	r0, #32768	; 0x8000
 80023fa:	4098      	lsls	r0, r3
 80023fc:	bd10      	pop	{r4, pc}
 80023fe:	bf00      	nop
 8002400:	40023800 	.word	0x40023800
 8002404:	00f42400 	.word	0x00f42400
 8002408:	007a1200 	.word	0x007a1200
 800240c:	080078e6 	.word	0x080078e6

08002410 <HAL_RCC_ClockConfig>:
  if(FLatency > (FLASH->ACR & FLASH_ACR_LATENCY))
 8002410:	4b6a      	ldr	r3, [pc, #424]	; (80025bc <HAL_RCC_ClockConfig+0x1ac>)
{
 8002412:	e92d 41f0 	stmdb	sp!, {r4, r5, r6, r7, r8, lr}
  if(FLatency > (FLASH->ACR & FLASH_ACR_LATENCY))
 8002416:	681a      	ldr	r2, [r3, #0]
{
 8002418:	4606      	mov	r6, r0
  if(FLatency > (FLASH->ACR & FLASH_ACR_LATENCY))
 800241a:	f002 0201 	and.w	r2, r2, #1
 800241e:	428a      	cmp	r2, r1
{
 8002420:	460d      	mov	r5, r1
  if(FLatency > (FLASH->ACR & FLASH_ACR_LATENCY))
 8002422:	d330      	bcc.n	8002486 <HAL_RCC_ClockConfig+0x76>
  if(((RCC_ClkInitStruct->ClockType) & RCC_CLOCKTYPE_HCLK) == RCC_CLOCKTYPE_HCLK)
 8002424:	6832      	ldr	r2, [r6, #0]
 8002426:	0794      	lsls	r4, r2, #30
 8002428:	d440      	bmi.n	80024ac <HAL_RCC_ClockConfig+0x9c>
  if(((RCC_ClkInitStruct->ClockType) & RCC_CLOCKTYPE_SYSCLK) == RCC_CLOCKTYPE_SYSCLK)
 800242a:	07d0      	lsls	r0, r2, #31
 800242c:	d446      	bmi.n	80024bc <HAL_RCC_ClockConfig+0xac>
  if(FLatency < (FLASH->ACR & FLASH_ACR_LATENCY))
 800242e:	4b63      	ldr	r3, [pc, #396]	; (80025bc <HAL_RCC_ClockConfig+0x1ac>)
 8002430:	681a      	ldr	r2, [r3, #0]
 8002432:	f002 0201 	and.w	r2, r2, #1
 8002436:	4295      	cmp	r5, r2
 8002438:	f0c0 80ae 	bcc.w	8002598 <HAL_RCC_ClockConfig+0x188>
  if(((RCC_ClkInitStruct->ClockType) & RCC_CLOCKTYPE_PCLK1) == RCC_CLOCKTYPE_PCLK1)
 800243c:	6832      	ldr	r2, [r6, #0]
 800243e:	0751      	lsls	r1, r2, #29
 8002440:	f100 80b3 	bmi.w	80025aa <HAL_RCC_ClockConfig+0x19a>
  if(((RCC_ClkInitStruct->ClockType) & RCC_CLOCKTYPE_PCLK2) == RCC_CLOCKTYPE_PCLK2)
 8002444:	0713      	lsls	r3, r2, #28
 8002446:	d507      	bpl.n	8002458 <HAL_RCC_ClockConfig+0x48>
    MODIFY_REG(RCC->CFGR, RCC_CFGR_PPRE2, ((RCC_ClkInitStruct->APB2CLKDivider) << 3U));
 8002448:	4a5d      	ldr	r2, [pc, #372]	; (80025c0 <HAL_RCC_ClockConfig+0x1b0>)
 800244a:	6931      	ldr	r1, [r6, #16]
 800244c:	6893      	ldr	r3, [r2, #8]
 800244e:	f423 5360 	bic.w	r3, r3, #14336	; 0x3800
 8002452:	ea43 03c1 	orr.w	r3, r3, r1, lsl #3
 8002456:	6093      	str	r3, [r2, #8]
  SystemCoreClock = HAL_RCC_GetSysClockFreq() >> AHBPrescTable[(RCC->CFGR & RCC_CFGR_HPRE)>> RCC_CFGR_HPRE_BITNUMBER];
 8002458:	f7ff ff94 	bl	8002384 <HAL_RCC_GetSysClockFreq>
 800245c:	4b58      	ldr	r3, [pc, #352]	; (80025c0 <HAL_RCC_ClockConfig+0x1b0>)
 800245e:	22f0      	movs	r2, #240	; 0xf0
 8002460:	689b      	ldr	r3, [r3, #8]
 8002462:	fa92 f2a2 	rbit	r2, r2
 8002466:	fab2 f282 	clz	r2, r2
 800246a:	f003 03f0 	and.w	r3, r3, #240	; 0xf0
 800246e:	40d3      	lsrs	r3, r2
 8002470:	4a54      	ldr	r2, [pc, #336]	; (80025c4 <HAL_RCC_ClockConfig+0x1b4>)
 8002472:	5cd3      	ldrb	r3, [r2, r3]
 8002474:	40d8      	lsrs	r0, r3
 8002476:	4b54      	ldr	r3, [pc, #336]	; (80025c8 <HAL_RCC_ClockConfig+0x1b8>)
 8002478:	6018      	str	r0, [r3, #0]
  HAL_InitTick (TICK_INT_PRIORITY);
 800247a:	2000      	movs	r0, #0
 800247c:	f7fe fe8c 	bl	8001198 <HAL_InitTick>
  return HAL_OK;
 8002480:	2000      	movs	r0, #0
}
 8002482:	e8bd 81f0 	ldmia.w	sp!, {r4, r5, r6, r7, r8, pc}
    __HAL_FLASH_SET_LATENCY(FLatency);
 8002486:	2901      	cmp	r1, #1
 8002488:	bf02      	ittt	eq
 800248a:	681a      	ldreq	r2, [r3, #0]
 800248c:	f042 0204 	orreq.w	r2, r2, #4
 8002490:	601a      	streq	r2, [r3, #0]
 8002492:	681a      	ldr	r2, [r3, #0]
 8002494:	f022 0201 	bic.w	r2, r2, #1
 8002498:	430a      	orrs	r2, r1
 800249a:	601a      	str	r2, [r3, #0]
    if((FLASH->ACR & FLASH_ACR_LATENCY) != FLatency)
 800249c:	681b      	ldr	r3, [r3, #0]
 800249e:	f003 0301 	and.w	r3, r3, #1
 80024a2:	4299      	cmp	r1, r3
 80024a4:	d0be      	beq.n	8002424 <HAL_RCC_ClockConfig+0x14>
      return HAL_ERROR;
 80024a6:	2001      	movs	r0, #1
 80024a8:	e8bd 81f0 	ldmia.w	sp!, {r4, r5, r6, r7, r8, pc}
    MODIFY_REG(RCC->CFGR, RCC_CFGR_HPRE, RCC_ClkInitStruct->AHBCLKDivider);
 80024ac:	4944      	ldr	r1, [pc, #272]	; (80025c0 <HAL_RCC_ClockConfig+0x1b0>)
 80024ae:	68b0      	ldr	r0, [r6, #8]
 80024b0:	688b      	ldr	r3, [r1, #8]
 80024b2:	f023 03f0 	bic.w	r3, r3, #240	; 0xf0
 80024b6:	4303      	orrs	r3, r0
 80024b8:	608b      	str	r3, [r1, #8]
 80024ba:	e7b6      	b.n	800242a <HAL_RCC_ClockConfig+0x1a>
    if(RCC_ClkInitStruct->SYSCLKSource == RCC_SYSCLKSOURCE_HSE)
 80024bc:	6872      	ldr	r2, [r6, #4]
 80024be:	4940      	ldr	r1, [pc, #256]	; (80025c0 <HAL_RCC_ClockConfig+0x1b0>)
 80024c0:	2a02      	cmp	r2, #2
 80024c2:	d10f      	bne.n	80024e4 <HAL_RCC_ClockConfig+0xd4>
 80024c4:	f44f 3300 	mov.w	r3, #131072	; 0x20000
 80024c8:	fa93 f0a3 	rbit	r0, r3
      if(__HAL_RCC_GET_FLAG(RCC_FLAG_MSIRDY) == RESET)
 80024cc:	6808      	ldr	r0, [r1, #0]
 80024ce:	fa93 f3a3 	rbit	r3, r3
 80024d2:	fab3 f383 	clz	r3, r3
 80024d6:	2101      	movs	r1, #1
 80024d8:	f003 031f 	and.w	r3, r3, #31
 80024dc:	fa01 f303 	lsl.w	r3, r1, r3
 80024e0:	4203      	tst	r3, r0
 80024e2:	e013      	b.n	800250c <HAL_RCC_ClockConfig+0xfc>
    else if(RCC_ClkInitStruct->SYSCLKSource == RCC_SYSCLKSOURCE_PLLCLK)
 80024e4:	2a03      	cmp	r2, #3
 80024e6:	d102      	bne.n	80024ee <HAL_RCC_ClockConfig+0xde>
 80024e8:	f04f 7300 	mov.w	r3, #33554432	; 0x2000000
 80024ec:	e7ec      	b.n	80024c8 <HAL_RCC_ClockConfig+0xb8>
    else if(RCC_ClkInitStruct->SYSCLKSource == RCC_SYSCLKSOURCE_HSI)
 80024ee:	2a01      	cmp	r2, #1
 80024f0:	d129      	bne.n	8002546 <HAL_RCC_ClockConfig+0x136>
 80024f2:	2302      	movs	r3, #2
 80024f4:	fa93 f0a3 	rbit	r0, r3
      if(__HAL_RCC_GET_FLAG(RCC_FLAG_HSIRDY) == RESET)
 80024f8:	6809      	ldr	r1, [r1, #0]
 80024fa:	fa93 f3a3 	rbit	r3, r3
 80024fe:	fab3 f383 	clz	r3, r3
 8002502:	f003 031f 	and.w	r3, r3, #31
 8002506:	fa02 f303 	lsl.w	r3, r2, r3
 800250a:	420b      	tst	r3, r1
      if(__HAL_RCC_GET_FLAG(RCC_FLAG_MSIRDY) == RESET)
 800250c:	d0cb      	beq.n	80024a6 <HAL_RCC_ClockConfig+0x96>
    __HAL_RCC_SYSCLK_CONFIG(RCC_ClkInitStruct->SYSCLKSource);
 800250e:	4c2c      	ldr	r4, [pc, #176]	; (80025c0 <HAL_RCC_ClockConfig+0x1b0>)
        if((HAL_GetTick() - tickstart ) > CLOCKSWITCH_TIMEOUT_VALUE)
 8002510:	f241 3888 	movw	r8, #5000	; 0x1388
    __HAL_RCC_SYSCLK_CONFIG(RCC_ClkInitStruct->SYSCLKSource);
 8002514:	68a3      	ldr	r3, [r4, #8]
 8002516:	f023 0303 	bic.w	r3, r3, #3
 800251a:	431a      	orrs	r2, r3
 800251c:	60a2      	str	r2, [r4, #8]
    tickstart = HAL_GetTick();
 800251e:	f7fe fe63 	bl	80011e8 <HAL_GetTick>
    if(RCC_ClkInitStruct->SYSCLKSource == RCC_SYSCLKSOURCE_HSE)
 8002522:	6873      	ldr	r3, [r6, #4]
    tickstart = HAL_GetTick();
 8002524:	4607      	mov	r7, r0
    if(RCC_ClkInitStruct->SYSCLKSource == RCC_SYSCLKSOURCE_HSE)
 8002526:	2b02      	cmp	r3, #2
 8002528:	d110      	bne.n	800254c <HAL_RCC_ClockConfig+0x13c>
      while (__HAL_RCC_GET_SYSCLK_SOURCE() != RCC_SYSCLKSOURCE_STATUS_HSE)
 800252a:	68a3      	ldr	r3, [r4, #8]
 800252c:	f003 030c 	and.w	r3, r3, #12
 8002530:	2b08      	cmp	r3, #8
 8002532:	f43f af7c 	beq.w	800242e <HAL_RCC_ClockConfig+0x1e>
        if((HAL_GetTick() - tickstart ) > CLOCKSWITCH_TIMEOUT_VALUE)
 8002536:	f7fe fe57 	bl	80011e8 <HAL_GetTick>
 800253a:	1bc0      	subs	r0, r0, r7
 800253c:	4540      	cmp	r0, r8
 800253e:	d9f4      	bls.n	800252a <HAL_RCC_ClockConfig+0x11a>
          return HAL_TIMEOUT;
 8002540:	2003      	movs	r0, #3
 8002542:	e8bd 81f0 	ldmia.w	sp!, {r4, r5, r6, r7, r8, pc}
 8002546:	f44f 7300 	mov.w	r3, #512	; 0x200
 800254a:	e7bd      	b.n	80024c8 <HAL_RCC_ClockConfig+0xb8>
    else if(RCC_ClkInitStruct->SYSCLKSource == RCC_SYSCLKSOURCE_PLLCLK)
 800254c:	2b03      	cmp	r3, #3
 800254e:	d10b      	bne.n	8002568 <HAL_RCC_ClockConfig+0x158>
      while (__HAL_RCC_GET_SYSCLK_SOURCE() != RCC_SYSCLKSOURCE_STATUS_PLLCLK)
 8002550:	68a3      	ldr	r3, [r4, #8]
 8002552:	f003 030c 	and.w	r3, r3, #12
 8002556:	2b0c      	cmp	r3, #12
 8002558:	f43f af69 	beq.w	800242e <HAL_RCC_ClockConfig+0x1e>
        if((HAL_GetTick() - tickstart ) > CLOCKSWITCH_TIMEOUT_VALUE)
 800255c:	f7fe fe44 	bl	80011e8 <HAL_GetTick>
 8002560:	1bc0      	subs	r0, r0, r7
 8002562:	4540      	cmp	r0, r8
 8002564:	d9f4      	bls.n	8002550 <HAL_RCC_ClockConfig+0x140>
 8002566:	e7eb      	b.n	8002540 <HAL_RCC_ClockConfig+0x130>
    else if(RCC_ClkInitStruct->SYSCLKSource == RCC_SYSCLKSOURCE_HSI)
 8002568:	2b01      	cmp	r3, #1
 800256a:	d110      	bne.n	800258e <HAL_RCC_ClockConfig+0x17e>
      while (__HAL_RCC_GET_SYSCLK_SOURCE() != RCC_SYSCLKSOURCE_STATUS_HSI)
 800256c:	68a3      	ldr	r3, [r4, #8]
 800256e:	f003 030c 	and.w	r3, r3, #12
 8002572:	2b04      	cmp	r3, #4
 8002574:	f43f af5b 	beq.w	800242e <HAL_RCC_ClockConfig+0x1e>
        if((HAL_GetTick() - tickstart ) > CLOCKSWITCH_TIMEOUT_VALUE)
 8002578:	f7fe fe36 	bl	80011e8 <HAL_GetTick>
 800257c:	1bc0      	subs	r0, r0, r7
 800257e:	4540      	cmp	r0, r8
 8002580:	d9f4      	bls.n	800256c <HAL_RCC_ClockConfig+0x15c>
 8002582:	e7dd      	b.n	8002540 <HAL_RCC_ClockConfig+0x130>
        if((HAL_GetTick() - tickstart ) > CLOCKSWITCH_TIMEOUT_VALUE)
 8002584:	f7fe fe30 	bl	80011e8 <HAL_GetTick>
 8002588:	1bc0      	subs	r0, r0, r7
 800258a:	4540      	cmp	r0, r8
 800258c:	d8d8      	bhi.n	8002540 <HAL_RCC_ClockConfig+0x130>
      while(__HAL_RCC_GET_SYSCLK_SOURCE() != RCC_SYSCLKSOURCE_STATUS_MSI)
 800258e:	68a3      	ldr	r3, [r4, #8]
 8002590:	f013 0f0c 	tst.w	r3, #12
 8002594:	d1f6      	bne.n	8002584 <HAL_RCC_ClockConfig+0x174>
 8002596:	e74a      	b.n	800242e <HAL_RCC_ClockConfig+0x1e>
    __HAL_FLASH_SET_LATENCY(FLatency);
 8002598:	681a      	ldr	r2, [r3, #0]
 800259a:	f022 0201 	bic.w	r2, r2, #1
 800259e:	601a      	str	r2, [r3, #0]
    if((FLASH->ACR & FLASH_ACR_LATENCY) != FLatency)
 80025a0:	681b      	ldr	r3, [r3, #0]
 80025a2:	07da      	lsls	r2, r3, #31
 80025a4:	f53f af7f 	bmi.w	80024a6 <HAL_RCC_ClockConfig+0x96>
 80025a8:	e748      	b.n	800243c <HAL_RCC_ClockConfig+0x2c>
    MODIFY_REG(RCC->CFGR, RCC_CFGR_PPRE1, RCC_ClkInitStruct->APB1CLKDivider);
 80025aa:	4905      	ldr	r1, [pc, #20]	; (80025c0 <HAL_RCC_ClockConfig+0x1b0>)
 80025ac:	68f0      	ldr	r0, [r6, #12]
 80025ae:	688b      	ldr	r3, [r1, #8]
 80025b0:	f423 63e0 	bic.w	r3, r3, #1792	; 0x700
 80025b4:	4303      	orrs	r3, r0
 80025b6:	608b      	str	r3, [r1, #8]
 80025b8:	e744      	b.n	8002444 <HAL_RCC_ClockConfig+0x34>
 80025ba:	bf00      	nop
 80025bc:	40023c00 	.word	0x40023c00
 80025c0:	40023800 	.word	0x40023800
 80025c4:	080078ce 	.word	0x080078ce
 80025c8:	20000004 	.word	0x20000004

080025cc <HAL_RCC_GetHCLKFreq>:
}
 80025cc:	4b01      	ldr	r3, [pc, #4]	; (80025d4 <HAL_RCC_GetHCLKFreq+0x8>)
 80025ce:	6818      	ldr	r0, [r3, #0]
 80025d0:	4770      	bx	lr
 80025d2:	bf00      	nop
 80025d4:	20000004 	.word	0x20000004

080025d8 <HAL_RCC_GetPCLK1Freq>:
  return (HAL_RCC_GetHCLKFreq() >> APBPrescTable[(RCC->CFGR & RCC_CFGR_PPRE1) >> RCC_CFGR_PPRE1_BITNUMBER]);
 80025d8:	4b08      	ldr	r3, [pc, #32]	; (80025fc <HAL_RCC_GetPCLK1Freq+0x24>)
 80025da:	f44f 62e0 	mov.w	r2, #1792	; 0x700
 80025de:	689b      	ldr	r3, [r3, #8]
 80025e0:	fa92 f2a2 	rbit	r2, r2
 80025e4:	fab2 f282 	clz	r2, r2
 80025e8:	f403 63e0 	and.w	r3, r3, #1792	; 0x700
 80025ec:	40d3      	lsrs	r3, r2
 80025ee:	4a04      	ldr	r2, [pc, #16]	; (8002600 <HAL_RCC_GetPCLK1Freq+0x28>)
 80025f0:	5cd3      	ldrb	r3, [r2, r3]
 80025f2:	4a04      	ldr	r2, [pc, #16]	; (8002604 <HAL_RCC_GetPCLK1Freq+0x2c>)
 80025f4:	6810      	ldr	r0, [r2, #0]
}    
 80025f6:	40d8      	lsrs	r0, r3
 80025f8:	4770      	bx	lr
 80025fa:	bf00      	nop
 80025fc:	40023800 	.word	0x40023800
 8002600:	080078de 	.word	0x080078de
 8002604:	20000004 	.word	0x20000004

08002608 <HAL_RCC_GetPCLK2Freq>:
  return (HAL_RCC_GetHCLKFreq()>> APBPrescTable[(RCC->CFGR & RCC_CFGR_PPRE2) >> RCC_CFGR_PPRE2_BITNUMBER]);
 8002608:	4b08      	ldr	r3, [pc, #32]	; (800262c <HAL_RCC_GetPCLK2Freq+0x24>)
 800260a:	f44f 5260 	mov.w	r2, #14336	; 0x3800
 800260e:	689b      	ldr	r3, [r3, #8]
 8002610:	fa92 f2a2 	rbit	r2, r2
 8002614:	fab2 f282 	clz	r2, r2
 8002618:	f403 5360 	and.w	r3, r3, #14336	; 0x3800
 800261c:	40d3      	lsrs	r3, r2
 800261e:	4a04      	ldr	r2, [pc, #16]	; (8002630 <HAL_RCC_GetPCLK2Freq+0x28>)
 8002620:	5cd3      	ldrb	r3, [r2, r3]
 8002622:	4a04      	ldr	r2, [pc, #16]	; (8002634 <HAL_RCC_GetPCLK2Freq+0x2c>)
 8002624:	6810      	ldr	r0, [r2, #0]
} 
 8002626:	40d8      	lsrs	r0, r3
 8002628:	4770      	bx	lr
 800262a:	bf00      	nop
 800262c:	40023800 	.word	0x40023800
 8002630:	080078de 	.word	0x080078de
 8002634:	20000004 	.word	0x20000004

08002638 <TIM_Base_SetConfig>:
{
  uint32_t tmpcr1 = 0;
  tmpcr1 = TIMx->CR1;

  /* Set TIM Time Base Unit parameters ---------------------------------------*/
  if (IS_TIM_COUNTER_MODE_SELECT_INSTANCE(TIMx))
 8002638:	f1b0 4f80 	cmp.w	r0, #1073741824	; 0x40000000
  tmpcr1 = TIMx->CR1;
 800263c:	6803      	ldr	r3, [r0, #0]
  if (IS_TIM_COUNTER_MODE_SELECT_INSTANCE(TIMx))
 800263e:	d00e      	beq.n	800265e <TIM_Base_SetConfig+0x26>
 8002640:	4a1c      	ldr	r2, [pc, #112]	; (80026b4 <TIM_Base_SetConfig+0x7c>)
 8002642:	4290      	cmp	r0, r2
 8002644:	d00b      	beq.n	800265e <TIM_Base_SetConfig+0x26>
 8002646:	f502 6280 	add.w	r2, r2, #1024	; 0x400
 800264a:	4290      	cmp	r0, r2
 800264c:	d007      	beq.n	800265e <TIM_Base_SetConfig+0x26>
 800264e:	f502 6280 	add.w	r2, r2, #1024	; 0x400
 8002652:	4290      	cmp	r0, r2
 8002654:	d003      	beq.n	800265e <TIM_Base_SetConfig+0x26>
 8002656:	f502 427c 	add.w	r2, r2, #64512	; 0xfc00
 800265a:	4290      	cmp	r0, r2
 800265c:	d116      	bne.n	800268c <TIM_Base_SetConfig+0x54>
  {
    /* Select the Counter Mode */
    tmpcr1 &= ~(TIM_CR1_DIR | TIM_CR1_CMS);
    tmpcr1 |= Structure->CounterMode;
 800265e:	684a      	ldr	r2, [r1, #4]
    tmpcr1 &= ~(TIM_CR1_DIR | TIM_CR1_CMS);
 8002660:	f023 0370 	bic.w	r3, r3, #112	; 0x70
  }

  if(IS_TIM_CLOCK_DIVISION_INSTANCE(TIMx))
 8002664:	f1b0 4f80 	cmp.w	r0, #1073741824	; 0x40000000
    tmpcr1 |= Structure->CounterMode;
 8002668:	ea43 0302 	orr.w	r3, r3, r2
  if(IS_TIM_CLOCK_DIVISION_INSTANCE(TIMx))
 800266c:	d015      	beq.n	800269a <TIM_Base_SetConfig+0x62>
 800266e:	4a11      	ldr	r2, [pc, #68]	; (80026b4 <TIM_Base_SetConfig+0x7c>)
 8002670:	4290      	cmp	r0, r2
 8002672:	d012      	beq.n	800269a <TIM_Base_SetConfig+0x62>
 8002674:	f502 6280 	add.w	r2, r2, #1024	; 0x400
 8002678:	4290      	cmp	r0, r2
 800267a:	d00e      	beq.n	800269a <TIM_Base_SetConfig+0x62>
 800267c:	f502 6280 	add.w	r2, r2, #1024	; 0x400
 8002680:	4290      	cmp	r0, r2
 8002682:	d00a      	beq.n	800269a <TIM_Base_SetConfig+0x62>
 8002684:	f502 427c 	add.w	r2, r2, #64512	; 0xfc00
 8002688:	4290      	cmp	r0, r2
 800268a:	d006      	beq.n	800269a <TIM_Base_SetConfig+0x62>
 800268c:	4a0a      	ldr	r2, [pc, #40]	; (80026b8 <TIM_Base_SetConfig+0x80>)
 800268e:	4290      	cmp	r0, r2
 8002690:	d003      	beq.n	800269a <TIM_Base_SetConfig+0x62>
 8002692:	f502 6280 	add.w	r2, r2, #1024	; 0x400
 8002696:	4290      	cmp	r0, r2
 8002698:	d103      	bne.n	80026a2 <TIM_Base_SetConfig+0x6a>
  {
    /* Set the clock division */
    tmpcr1 &= ~TIM_CR1_CKD;
    tmpcr1 |= (uint32_t)Structure->ClockDivision;
 800269a:	68ca      	ldr	r2, [r1, #12]
    tmpcr1 &= ~TIM_CR1_CKD;
 800269c:	f423 7340 	bic.w	r3, r3, #768	; 0x300
    tmpcr1 |= (uint32_t)Structure->ClockDivision;
 80026a0:	4313      	orrs	r3, r2
  }

  TIMx->CR1 = tmpcr1;
 80026a2:	6003      	str	r3, [r0, #0]

  /* Set the Autoreload value */
  TIMx->ARR = (uint32_t)Structure->Period ;
 80026a4:	688b      	ldr	r3, [r1, #8]
 80026a6:	62c3      	str	r3, [r0, #44]	; 0x2c

  /* Set the Prescaler value */
  TIMx->PSC = (uint32_t)Structure->Prescaler;
 80026a8:	680b      	ldr	r3, [r1, #0]
 80026aa:	6283      	str	r3, [r0, #40]	; 0x28

  /* Generate an update event to reload the Prescaler */
  TIMx->EGR = TIM_EGR_UG;
 80026ac:	2301      	movs	r3, #1
 80026ae:	6143      	str	r3, [r0, #20]
 80026b0:	4770      	bx	lr
 80026b2:	bf00      	nop
 80026b4:	40000400 	.word	0x40000400
 80026b8:	40010c00 	.word	0x40010c00

080026bc <TIM_OC1_SetConfig>:
  uint32_t tmpccmrx = 0;
  uint32_t tmpccer = 0;
  uint32_t tmpcr2 = 0;

   /* Disable the Channel 1: Reset the CC1E Bit */
  TIMx->CCER &= ~TIM_CCER_CC1E;
 80026bc:	6a03      	ldr	r3, [r0, #32]
{
 80026be:	b530      	push	{r4, r5, lr}
  TIMx->CCER &= ~TIM_CCER_CC1E;
 80026c0:	f023 0301 	bic.w	r3, r3, #1
 80026c4:	6203      	str	r3, [r0, #32]

  /* Get the TIMx CCER register value */
  tmpccer = TIMx->CCER;
 80026c6:	6a03      	ldr	r3, [r0, #32]
  /* Get the TIMx CR2 register value */
  tmpcr2 =  TIMx->CR2;
 80026c8:	6844      	ldr	r4, [r0, #4]

  /* Get the TIMx CCMR1 register value */
  tmpccmrx = TIMx->CCMR1;
 80026ca:	6982      	ldr	r2, [r0, #24]

  /* Reset the Output Compare Mode Bits */
  tmpccmrx &= ~TIM_CCMR1_OC1M;
  tmpccmrx &= ~TIM_CCMR1_CC1S;
  /* Select the Output Compare Mode */
  tmpccmrx |= OC_Config->OCMode;
 80026cc:	680d      	ldr	r5, [r1, #0]
  tmpccmrx &= ~TIM_CCMR1_CC1S;
 80026ce:	f022 0273 	bic.w	r2, r2, #115	; 0x73
  tmpccmrx |= OC_Config->OCMode;
 80026d2:	432a      	orrs	r2, r5

  /* Reset the Output Polarity level */
  tmpccer &= ~TIM_CCER_CC1P;
  /* Set the Output Compare Polarity */
  tmpccer |= OC_Config->OCPolarity;
 80026d4:	688d      	ldr	r5, [r1, #8]
  tmpccer &= ~TIM_CCER_CC1P;
 80026d6:	f023 0302 	bic.w	r3, r3, #2

  /* Write to TIMx CR2 */
  TIMx->CR2 = tmpcr2;
 80026da:	6044      	str	r4, [r0, #4]

  /* Write to TIMx CCMR1 */
  TIMx->CCMR1 = tmpccmrx;
 80026dc:	6182      	str	r2, [r0, #24]

  /* Set the Capture Compare Register value */
  TIMx->CCR1 = OC_Config->Pulse;
 80026de:	684a      	ldr	r2, [r1, #4]
  tmpccer |= OC_Config->OCPolarity;
 80026e0:	432b      	orrs	r3, r5
  TIMx->CCR1 = OC_Config->Pulse;
 80026e2:	6342      	str	r2, [r0, #52]	; 0x34

  /* Write to TIMx CCER */
  TIMx->CCER = tmpccer;
 80026e4:	6203      	str	r3, [r0, #32]
 80026e6:	bd30      	pop	{r4, r5, pc}

080026e8 <TIM_OC2_SetConfig>:
  uint32_t tmpccmrx = 0;
  uint32_t tmpccer = 0;
  uint32_t tmpcr2 = 0;

  /* Disable the Channel 2: Reset the CC2E Bit */
  TIMx->CCER &= ~TIM_CCER_CC2E;
 80026e8:	6a03      	ldr	r3, [r0, #32]
{
 80026ea:	b530      	push	{r4, r5, lr}
  TIMx->CCER &= ~TIM_CCER_CC2E;
 80026ec:	f023 0310 	bic.w	r3, r3, #16
 80026f0:	6203      	str	r3, [r0, #32]

  /* Get the TIMx CCER register value */
  tmpccer = TIMx->CCER;
 80026f2:	6a03      	ldr	r3, [r0, #32]
  /* Get the TIMx CR2 register value */
  tmpcr2 =  TIMx->CR2;
 80026f4:	6844      	ldr	r4, [r0, #4]

  /* Get the TIMx CCMR1 register value */
  tmpccmrx = TIMx->CCMR1;
 80026f6:	6982      	ldr	r2, [r0, #24]
  /* Reset the Output Compare mode and Capture/Compare selection Bits */
  tmpccmrx &= ~TIM_CCMR1_OC2M;
  tmpccmrx &= ~TIM_CCMR1_CC2S;

  /* Select the Output Compare Mode */
  tmpccmrx |= (OC_Config->OCMode << 8);
 80026f8:	680d      	ldr	r5, [r1, #0]
  tmpccmrx &= ~TIM_CCMR1_CC2S;
 80026fa:	f422 42e6 	bic.w	r2, r2, #29440	; 0x7300
  tmpccmrx |= (OC_Config->OCMode << 8);
 80026fe:	ea42 2205 	orr.w	r2, r2, r5, lsl #8

  /* Reset the Output Polarity level */
  tmpccer &= ~TIM_CCER_CC2P;
  /* Set the Output Compare Polarity */
  tmpccer |= (OC_Config->OCPolarity << 4);
 8002702:	688d      	ldr	r5, [r1, #8]
  tmpccer &= ~TIM_CCER_CC2P;
 8002704:	f023 0320 	bic.w	r3, r3, #32

  /* Write to TIMx CR2 */
  TIMx->CR2 = tmpcr2;
 8002708:	6044      	str	r4, [r0, #4]

  /* Write to TIMx CCMR1 */
  TIMx->CCMR1 = tmpccmrx;
 800270a:	6182      	str	r2, [r0, #24]

  /* Set the Capture Compare Register value */
  TIMx->CCR2 = OC_Config->Pulse;
 800270c:	684a      	ldr	r2, [r1, #4]
  tmpccer |= (OC_Config->OCPolarity << 4);
 800270e:	ea43 1305 	orr.w	r3, r3, r5, lsl #4
  TIMx->CCR2 = OC_Config->Pulse;
 8002712:	6382      	str	r2, [r0, #56]	; 0x38

  /* Write to TIMx CCER */
  TIMx->CCER = tmpccer;
 8002714:	6203      	str	r3, [r0, #32]
 8002716:	bd30      	pop	{r4, r5, pc}

08002718 <TIM_TI1_SetConfig>:
  *       (on channel2 path) is used as the input signal. Therefore CCMR1 must be 
  *        protected against un-initialized filter and polarity values.
  */
static void TIM_TI1_SetConfig(TIM_TypeDef *TIMx, uint32_t TIM_ICPolarity, uint32_t TIM_ICSelection,
                       uint32_t TIM_ICFilter)
{
 8002718:	b570      	push	{r4, r5, r6, lr}
  uint32_t tmpccmr1 = 0;
  uint32_t tmpccer = 0;

  /* Disable the Channel 1: Reset the CC1E Bit */
  TIMx->CCER &= ~TIM_CCER_CC1E;
 800271a:	6a04      	ldr	r4, [r0, #32]
  tmpccmr1 = TIMx->CCMR1;
  tmpccer = TIMx->CCER;

  /* Select the Input */
  if(IS_TIM_CC2_INSTANCE(TIMx) != RESET)
 800271c:	f1b0 4f80 	cmp.w	r0, #1073741824	; 0x40000000
  TIMx->CCER &= ~TIM_CCER_CC1E;
 8002720:	f024 0401 	bic.w	r4, r4, #1
 8002724:	6204      	str	r4, [r0, #32]
  tmpccmr1 = TIMx->CCMR1;
 8002726:	6984      	ldr	r4, [r0, #24]
  tmpccer = TIMx->CCER;
 8002728:	6a05      	ldr	r5, [r0, #32]
  if(IS_TIM_CC2_INSTANCE(TIMx) != RESET)
 800272a:	d00e      	beq.n	800274a <TIM_TI1_SetConfig+0x32>
 800272c:	4e10      	ldr	r6, [pc, #64]	; (8002770 <TIM_TI1_SetConfig+0x58>)
 800272e:	42b0      	cmp	r0, r6
 8002730:	d00b      	beq.n	800274a <TIM_TI1_SetConfig+0x32>
 8002732:	f506 6680 	add.w	r6, r6, #1024	; 0x400
 8002736:	42b0      	cmp	r0, r6
 8002738:	d007      	beq.n	800274a <TIM_TI1_SetConfig+0x32>
 800273a:	f506 6680 	add.w	r6, r6, #1024	; 0x400
 800273e:	42b0      	cmp	r0, r6
 8002740:	d003      	beq.n	800274a <TIM_TI1_SetConfig+0x32>
 8002742:	f506 467c 	add.w	r6, r6, #64512	; 0xfc00
 8002746:	42b0      	cmp	r0, r6
 8002748:	d10f      	bne.n	800276a <TIM_TI1_SetConfig+0x52>
  {
    tmpccmr1 &= ~TIM_CCMR1_CC1S;
 800274a:	f024 0403 	bic.w	r4, r4, #3
    tmpccmr1 |= TIM_ICSelection;
 800274e:	4322      	orrs	r2, r4
    tmpccmr1 |= TIM_CCMR1_CC1S_0;
  }

  /* Set the filter */
  tmpccmr1 &= ~TIM_CCMR1_IC1F;
  tmpccmr1 |= ((TIM_ICFilter << 4) & TIM_CCMR1_IC1F);
 8002750:	011b      	lsls	r3, r3, #4
  tmpccmr1 &= ~TIM_CCMR1_IC1F;
 8002752:	f022 02f0 	bic.w	r2, r2, #240	; 0xf0
  tmpccmr1 |= ((TIM_ICFilter << 4) & TIM_CCMR1_IC1F);
 8002756:	b2db      	uxtb	r3, r3

  /* Select the Polarity and set the CC1E Bit */
  tmpccer &= ~(TIM_CCER_CC1P | TIM_CCER_CC1NP);
 8002758:	f025 050a 	bic.w	r5, r5, #10
  tmpccer |= (TIM_ICPolarity & (TIM_CCER_CC1P | TIM_CCER_CC1NP));
 800275c:	f001 010a 	and.w	r1, r1, #10
  tmpccmr1 |= ((TIM_ICFilter << 4) & TIM_CCMR1_IC1F);
 8002760:	431a      	orrs	r2, r3
  tmpccer |= (TIM_ICPolarity & (TIM_CCER_CC1P | TIM_CCER_CC1NP));
 8002762:	4329      	orrs	r1, r5

  /* Write to TIMx CCMR1 and CCER registers */
  TIMx->CCMR1 = tmpccmr1;
 8002764:	6182      	str	r2, [r0, #24]
  TIMx->CCER = tmpccer;
 8002766:	6201      	str	r1, [r0, #32]
}
 8002768:	bd70      	pop	{r4, r5, r6, pc}
    tmpccmr1 |= TIM_CCMR1_CC1S_0;
 800276a:	f044 0201 	orr.w	r2, r4, #1
 800276e:	e7ef      	b.n	8002750 <TIM_TI1_SetConfig+0x38>
 8002770:	40000400 	.word	0x40000400

08002774 <TIM_CCxChannelCmd>:
  * @param  ChannelState: specifies the TIM Channel CCxE bit new state.
  *          This parameter can be: TIM_CCx_ENABLE or TIM_CCx_Disable.
  * @retval None
  */
static void TIM_CCxChannelCmd(TIM_TypeDef* TIMx, uint32_t Channel, uint32_t ChannelState)
{
 8002774:	b510      	push	{r4, lr}

  /* Check the parameters */
  assert_param(IS_TIM_CC1_INSTANCE(TIMx));
  assert_param(IS_TIM_CHANNELS(Channel));

  tmp = TIM_CCER_CC1E << Channel;
 8002776:	2401      	movs	r4, #1

  /* Reset the CCxE Bit */
  TIMx->CCER &= ~tmp;
 8002778:	6a03      	ldr	r3, [r0, #32]
  tmp = TIM_CCER_CC1E << Channel;
 800277a:	408c      	lsls	r4, r1
  TIMx->CCER &= ~tmp;
 800277c:	ea23 0304 	bic.w	r3, r3, r4
 8002780:	6203      	str	r3, [r0, #32]

  /* Set or reset the CCxE Bit */
  TIMx->CCER |=  (uint32_t)(ChannelState << Channel);
 8002782:	6a03      	ldr	r3, [r0, #32]
 8002784:	408a      	lsls	r2, r1
 8002786:	431a      	orrs	r2, r3
 8002788:	6202      	str	r2, [r0, #32]
 800278a:	bd10      	pop	{r4, pc}

0800278c <HAL_TIM_Base_Init>:
{
 800278c:	b510      	push	{r4, lr}
  if(htim == NULL)
 800278e:	4604      	mov	r4, r0
 8002790:	b1a0      	cbz	r0, 80027bc <HAL_TIM_Base_Init+0x30>
  if(htim->State == HAL_TIM_STATE_RESET)
 8002792:	f890 3035 	ldrb.w	r3, [r0, #53]	; 0x35
 8002796:	f003 02ff 	and.w	r2, r3, #255	; 0xff
 800279a:	b91b      	cbnz	r3, 80027a4 <HAL_TIM_Base_Init+0x18>
    htim->Lock = HAL_UNLOCKED;
 800279c:	f880 2034 	strb.w	r2, [r0, #52]	; 0x34
    HAL_TIM_Base_MspInit(htim);
 80027a0:	f002 fb06 	bl	8004db0 <HAL_TIM_Base_MspInit>
  htim->State= HAL_TIM_STATE_BUSY;
 80027a4:	2302      	movs	r3, #2
  TIM_Base_SetConfig(htim->Instance, &htim->Init);
 80027a6:	6820      	ldr	r0, [r4, #0]
  htim->State= HAL_TIM_STATE_BUSY;
 80027a8:	f884 3035 	strb.w	r3, [r4, #53]	; 0x35
  TIM_Base_SetConfig(htim->Instance, &htim->Init);
 80027ac:	1d21      	adds	r1, r4, #4
 80027ae:	f7ff ff43 	bl	8002638 <TIM_Base_SetConfig>
  htim->State= HAL_TIM_STATE_READY;
 80027b2:	2301      	movs	r3, #1
  return HAL_OK;
 80027b4:	2000      	movs	r0, #0
  htim->State= HAL_TIM_STATE_READY;
 80027b6:	f884 3035 	strb.w	r3, [r4, #53]	; 0x35
  return HAL_OK;
 80027ba:	bd10      	pop	{r4, pc}
    return HAL_ERROR;
 80027bc:	2001      	movs	r0, #1
}
 80027be:	bd10      	pop	{r4, pc}

080027c0 <HAL_TIM_Base_Start_IT>:
   __HAL_TIM_ENABLE_IT(htim, TIM_IT_UPDATE);
 80027c0:	6803      	ldr	r3, [r0, #0]
}
 80027c2:	2000      	movs	r0, #0
   __HAL_TIM_ENABLE_IT(htim, TIM_IT_UPDATE);
 80027c4:	68da      	ldr	r2, [r3, #12]
 80027c6:	f042 0201 	orr.w	r2, r2, #1
 80027ca:	60da      	str	r2, [r3, #12]
  __HAL_TIM_ENABLE(htim);
 80027cc:	681a      	ldr	r2, [r3, #0]
 80027ce:	f042 0201 	orr.w	r2, r2, #1
 80027d2:	601a      	str	r2, [r3, #0]
}
 80027d4:	4770      	bx	lr

080027d6 <HAL_TIM_PWM_MspInit>:
 80027d6:	4770      	bx	lr

080027d8 <HAL_TIM_PWM_Init>:
{
 80027d8:	b510      	push	{r4, lr}
  if(htim == NULL)
 80027da:	4604      	mov	r4, r0
 80027dc:	b1a0      	cbz	r0, 8002808 <HAL_TIM_PWM_Init+0x30>
  if(htim->State == HAL_TIM_STATE_RESET)
 80027de:	f890 3035 	ldrb.w	r3, [r0, #53]	; 0x35
 80027e2:	f003 02ff 	and.w	r2, r3, #255	; 0xff
 80027e6:	b91b      	cbnz	r3, 80027f0 <HAL_TIM_PWM_Init+0x18>
    htim->Lock = HAL_UNLOCKED;
 80027e8:	f880 2034 	strb.w	r2, [r0, #52]	; 0x34
    HAL_TIM_PWM_MspInit(htim);
 80027ec:	f7ff fff3 	bl	80027d6 <HAL_TIM_PWM_MspInit>
  htim->State= HAL_TIM_STATE_BUSY;
 80027f0:	2302      	movs	r3, #2
  TIM_Base_SetConfig(htim->Instance, &htim->Init);
 80027f2:	6820      	ldr	r0, [r4, #0]
  htim->State= HAL_TIM_STATE_BUSY;
 80027f4:	f884 3035 	strb.w	r3, [r4, #53]	; 0x35
  TIM_Base_SetConfig(htim->Instance, &htim->Init);
 80027f8:	1d21      	adds	r1, r4, #4
 80027fa:	f7ff ff1d 	bl	8002638 <TIM_Base_SetConfig>
  htim->State= HAL_TIM_STATE_READY;
 80027fe:	2301      	movs	r3, #1
  return HAL_OK;
 8002800:	2000      	movs	r0, #0
  htim->State= HAL_TIM_STATE_READY;
 8002802:	f884 3035 	strb.w	r3, [r4, #53]	; 0x35
  return HAL_OK;
 8002806:	bd10      	pop	{r4, pc}
    return HAL_ERROR;
 8002808:	2001      	movs	r0, #1
}
 800280a:	bd10      	pop	{r4, pc}

0800280c <HAL_TIM_IC_MspInit>:
 800280c:	4770      	bx	lr

0800280e <HAL_TIM_IC_Init>:
{
 800280e:	b510      	push	{r4, lr}
  if(htim == NULL)
 8002810:	4604      	mov	r4, r0
 8002812:	b1a0      	cbz	r0, 800283e <HAL_TIM_IC_Init+0x30>
  if(htim->State == HAL_TIM_STATE_RESET)
 8002814:	f890 3035 	ldrb.w	r3, [r0, #53]	; 0x35
 8002818:	f003 02ff 	and.w	r2, r3, #255	; 0xff
 800281c:	b91b      	cbnz	r3, 8002826 <HAL_TIM_IC_Init+0x18>
    htim->Lock = HAL_UNLOCKED;
 800281e:	f880 2034 	strb.w	r2, [r0, #52]	; 0x34
    HAL_TIM_IC_MspInit(htim);
 8002822:	f7ff fff3 	bl	800280c <HAL_TIM_IC_MspInit>
  htim->State= HAL_TIM_STATE_BUSY;
 8002826:	2302      	movs	r3, #2
  TIM_Base_SetConfig(htim->Instance, &htim->Init);
 8002828:	6820      	ldr	r0, [r4, #0]
  htim->State= HAL_TIM_STATE_BUSY;
 800282a:	f884 3035 	strb.w	r3, [r4, #53]	; 0x35
  TIM_Base_SetConfig(htim->Instance, &htim->Init);
 800282e:	1d21      	adds	r1, r4, #4
 8002830:	f7ff ff02 	bl	8002638 <TIM_Base_SetConfig>
  htim->State= HAL_TIM_STATE_READY;
 8002834:	2301      	movs	r3, #1
  return HAL_OK;
 8002836:	2000      	movs	r0, #0
  htim->State= HAL_TIM_STATE_READY;
 8002838:	f884 3035 	strb.w	r3, [r4, #53]	; 0x35
  return HAL_OK;
 800283c:	bd10      	pop	{r4, pc}
    return HAL_ERROR;
 800283e:	2001      	movs	r0, #1
}
 8002840:	bd10      	pop	{r4, pc}

08002842 <HAL_TIM_IC_Start>:
{
 8002842:	b510      	push	{r4, lr}
 8002844:	4604      	mov	r4, r0
  TIM_CCxChannelCmd(htim->Instance, Channel, TIM_CCx_ENABLE);
 8002846:	2201      	movs	r2, #1
 8002848:	6800      	ldr	r0, [r0, #0]
 800284a:	f7ff ff93 	bl	8002774 <TIM_CCxChannelCmd>
  __HAL_TIM_ENABLE(htim);
 800284e:	6822      	ldr	r2, [r4, #0]
}
 8002850:	2000      	movs	r0, #0
  __HAL_TIM_ENABLE(htim);
 8002852:	6813      	ldr	r3, [r2, #0]
 8002854:	f043 0301 	orr.w	r3, r3, #1
 8002858:	6013      	str	r3, [r2, #0]
}
 800285a:	bd10      	pop	{r4, pc}

0800285c <HAL_TIM_PWM_Start>:
 800285c:	f7ff bff1 	b.w	8002842 <HAL_TIM_IC_Start>

08002860 <HAL_TIM_IC_Start_IT>:
{
 8002860:	b510      	push	{r4, lr}
 8002862:	4604      	mov	r4, r0
  switch (Channel)
 8002864:	290c      	cmp	r1, #12
 8002866:	d80d      	bhi.n	8002884 <HAL_TIM_IC_Start_IT+0x24>
 8002868:	e8df f001 	tbb	[pc, r1]
 800286c:	0c0c0c07 	.word	0x0c0c0c07
 8002870:	0c0c0c17 	.word	0x0c0c0c17
 8002874:	0c0c0c1c 	.word	0x0c0c0c1c
 8002878:	21          	.byte	0x21
 8002879:	00          	.byte	0x00
      __HAL_TIM_ENABLE_IT(htim, TIM_IT_CC1);
 800287a:	6802      	ldr	r2, [r0, #0]
 800287c:	68d3      	ldr	r3, [r2, #12]
 800287e:	f043 0302 	orr.w	r3, r3, #2
      __HAL_TIM_ENABLE_IT(htim, TIM_IT_CC4);
 8002882:	60d3      	str	r3, [r2, #12]
  TIM_CCxChannelCmd(htim->Instance, Channel, TIM_CCx_ENABLE);
 8002884:	6820      	ldr	r0, [r4, #0]
 8002886:	2201      	movs	r2, #1
 8002888:	f7ff ff74 	bl	8002774 <TIM_CCxChannelCmd>
  __HAL_TIM_ENABLE(htim);
 800288c:	6822      	ldr	r2, [r4, #0]
}
 800288e:	2000      	movs	r0, #0
  __HAL_TIM_ENABLE(htim);
 8002890:	6813      	ldr	r3, [r2, #0]
 8002892:	f043 0301 	orr.w	r3, r3, #1
 8002896:	6013      	str	r3, [r2, #0]
}
 8002898:	bd10      	pop	{r4, pc}
      __HAL_TIM_ENABLE_IT(htim, TIM_IT_CC2);
 800289a:	6802      	ldr	r2, [r0, #0]
 800289c:	68d3      	ldr	r3, [r2, #12]
 800289e:	f043 0304 	orr.w	r3, r3, #4
 80028a2:	e7ee      	b.n	8002882 <HAL_TIM_IC_Start_IT+0x22>
      __HAL_TIM_ENABLE_IT(htim, TIM_IT_CC3);
 80028a4:	6802      	ldr	r2, [r0, #0]
 80028a6:	68d3      	ldr	r3, [r2, #12]
 80028a8:	f043 0308 	orr.w	r3, r3, #8
 80028ac:	e7e9      	b.n	8002882 <HAL_TIM_IC_Start_IT+0x22>
      __HAL_TIM_ENABLE_IT(htim, TIM_IT_CC4);
 80028ae:	6802      	ldr	r2, [r0, #0]
 80028b0:	68d3      	ldr	r3, [r2, #12]
 80028b2:	f043 0310 	orr.w	r3, r3, #16
 80028b6:	e7e4      	b.n	8002882 <HAL_TIM_IC_Start_IT+0x22>

080028b8 <HAL_TIM_Encoder_Init>:
{
 80028b8:	b5f8      	push	{r3, r4, r5, r6, r7, lr}
 80028ba:	460c      	mov	r4, r1
  if(htim == NULL)
 80028bc:	4605      	mov	r5, r0
 80028be:	2800      	cmp	r0, #0
 80028c0:	d041      	beq.n	8002946 <HAL_TIM_Encoder_Init+0x8e>
  if(htim->State == HAL_TIM_STATE_RESET)
 80028c2:	f890 3035 	ldrb.w	r3, [r0, #53]	; 0x35
 80028c6:	f003 02ff 	and.w	r2, r3, #255	; 0xff
 80028ca:	b91b      	cbnz	r3, 80028d4 <HAL_TIM_Encoder_Init+0x1c>
    htim->Lock = HAL_UNLOCKED;
 80028cc:	f880 2034 	strb.w	r2, [r0, #52]	; 0x34
    HAL_TIM_Encoder_MspInit(htim);
 80028d0:	f002 fa2c 	bl	8004d2c <HAL_TIM_Encoder_MspInit>
  htim->Instance->SMCR &= ~TIM_SMCR_SMS;
 80028d4:	4629      	mov	r1, r5
  htim->State= HAL_TIM_STATE_BUSY;
 80028d6:	2302      	movs	r3, #2
  htim->Instance->SMCR &= ~TIM_SMCR_SMS;
 80028d8:	f851 0b04 	ldr.w	r0, [r1], #4
  htim->State= HAL_TIM_STATE_BUSY;
 80028dc:	f885 3035 	strb.w	r3, [r5, #53]	; 0x35
  htim->Instance->SMCR &= ~TIM_SMCR_SMS;
 80028e0:	6883      	ldr	r3, [r0, #8]
 80028e2:	f023 0307 	bic.w	r3, r3, #7
 80028e6:	6083      	str	r3, [r0, #8]
  TIM_Base_SetConfig(htim->Instance, &htim->Init);
 80028e8:	f7ff fea6 	bl	8002638 <TIM_Base_SetConfig>
  tmpsmcr = htim->Instance->SMCR;
 80028ec:	6828      	ldr	r0, [r5, #0]
  tmpsmcr |= sConfig->EncoderMode;
 80028ee:	6823      	ldr	r3, [r4, #0]
  tmpsmcr = htim->Instance->SMCR;
 80028f0:	6886      	ldr	r6, [r0, #8]
  tmpccmr1 = htim->Instance->CCMR1;
 80028f2:	6982      	ldr	r2, [r0, #24]
  tmpccmr1 |= (sConfig->IC1Selection | (sConfig->IC2Selection << 8));
 80028f4:	68a1      	ldr	r1, [r4, #8]
  tmpsmcr |= sConfig->EncoderMode;
 80028f6:	431e      	orrs	r6, r3
  tmpccmr1 |= (sConfig->IC1Selection | (sConfig->IC2Selection << 8));
 80028f8:	69a3      	ldr	r3, [r4, #24]
  tmpccmr1 &= ~(TIM_CCMR1_CC1S | TIM_CCMR1_CC2S);
 80028fa:	f422 7240 	bic.w	r2, r2, #768	; 0x300
 80028fe:	f022 0203 	bic.w	r2, r2, #3
  tmpccmr1 |= (sConfig->IC1Selection | (sConfig->IC2Selection << 8));
 8002902:	ea41 2303 	orr.w	r3, r1, r3, lsl #8
 8002906:	4313      	orrs	r3, r2
  tmpccmr1 &= ~(TIM_CCMR1_IC1F | TIM_CCMR1_IC2F);
 8002908:	f423 427c 	bic.w	r2, r3, #64512	; 0xfc00
  tmpccmr1 |= (sConfig->IC1Filter << 4) | (sConfig->IC2Filter << 12);
 800290c:	6923      	ldr	r3, [r4, #16]
  tmpccmr1 |= sConfig->IC1Prescaler | (sConfig->IC2Prescaler << 8);
 800290e:	69e1      	ldr	r1, [r4, #28]
  tmpccmr1 |= (sConfig->IC1Filter << 4) | (sConfig->IC2Filter << 12);
 8002910:	011b      	lsls	r3, r3, #4
 8002912:	ea43 2301 	orr.w	r3, r3, r1, lsl #8
 8002916:	68e1      	ldr	r1, [r4, #12]
  tmpccer = htim->Instance->CCER;
 8002918:	6a07      	ldr	r7, [r0, #32]
  tmpccmr1 |= (sConfig->IC1Filter << 4) | (sConfig->IC2Filter << 12);
 800291a:	430b      	orrs	r3, r1
 800291c:	6a21      	ldr	r1, [r4, #32]
  tmpccmr1 &= ~(TIM_CCMR1_IC1F | TIM_CCMR1_IC2F);
 800291e:	f022 02fc 	bic.w	r2, r2, #252	; 0xfc
  tmpccmr1 |= (sConfig->IC1Filter << 4) | (sConfig->IC2Filter << 12);
 8002922:	ea43 3301 	orr.w	r3, r3, r1, lsl #12
 8002926:	4313      	orrs	r3, r2
  tmpccer |= sConfig->IC1Polarity | (sConfig->IC2Polarity << 4);
 8002928:	6961      	ldr	r1, [r4, #20]
  tmpccer &= ~(TIM_CCER_CC1NP | TIM_CCER_CC2NP);
 800292a:	f027 02aa 	bic.w	r2, r7, #170	; 0xaa
  tmpccer |= sConfig->IC1Polarity | (sConfig->IC2Polarity << 4);
 800292e:	6867      	ldr	r7, [r4, #4]
  htim->Instance->SMCR = tmpsmcr;
 8002930:	6086      	str	r6, [r0, #8]
  htim->Instance->CCMR1 = tmpccmr1;
 8002932:	6183      	str	r3, [r0, #24]
  htim->State= HAL_TIM_STATE_READY;
 8002934:	2301      	movs	r3, #1
  tmpccer |= sConfig->IC1Polarity | (sConfig->IC2Polarity << 4);
 8002936:	ea47 1701 	orr.w	r7, r7, r1, lsl #4
 800293a:	4317      	orrs	r7, r2
  htim->Instance->CCER = tmpccer;
 800293c:	6207      	str	r7, [r0, #32]
  htim->State= HAL_TIM_STATE_READY;
 800293e:	f885 3035 	strb.w	r3, [r5, #53]	; 0x35
  return HAL_OK;
 8002942:	2000      	movs	r0, #0
 8002944:	bdf8      	pop	{r3, r4, r5, r6, r7, pc}
    return HAL_ERROR;
 8002946:	2001      	movs	r0, #1
}
 8002948:	bdf8      	pop	{r3, r4, r5, r6, r7, pc}

0800294a <HAL_TIM_Encoder_Start>:
{
 800294a:	6803      	ldr	r3, [r0, #0]
  switch (Channel)
 800294c:	b189      	cbz	r1, 8002972 <HAL_TIM_Encoder_Start+0x28>
 800294e:	2904      	cmp	r1, #4
 8002950:	d007      	beq.n	8002962 <HAL_TIM_Encoder_Start+0x18>
  TIMx->CCER &= ~tmp;
 8002952:	6a1a      	ldr	r2, [r3, #32]
 8002954:	f022 0201 	bic.w	r2, r2, #1
 8002958:	621a      	str	r2, [r3, #32]
  TIMx->CCER |=  (uint32_t)(ChannelState << Channel);
 800295a:	6a1a      	ldr	r2, [r3, #32]
 800295c:	f042 0201 	orr.w	r2, r2, #1
 8002960:	621a      	str	r2, [r3, #32]
  TIMx->CCER &= ~tmp;
 8002962:	6a1a      	ldr	r2, [r3, #32]
 8002964:	f022 0210 	bic.w	r2, r2, #16
 8002968:	621a      	str	r2, [r3, #32]
  TIMx->CCER |=  (uint32_t)(ChannelState << Channel);
 800296a:	6a1a      	ldr	r2, [r3, #32]
 800296c:	f042 0210 	orr.w	r2, r2, #16
 8002970:	e006      	b.n	8002980 <HAL_TIM_Encoder_Start+0x36>
  TIMx->CCER &= ~tmp;
 8002972:	6a1a      	ldr	r2, [r3, #32]
 8002974:	f022 0201 	bic.w	r2, r2, #1
 8002978:	621a      	str	r2, [r3, #32]
  TIMx->CCER |=  (uint32_t)(ChannelState << Channel);
 800297a:	6a1a      	ldr	r2, [r3, #32]
 800297c:	f042 0201 	orr.w	r2, r2, #1
 8002980:	621a      	str	r2, [r3, #32]
  __HAL_TIM_ENABLE(htim);
 8002982:	681a      	ldr	r2, [r3, #0]
}
 8002984:	2000      	movs	r0, #0
  __HAL_TIM_ENABLE(htim);
 8002986:	f042 0201 	orr.w	r2, r2, #1
 800298a:	601a      	str	r2, [r3, #0]
}
 800298c:	4770      	bx	lr

0800298e <HAL_TIM_IC_ConfigChannel>:
{
 800298e:	b5f8      	push	{r3, r4, r5, r6, r7, lr}
  __HAL_LOCK(htim);
 8002990:	f890 3034 	ldrb.w	r3, [r0, #52]	; 0x34
{
 8002994:	4604      	mov	r4, r0
  __HAL_LOCK(htim);
 8002996:	2b01      	cmp	r3, #1
{
 8002998:	460d      	mov	r5, r1
 800299a:	f04f 0002 	mov.w	r0, #2
  __HAL_LOCK(htim);
 800299e:	d019      	beq.n	80029d4 <HAL_TIM_IC_ConfigChannel+0x46>
 80029a0:	2301      	movs	r3, #1
  htim->State = HAL_TIM_STATE_BUSY;
 80029a2:	f884 0035 	strb.w	r0, [r4, #53]	; 0x35
  __HAL_LOCK(htim);
 80029a6:	f884 3034 	strb.w	r3, [r4, #52]	; 0x34
  if (Channel == TIM_CHANNEL_1)
 80029aa:	b9a2      	cbnz	r2, 80029d6 <HAL_TIM_IC_ConfigChannel+0x48>
    TIM_TI1_SetConfig(htim->Instance,
 80029ac:	68cb      	ldr	r3, [r1, #12]
 80029ae:	6820      	ldr	r0, [r4, #0]
 80029b0:	c906      	ldmia	r1, {r1, r2}
 80029b2:	f7ff feb1 	bl	8002718 <TIM_TI1_SetConfig>
    htim->Instance->CCMR1 &= ~TIM_CCMR1_IC1PSC;
 80029b6:	6823      	ldr	r3, [r4, #0]
    htim->Instance->CCMR1 |= sConfig->ICPrescaler;
 80029b8:	68a9      	ldr	r1, [r5, #8]
    htim->Instance->CCMR1 &= ~TIM_CCMR1_IC1PSC;
 80029ba:	699a      	ldr	r2, [r3, #24]
 80029bc:	f022 020c 	bic.w	r2, r2, #12
 80029c0:	619a      	str	r2, [r3, #24]
    htim->Instance->CCMR1 |= sConfig->ICPrescaler;
 80029c2:	699a      	ldr	r2, [r3, #24]
 80029c4:	430a      	orrs	r2, r1
 80029c6:	619a      	str	r2, [r3, #24]
  htim->State = HAL_TIM_STATE_READY;
 80029c8:	2301      	movs	r3, #1
  __HAL_UNLOCK(htim);
 80029ca:	2000      	movs	r0, #0
  htim->State = HAL_TIM_STATE_READY;
 80029cc:	f884 3035 	strb.w	r3, [r4, #53]	; 0x35
  __HAL_UNLOCK(htim);
 80029d0:	f884 0034 	strb.w	r0, [r4, #52]	; 0x34
}
 80029d4:	bdf8      	pop	{r3, r4, r5, r6, r7, pc}
  else if (Channel == TIM_CHANNEL_2)
 80029d6:	2a04      	cmp	r2, #4
 80029d8:	688e      	ldr	r6, [r1, #8]
 80029da:	6823      	ldr	r3, [r4, #0]
 80029dc:	c982      	ldmia	r1, {r1, r7}
 80029de:	68e8      	ldr	r0, [r5, #12]
 80029e0:	d11f      	bne.n	8002a22 <HAL_TIM_IC_ConfigChannel+0x94>
  TIMx->CCER &= ~TIM_CCER_CC2E;
 80029e2:	6a1a      	ldr	r2, [r3, #32]
  tmpccmr1 |= ((TIM_ICFilter << 12) & TIM_CCMR1_IC2F);
 80029e4:	0300      	lsls	r0, r0, #12
  TIMx->CCER &= ~TIM_CCER_CC2E;
 80029e6:	f022 0210 	bic.w	r2, r2, #16
 80029ea:	621a      	str	r2, [r3, #32]
  tmpccmr1 = TIMx->CCMR1;
 80029ec:	699a      	ldr	r2, [r3, #24]
  tmpccer = TIMx->CCER;
 80029ee:	6a1d      	ldr	r5, [r3, #32]
  tmpccmr1 &= ~TIM_CCMR1_CC2S;
 80029f0:	f422 7240 	bic.w	r2, r2, #768	; 0x300
  tmpccmr1 |= (TIM_ICSelection << 8);
 80029f4:	ea42 2207 	orr.w	r2, r2, r7, lsl #8
  tmpccmr1 |= ((TIM_ICFilter << 12) & TIM_CCMR1_IC2F);
 80029f8:	b280      	uxth	r0, r0
  tmpccmr1 &= ~TIM_CCMR1_IC2F;
 80029fa:	f422 4270 	bic.w	r2, r2, #61440	; 0xf000
  tmpccer |= ((TIM_ICPolarity << 4) & (TIM_CCER_CC2P | TIM_CCER_CC2NP));
 80029fe:	0109      	lsls	r1, r1, #4
  tmpccmr1 |= ((TIM_ICFilter << 12) & TIM_CCMR1_IC2F);
 8002a00:	4302      	orrs	r2, r0
  tmpccer |= ((TIM_ICPolarity << 4) & (TIM_CCER_CC2P | TIM_CCER_CC2NP));
 8002a02:	f001 01a0 	and.w	r1, r1, #160	; 0xa0
  tmpccer &= ~(TIM_CCER_CC2P | TIM_CCER_CC2NP);
 8002a06:	f025 00a0 	bic.w	r0, r5, #160	; 0xa0
  tmpccer |= ((TIM_ICPolarity << 4) & (TIM_CCER_CC2P | TIM_CCER_CC2NP));
 8002a0a:	4301      	orrs	r1, r0
  TIMx->CCMR1 = tmpccmr1 ;
 8002a0c:	619a      	str	r2, [r3, #24]
  TIMx->CCER = tmpccer;
 8002a0e:	6219      	str	r1, [r3, #32]
    htim->Instance->CCMR1 &= ~TIM_CCMR1_IC2PSC;
 8002a10:	699a      	ldr	r2, [r3, #24]
 8002a12:	f422 6240 	bic.w	r2, r2, #3072	; 0xc00
 8002a16:	619a      	str	r2, [r3, #24]
    htim->Instance->CCMR1 |= (sConfig->ICPrescaler << 8);
 8002a18:	699a      	ldr	r2, [r3, #24]
 8002a1a:	ea42 2606 	orr.w	r6, r2, r6, lsl #8
 8002a1e:	619e      	str	r6, [r3, #24]
 8002a20:	e7d2      	b.n	80029c8 <HAL_TIM_IC_ConfigChannel+0x3a>
  else if (Channel == TIM_CHANNEL_3)
 8002a22:	2a08      	cmp	r2, #8
  TIMx->CCER &= ~TIM_CCER_CC3E;
 8002a24:	6a1a      	ldr	r2, [r3, #32]
  else if (Channel == TIM_CHANNEL_3)
 8002a26:	d11c      	bne.n	8002a62 <HAL_TIM_IC_ConfigChannel+0xd4>
  TIMx->CCER &= ~TIM_CCER_CC3E;
 8002a28:	f422 7280 	bic.w	r2, r2, #256	; 0x100
 8002a2c:	621a      	str	r2, [r3, #32]
  tmpccmr2 = TIMx->CCMR2;
 8002a2e:	69da      	ldr	r2, [r3, #28]
  tmpccmr2 |= ((TIM_ICFilter << 4) & TIM_CCMR2_IC3F);
 8002a30:	0100      	lsls	r0, r0, #4
  tmpccmr2 &= ~TIM_CCMR2_CC3S;
 8002a32:	f022 0203 	bic.w	r2, r2, #3
  tmpccer = TIMx->CCER;
 8002a36:	6a1d      	ldr	r5, [r3, #32]
  tmpccmr2 |= TIM_ICSelection;
 8002a38:	433a      	orrs	r2, r7
  tmpccmr2 |= ((TIM_ICFilter << 4) & TIM_CCMR2_IC3F);
 8002a3a:	b2c0      	uxtb	r0, r0
  tmpccmr2 &= ~TIM_CCMR2_IC3F;
 8002a3c:	f022 02f0 	bic.w	r2, r2, #240	; 0xf0
  tmpccer |= ((TIM_ICPolarity << 8) & (TIM_CCER_CC3P | TIM_CCER_CC3NP));
 8002a40:	0209      	lsls	r1, r1, #8
  tmpccmr2 |= ((TIM_ICFilter << 4) & TIM_CCMR2_IC3F);
 8002a42:	4302      	orrs	r2, r0
  tmpccer |= ((TIM_ICPolarity << 8) & (TIM_CCER_CC3P | TIM_CCER_CC3NP));
 8002a44:	f401 6120 	and.w	r1, r1, #2560	; 0xa00
  tmpccer &= ~(TIM_CCER_CC3P | TIM_CCER_CC3NP);
 8002a48:	f425 6020 	bic.w	r0, r5, #2560	; 0xa00
  tmpccer |= ((TIM_ICPolarity << 8) & (TIM_CCER_CC3P | TIM_CCER_CC3NP));
 8002a4c:	4301      	orrs	r1, r0
  TIMx->CCMR2 = tmpccmr2;
 8002a4e:	61da      	str	r2, [r3, #28]
  TIMx->CCER = tmpccer;
 8002a50:	6219      	str	r1, [r3, #32]
    htim->Instance->CCMR2 &= ~TIM_CCMR2_IC3PSC;
 8002a52:	69da      	ldr	r2, [r3, #28]
 8002a54:	f022 020c 	bic.w	r2, r2, #12
 8002a58:	61da      	str	r2, [r3, #28]
    htim->Instance->CCMR2 |= sConfig->ICPrescaler;
 8002a5a:	69da      	ldr	r2, [r3, #28]
 8002a5c:	4316      	orrs	r6, r2
    htim->Instance->CCMR2 |= (sConfig->ICPrescaler << 8);
 8002a5e:	61de      	str	r6, [r3, #28]
 8002a60:	e7b2      	b.n	80029c8 <HAL_TIM_IC_ConfigChannel+0x3a>
  TIMx->CCER &= ~TIM_CCER_CC4E;
 8002a62:	f422 5280 	bic.w	r2, r2, #4096	; 0x1000
 8002a66:	621a      	str	r2, [r3, #32]
  tmpccmr2 = TIMx->CCMR2;
 8002a68:	69da      	ldr	r2, [r3, #28]
  tmpccmr2 |= ((TIM_ICFilter << 12) & TIM_CCMR2_IC4F);
 8002a6a:	0300      	lsls	r0, r0, #12
  tmpccmr2 &= ~TIM_CCMR2_CC4S;
 8002a6c:	f422 7240 	bic.w	r2, r2, #768	; 0x300
  tmpccer = TIMx->CCER;
 8002a70:	6a1d      	ldr	r5, [r3, #32]
  tmpccmr2 |= (TIM_ICSelection << 8);
 8002a72:	ea42 2207 	orr.w	r2, r2, r7, lsl #8
  tmpccmr2 &= ~TIM_CCMR2_IC4F;
 8002a76:	f422 4270 	bic.w	r2, r2, #61440	; 0xf000
  tmpccmr2 |= ((TIM_ICFilter << 12) & TIM_CCMR2_IC4F);
 8002a7a:	b280      	uxth	r0, r0
  tmpccer |= ((TIM_ICPolarity << 12) & (TIM_CCER_CC4P | TIM_CCER_CC4NP));
 8002a7c:	0309      	lsls	r1, r1, #12
  tmpccmr2 |= ((TIM_ICFilter << 12) & TIM_CCMR2_IC4F);
 8002a7e:	4310      	orrs	r0, r2
  tmpccer |= ((TIM_ICPolarity << 12) & (TIM_CCER_CC4P | TIM_CCER_CC4NP));
 8002a80:	f401 4120 	and.w	r1, r1, #40960	; 0xa000
  tmpccer &= ~(TIM_CCER_CC4P | TIM_CCER_CC4NP);
 8002a84:	f425 4220 	bic.w	r2, r5, #40960	; 0xa000
  tmpccer |= ((TIM_ICPolarity << 12) & (TIM_CCER_CC4P | TIM_CCER_CC4NP));
 8002a88:	4311      	orrs	r1, r2
  TIMx->CCMR2 = tmpccmr2;
 8002a8a:	61d8      	str	r0, [r3, #28]
  TIMx->CCER = tmpccer ;
 8002a8c:	6219      	str	r1, [r3, #32]
    htim->Instance->CCMR2 &= ~TIM_CCMR2_IC4PSC;
 8002a8e:	69da      	ldr	r2, [r3, #28]
 8002a90:	f422 6240 	bic.w	r2, r2, #3072	; 0xc00
 8002a94:	61da      	str	r2, [r3, #28]
    htim->Instance->CCMR2 |= (sConfig->ICPrescaler << 8);
 8002a96:	69da      	ldr	r2, [r3, #28]
 8002a98:	ea42 2606 	orr.w	r6, r2, r6, lsl #8
 8002a9c:	e7df      	b.n	8002a5e <HAL_TIM_IC_ConfigChannel+0xd0>

08002a9e <HAL_TIM_PWM_ConfigChannel>:
  __HAL_LOCK(htim);
 8002a9e:	f890 3034 	ldrb.w	r3, [r0, #52]	; 0x34
{
 8002aa2:	b570      	push	{r4, r5, r6, lr}
  __HAL_LOCK(htim);
 8002aa4:	2b01      	cmp	r3, #1
{
 8002aa6:	4605      	mov	r5, r0
 8002aa8:	460c      	mov	r4, r1
 8002aaa:	f04f 0002 	mov.w	r0, #2
  __HAL_LOCK(htim);
 8002aae:	d025      	beq.n	8002afc <HAL_TIM_PWM_ConfigChannel+0x5e>
 8002ab0:	2301      	movs	r3, #1
  htim->State = HAL_TIM_STATE_BUSY;
 8002ab2:	f885 0035 	strb.w	r0, [r5, #53]	; 0x35
  __HAL_LOCK(htim);
 8002ab6:	f885 3034 	strb.w	r3, [r5, #52]	; 0x34
  switch (Channel)
 8002aba:	2a0c      	cmp	r2, #12
 8002abc:	d818      	bhi.n	8002af0 <HAL_TIM_PWM_ConfigChannel+0x52>
 8002abe:	e8df f002 	tbb	[pc, r2]
 8002ac2:	1707      	.short	0x1707
 8002ac4:	171e1717 	.word	0x171e1717
 8002ac8:	172f1717 	.word	0x172f1717
 8002acc:	1717      	.short	0x1717
 8002ace:	52          	.byte	0x52
 8002acf:	00          	.byte	0x00
      TIM_OC1_SetConfig(htim->Instance, sConfig);
 8002ad0:	6828      	ldr	r0, [r5, #0]
 8002ad2:	f7ff fdf3 	bl	80026bc <TIM_OC1_SetConfig>
      htim->Instance->CCMR1 |= TIM_CCMR1_OC1PE;
 8002ad6:	682b      	ldr	r3, [r5, #0]
      htim->Instance->CCMR1 |= sConfig->OCFastMode;
 8002ad8:	68c9      	ldr	r1, [r1, #12]
      htim->Instance->CCMR1 |= TIM_CCMR1_OC1PE;
 8002ada:	699a      	ldr	r2, [r3, #24]
 8002adc:	f042 0208 	orr.w	r2, r2, #8
 8002ae0:	619a      	str	r2, [r3, #24]
      htim->Instance->CCMR1 &= ~TIM_CCMR1_OC1FE;
 8002ae2:	699a      	ldr	r2, [r3, #24]
 8002ae4:	f022 0204 	bic.w	r2, r2, #4
 8002ae8:	619a      	str	r2, [r3, #24]
      htim->Instance->CCMR1 |= sConfig->OCFastMode;
 8002aea:	699a      	ldr	r2, [r3, #24]
 8002aec:	430a      	orrs	r2, r1
      htim->Instance->CCMR1 |= sConfig->OCFastMode << 8;
 8002aee:	619a      	str	r2, [r3, #24]
  htim->State = HAL_TIM_STATE_READY;
 8002af0:	2301      	movs	r3, #1
  __HAL_UNLOCK(htim);
 8002af2:	2000      	movs	r0, #0
  htim->State = HAL_TIM_STATE_READY;
 8002af4:	f885 3035 	strb.w	r3, [r5, #53]	; 0x35
  __HAL_UNLOCK(htim);
 8002af8:	f885 0034 	strb.w	r0, [r5, #52]	; 0x34
}
 8002afc:	bd70      	pop	{r4, r5, r6, pc}
      TIM_OC2_SetConfig(htim->Instance, sConfig);
 8002afe:	6828      	ldr	r0, [r5, #0]
 8002b00:	f7ff fdf2 	bl	80026e8 <TIM_OC2_SetConfig>
      htim->Instance->CCMR1 |= TIM_CCMR1_OC2PE;
 8002b04:	682b      	ldr	r3, [r5, #0]
      htim->Instance->CCMR1 |= sConfig->OCFastMode << 8;
 8002b06:	68c9      	ldr	r1, [r1, #12]
      htim->Instance->CCMR1 |= TIM_CCMR1_OC2PE;
 8002b08:	699a      	ldr	r2, [r3, #24]
 8002b0a:	f442 6200 	orr.w	r2, r2, #2048	; 0x800
 8002b0e:	619a      	str	r2, [r3, #24]
      htim->Instance->CCMR1 &= ~TIM_CCMR1_OC2FE;
 8002b10:	699a      	ldr	r2, [r3, #24]
 8002b12:	f422 6280 	bic.w	r2, r2, #1024	; 0x400
 8002b16:	619a      	str	r2, [r3, #24]
      htim->Instance->CCMR1 |= sConfig->OCFastMode << 8;
 8002b18:	699a      	ldr	r2, [r3, #24]
 8002b1a:	ea42 2201 	orr.w	r2, r2, r1, lsl #8
 8002b1e:	e7e6      	b.n	8002aee <HAL_TIM_PWM_ConfigChannel+0x50>
      TIM_OC3_SetConfig(htim->Instance, sConfig);
 8002b20:	682b      	ldr	r3, [r5, #0]
  tmpccmrx |= OC_Config->OCMode;
 8002b22:	6826      	ldr	r6, [r4, #0]
  TIMx->CCER &= ~TIM_CCER_CC3E;
 8002b24:	6a1a      	ldr	r2, [r3, #32]
 8002b26:	f422 7280 	bic.w	r2, r2, #256	; 0x100
 8002b2a:	621a      	str	r2, [r3, #32]
  tmpccer = TIMx->CCER;
 8002b2c:	6a1a      	ldr	r2, [r3, #32]
  tmpcr2 =  TIMx->CR2;
 8002b2e:	6858      	ldr	r0, [r3, #4]
  tmpccmrx = TIMx->CCMR2;
 8002b30:	69d9      	ldr	r1, [r3, #28]
  tmpccer &= ~TIM_CCER_CC3P;
 8002b32:	f422 7200 	bic.w	r2, r2, #512	; 0x200
  tmpccmrx &= ~TIM_CCMR2_CC3S;
 8002b36:	f021 0173 	bic.w	r1, r1, #115	; 0x73
  tmpccmrx |= OC_Config->OCMode;
 8002b3a:	4331      	orrs	r1, r6
  tmpccer |= (OC_Config->OCPolarity << 8);
 8002b3c:	68a6      	ldr	r6, [r4, #8]
  TIMx->CR2 = tmpcr2;
 8002b3e:	6058      	str	r0, [r3, #4]
  TIMx->CCMR2 = tmpccmrx;
 8002b40:	61d9      	str	r1, [r3, #28]
  TIMx->CCR3 = OC_Config->Pulse;
 8002b42:	6861      	ldr	r1, [r4, #4]
  tmpccer |= (OC_Config->OCPolarity << 8);
 8002b44:	ea42 2206 	orr.w	r2, r2, r6, lsl #8
  TIMx->CCR3 = OC_Config->Pulse;
 8002b48:	63d9      	str	r1, [r3, #60]	; 0x3c
  TIMx->CCER = tmpccer;
 8002b4a:	621a      	str	r2, [r3, #32]
      htim->Instance->CCMR2 |= TIM_CCMR2_OC3PE;
 8002b4c:	69da      	ldr	r2, [r3, #28]
      htim->Instance->CCMR2 |= sConfig->OCFastMode;
 8002b4e:	68e1      	ldr	r1, [r4, #12]
      htim->Instance->CCMR2 |= TIM_CCMR2_OC3PE;
 8002b50:	f042 0208 	orr.w	r2, r2, #8
 8002b54:	61da      	str	r2, [r3, #28]
      htim->Instance->CCMR2 &= ~TIM_CCMR2_OC3FE;
 8002b56:	69da      	ldr	r2, [r3, #28]
 8002b58:	f022 0204 	bic.w	r2, r2, #4
 8002b5c:	61da      	str	r2, [r3, #28]
      htim->Instance->CCMR2 |= sConfig->OCFastMode;
 8002b5e:	69da      	ldr	r2, [r3, #28]
 8002b60:	430a      	orrs	r2, r1
      htim->Instance->CCMR2 |= sConfig->OCFastMode << 8;
 8002b62:	61da      	str	r2, [r3, #28]
    break;
 8002b64:	e7c4      	b.n	8002af0 <HAL_TIM_PWM_ConfigChannel+0x52>
      TIM_OC4_SetConfig(htim->Instance, sConfig);
 8002b66:	682b      	ldr	r3, [r5, #0]
  tmpccmrx |= (OC_Config->OCMode << 8);
 8002b68:	6826      	ldr	r6, [r4, #0]
  TIMx->CCER &= ~TIM_CCER_CC4E;
 8002b6a:	6a1a      	ldr	r2, [r3, #32]
 8002b6c:	f422 5280 	bic.w	r2, r2, #4096	; 0x1000
 8002b70:	621a      	str	r2, [r3, #32]
  tmpccer = TIMx->CCER;
 8002b72:	6a1a      	ldr	r2, [r3, #32]
  tmpcr2 =  TIMx->CR2;
 8002b74:	6858      	ldr	r0, [r3, #4]
  tmpccmrx = TIMx->CCMR2;
 8002b76:	69d9      	ldr	r1, [r3, #28]
  tmpccer &= ~TIM_CCER_CC4P;
 8002b78:	f422 5200 	bic.w	r2, r2, #8192	; 0x2000
  tmpccmrx &= ~TIM_CCMR2_CC4S;
 8002b7c:	f421 41e6 	bic.w	r1, r1, #29440	; 0x7300
  tmpccmrx |= (OC_Config->OCMode << 8);
 8002b80:	ea41 2106 	orr.w	r1, r1, r6, lsl #8
  tmpccer |= (OC_Config->OCPolarity << 12);
 8002b84:	68a6      	ldr	r6, [r4, #8]
  TIMx->CR2 = tmpcr2;
 8002b86:	6058      	str	r0, [r3, #4]
  TIMx->CCMR2 = tmpccmrx;
 8002b88:	61d9      	str	r1, [r3, #28]
  TIMx->CCR4 = OC_Config->Pulse;
 8002b8a:	6861      	ldr	r1, [r4, #4]
  tmpccer |= (OC_Config->OCPolarity << 12);
 8002b8c:	ea42 3206 	orr.w	r2, r2, r6, lsl #12
  TIMx->CCR4 = OC_Config->Pulse;
 8002b90:	6419      	str	r1, [r3, #64]	; 0x40
  TIMx->CCER = tmpccer;
 8002b92:	621a      	str	r2, [r3, #32]
      htim->Instance->CCMR2 |= TIM_CCMR2_OC4PE;
 8002b94:	69da      	ldr	r2, [r3, #28]
      htim->Instance->CCMR2 |= sConfig->OCFastMode << 8;
 8002b96:	68e1      	ldr	r1, [r4, #12]
      htim->Instance->CCMR2 |= TIM_CCMR2_OC4PE;
 8002b98:	f442 6200 	orr.w	r2, r2, #2048	; 0x800
 8002b9c:	61da      	str	r2, [r3, #28]
      htim->Instance->CCMR2 &= ~TIM_CCMR2_OC4FE;
 8002b9e:	69da      	ldr	r2, [r3, #28]
 8002ba0:	f422 6280 	bic.w	r2, r2, #1024	; 0x400
 8002ba4:	61da      	str	r2, [r3, #28]
      htim->Instance->CCMR2 |= sConfig->OCFastMode << 8;
 8002ba6:	69da      	ldr	r2, [r3, #28]
 8002ba8:	ea42 2201 	orr.w	r2, r2, r1, lsl #8
 8002bac:	e7d9      	b.n	8002b62 <HAL_TIM_PWM_ConfigChannel+0xc4>

08002bae <HAL_TIM_ConfigClockSource>:
  __HAL_LOCK(htim);
 8002bae:	f890 3034 	ldrb.w	r3, [r0, #52]	; 0x34
{
 8002bb2:	b570      	push	{r4, r5, r6, lr}
  __HAL_LOCK(htim);
 8002bb4:	2b01      	cmp	r3, #1
 8002bb6:	f04f 0302 	mov.w	r3, #2
 8002bba:	d01c      	beq.n	8002bf6 <HAL_TIM_ConfigClockSource+0x48>
 8002bbc:	2201      	movs	r2, #1
  htim->State = HAL_TIM_STATE_BUSY;
 8002bbe:	f880 3035 	strb.w	r3, [r0, #53]	; 0x35
  tmpsmcr = htim->Instance->SMCR;
 8002bc2:	6803      	ldr	r3, [r0, #0]
  __HAL_LOCK(htim);
 8002bc4:	f880 2034 	strb.w	r2, [r0, #52]	; 0x34
  tmpsmcr = htim->Instance->SMCR;
 8002bc8:	689a      	ldr	r2, [r3, #8]
  tmpsmcr &= ~(TIM_SMCR_ETF | TIM_SMCR_ETPS | TIM_SMCR_ECE | TIM_SMCR_ETP);
 8002bca:	f422 427f 	bic.w	r2, r2, #65280	; 0xff00
 8002bce:	f022 0277 	bic.w	r2, r2, #119	; 0x77
  htim->Instance->SMCR = tmpsmcr;
 8002bd2:	609a      	str	r2, [r3, #8]
  switch (sClockSourceConfig->ClockSource)
 8002bd4:	680a      	ldr	r2, [r1, #0]
 8002bd6:	2a40      	cmp	r2, #64	; 0x40
 8002bd8:	d079      	beq.n	8002cce <HAL_TIM_ConfigClockSource+0x120>
 8002bda:	d819      	bhi.n	8002c10 <HAL_TIM_ConfigClockSource+0x62>
 8002bdc:	2a10      	cmp	r2, #16
 8002bde:	f000 8093 	beq.w	8002d08 <HAL_TIM_ConfigClockSource+0x15a>
 8002be2:	d80a      	bhi.n	8002bfa <HAL_TIM_ConfigClockSource+0x4c>
 8002be4:	2a00      	cmp	r2, #0
 8002be6:	f000 8089 	beq.w	8002cfc <HAL_TIM_ConfigClockSource+0x14e>
  htim->State = HAL_TIM_STATE_READY;
 8002bea:	2301      	movs	r3, #1
 8002bec:	f880 3035 	strb.w	r3, [r0, #53]	; 0x35
  __HAL_UNLOCK(htim);
 8002bf0:	2300      	movs	r3, #0
 8002bf2:	f880 3034 	strb.w	r3, [r0, #52]	; 0x34
  __HAL_LOCK(htim);
 8002bf6:	4618      	mov	r0, r3
}
 8002bf8:	bd70      	pop	{r4, r5, r6, pc}
  switch (sClockSourceConfig->ClockSource)
 8002bfa:	2a20      	cmp	r2, #32
 8002bfc:	f000 808a 	beq.w	8002d14 <HAL_TIM_ConfigClockSource+0x166>
 8002c00:	2a30      	cmp	r2, #48	; 0x30
 8002c02:	d1f2      	bne.n	8002bea <HAL_TIM_ConfigClockSource+0x3c>
   tmpsmcr = TIMx->SMCR;
 8002c04:	689a      	ldr	r2, [r3, #8]
   tmpsmcr &= ~TIM_SMCR_TS;
 8002c06:	f022 0270 	bic.w	r2, r2, #112	; 0x70
   tmpsmcr |= InputTriggerSource | TIM_SLAVEMODE_EXTERNAL1;
 8002c0a:	f042 0237 	orr.w	r2, r2, #55	; 0x37
 8002c0e:	e036      	b.n	8002c7e <HAL_TIM_ConfigClockSource+0xd0>
  switch (sClockSourceConfig->ClockSource)
 8002c10:	2a70      	cmp	r2, #112	; 0x70
 8002c12:	d036      	beq.n	8002c82 <HAL_TIM_ConfigClockSource+0xd4>
 8002c14:	d81b      	bhi.n	8002c4e <HAL_TIM_ConfigClockSource+0xa0>
 8002c16:	2a50      	cmp	r2, #80	; 0x50
 8002c18:	d042      	beq.n	8002ca0 <HAL_TIM_ConfigClockSource+0xf2>
 8002c1a:	2a60      	cmp	r2, #96	; 0x60
 8002c1c:	d1e5      	bne.n	8002bea <HAL_TIM_ConfigClockSource+0x3c>
  TIMx->CCER &= ~TIM_CCER_CC2E;
 8002c1e:	6a1c      	ldr	r4, [r3, #32]
      TIM_TI2_ConfigInputStage(htim->Instance,
 8002c20:	684d      	ldr	r5, [r1, #4]
  TIMx->CCER &= ~TIM_CCER_CC2E;
 8002c22:	f024 0410 	bic.w	r4, r4, #16
      TIM_TI2_ConfigInputStage(htim->Instance,
 8002c26:	68ce      	ldr	r6, [r1, #12]
  TIMx->CCER &= ~TIM_CCER_CC2E;
 8002c28:	621c      	str	r4, [r3, #32]
  tmpccmr1 = TIMx->CCMR1;
 8002c2a:	6999      	ldr	r1, [r3, #24]
  tmpccer = TIMx->CCER;
 8002c2c:	6a1a      	ldr	r2, [r3, #32]
  tmpccmr1 &= ~TIM_CCMR1_IC2F;
 8002c2e:	f421 4170 	bic.w	r1, r1, #61440	; 0xf000
  tmpccer &= ~(TIM_CCER_CC2P | TIM_CCER_CC2NP);
 8002c32:	f022 02a0 	bic.w	r2, r2, #160	; 0xa0
  tmpccer |= (TIM_ICPolarity << 4);
 8002c36:	ea42 1205 	orr.w	r2, r2, r5, lsl #4
  tmpccmr1 |= (TIM_ICFilter << 12);
 8002c3a:	ea41 3106 	orr.w	r1, r1, r6, lsl #12
  TIMx->CCMR1 = tmpccmr1 ;
 8002c3e:	6199      	str	r1, [r3, #24]
  TIMx->CCER = tmpccer;
 8002c40:	621a      	str	r2, [r3, #32]
   tmpsmcr = TIMx->SMCR;
 8002c42:	689a      	ldr	r2, [r3, #8]
   tmpsmcr &= ~TIM_SMCR_TS;
 8002c44:	f022 0270 	bic.w	r2, r2, #112	; 0x70
   tmpsmcr |= InputTriggerSource | TIM_SLAVEMODE_EXTERNAL1;
 8002c48:	f042 0267 	orr.w	r2, r2, #103	; 0x67
 8002c4c:	e017      	b.n	8002c7e <HAL_TIM_ConfigClockSource+0xd0>
  switch (sClockSourceConfig->ClockSource)
 8002c4e:	f5b2 5f80 	cmp.w	r2, #4096	; 0x1000
 8002c52:	d011      	beq.n	8002c78 <HAL_TIM_ConfigClockSource+0xca>
 8002c54:	f5b2 5f00 	cmp.w	r2, #8192	; 0x2000
 8002c58:	d1c7      	bne.n	8002bea <HAL_TIM_ConfigClockSource+0x3c>
  tmpsmcr |= (uint32_t)(TIM_ExtTRGPrescaler | (TIM_ExtTRGPolarity | (ExtTRGFilter << 8)));
 8002c5a:	688a      	ldr	r2, [r1, #8]
 8002c5c:	684d      	ldr	r5, [r1, #4]
  tmpsmcr = TIMx->SMCR;
 8002c5e:	689c      	ldr	r4, [r3, #8]
  tmpsmcr |= (uint32_t)(TIM_ExtTRGPrescaler | (TIM_ExtTRGPolarity | (ExtTRGFilter << 8)));
 8002c60:	68c9      	ldr	r1, [r1, #12]
 8002c62:	432a      	orrs	r2, r5
  tmpsmcr &= (uint32_t)(~(TIM_SMCR_ETF | TIM_SMCR_ETPS | TIM_SMCR_ECE | TIM_SMCR_ETP));
 8002c64:	f424 447f 	bic.w	r4, r4, #65280	; 0xff00
  tmpsmcr |= (uint32_t)(TIM_ExtTRGPrescaler | (TIM_ExtTRGPolarity | (ExtTRGFilter << 8)));
 8002c68:	ea42 2201 	orr.w	r2, r2, r1, lsl #8
 8002c6c:	4322      	orrs	r2, r4
  TIMx->SMCR = tmpsmcr;
 8002c6e:	609a      	str	r2, [r3, #8]
      htim->Instance->SMCR |= TIM_SMCR_ECE;
 8002c70:	689a      	ldr	r2, [r3, #8]
 8002c72:	f442 4280 	orr.w	r2, r2, #16384	; 0x4000
 8002c76:	e002      	b.n	8002c7e <HAL_TIM_ConfigClockSource+0xd0>
      htim->Instance->SMCR &= ~TIM_SMCR_SMS;
 8002c78:	689a      	ldr	r2, [r3, #8]
 8002c7a:	f022 0207 	bic.w	r2, r2, #7
   TIMx->SMCR = tmpsmcr;
 8002c7e:	609a      	str	r2, [r3, #8]
 8002c80:	e7b3      	b.n	8002bea <HAL_TIM_ConfigClockSource+0x3c>
  tmpsmcr |= (uint32_t)(TIM_ExtTRGPrescaler | (TIM_ExtTRGPolarity | (ExtTRGFilter << 8)));
 8002c82:	688a      	ldr	r2, [r1, #8]
 8002c84:	684d      	ldr	r5, [r1, #4]
  tmpsmcr = TIMx->SMCR;
 8002c86:	689c      	ldr	r4, [r3, #8]
  tmpsmcr |= (uint32_t)(TIM_ExtTRGPrescaler | (TIM_ExtTRGPolarity | (ExtTRGFilter << 8)));
 8002c88:	68c9      	ldr	r1, [r1, #12]
 8002c8a:	432a      	orrs	r2, r5
  tmpsmcr &= (uint32_t)(~(TIM_SMCR_ETF | TIM_SMCR_ETPS | TIM_SMCR_ECE | TIM_SMCR_ETP));
 8002c8c:	f424 447f 	bic.w	r4, r4, #65280	; 0xff00
  tmpsmcr |= (uint32_t)(TIM_ExtTRGPrescaler | (TIM_ExtTRGPolarity | (ExtTRGFilter << 8)));
 8002c90:	ea42 2201 	orr.w	r2, r2, r1, lsl #8
 8002c94:	4322      	orrs	r2, r4
  TIMx->SMCR = tmpsmcr;
 8002c96:	609a      	str	r2, [r3, #8]
      tmpsmcr = htim->Instance->SMCR;
 8002c98:	689a      	ldr	r2, [r3, #8]
      tmpsmcr |= (TIM_SLAVEMODE_EXTERNAL1 | TIM_CLOCKSOURCE_ETRMODE1);
 8002c9a:	f042 0277 	orr.w	r2, r2, #119	; 0x77
 8002c9e:	e7ee      	b.n	8002c7e <HAL_TIM_ConfigClockSource+0xd0>
      TIM_TI1_ConfigInputStage(htim->Instance,
 8002ca0:	684c      	ldr	r4, [r1, #4]
 8002ca2:	68ce      	ldr	r6, [r1, #12]
  tmpccer = TIMx->CCER;
 8002ca4:	6a19      	ldr	r1, [r3, #32]
  TIMx->CCER &= ~TIM_CCER_CC1E;
 8002ca6:	6a1d      	ldr	r5, [r3, #32]
  tmpccer &= ~(TIM_CCER_CC1P | TIM_CCER_CC1NP);
 8002ca8:	f021 010a 	bic.w	r1, r1, #10
  TIMx->CCER &= ~TIM_CCER_CC1E;
 8002cac:	f025 0501 	bic.w	r5, r5, #1
 8002cb0:	621d      	str	r5, [r3, #32]
  tmpccmr1 = TIMx->CCMR1;
 8002cb2:	699a      	ldr	r2, [r3, #24]
  tmpccer |= TIM_ICPolarity;
 8002cb4:	4321      	orrs	r1, r4
  tmpccmr1 &= ~TIM_CCMR1_IC1F;
 8002cb6:	f022 02f0 	bic.w	r2, r2, #240	; 0xf0
  tmpccmr1 |= (TIM_ICFilter << 4);
 8002cba:	ea42 1206 	orr.w	r2, r2, r6, lsl #4
  TIMx->CCMR1 = tmpccmr1;
 8002cbe:	619a      	str	r2, [r3, #24]
  TIMx->CCER = tmpccer;
 8002cc0:	6219      	str	r1, [r3, #32]
   tmpsmcr = TIMx->SMCR;
 8002cc2:	689a      	ldr	r2, [r3, #8]
   tmpsmcr &= ~TIM_SMCR_TS;
 8002cc4:	f022 0270 	bic.w	r2, r2, #112	; 0x70
   tmpsmcr |= InputTriggerSource | TIM_SLAVEMODE_EXTERNAL1;
 8002cc8:	f042 0257 	orr.w	r2, r2, #87	; 0x57
 8002ccc:	e7d7      	b.n	8002c7e <HAL_TIM_ConfigClockSource+0xd0>
      TIM_TI1_ConfigInputStage(htim->Instance,
 8002cce:	684c      	ldr	r4, [r1, #4]
 8002cd0:	68ce      	ldr	r6, [r1, #12]
  tmpccer = TIMx->CCER;
 8002cd2:	6a19      	ldr	r1, [r3, #32]
  TIMx->CCER &= ~TIM_CCER_CC1E;
 8002cd4:	6a1d      	ldr	r5, [r3, #32]
  tmpccer &= ~(TIM_CCER_CC1P | TIM_CCER_CC1NP);
 8002cd6:	f021 010a 	bic.w	r1, r1, #10
  TIMx->CCER &= ~TIM_CCER_CC1E;
 8002cda:	f025 0501 	bic.w	r5, r5, #1
 8002cde:	621d      	str	r5, [r3, #32]
  tmpccmr1 = TIMx->CCMR1;
 8002ce0:	699a      	ldr	r2, [r3, #24]
  tmpccer |= TIM_ICPolarity;
 8002ce2:	4321      	orrs	r1, r4
  tmpccmr1 &= ~TIM_CCMR1_IC1F;
 8002ce4:	f022 02f0 	bic.w	r2, r2, #240	; 0xf0
  tmpccmr1 |= (TIM_ICFilter << 4);
 8002ce8:	ea42 1206 	orr.w	r2, r2, r6, lsl #4
  TIMx->CCMR1 = tmpccmr1;
 8002cec:	619a      	str	r2, [r3, #24]
  TIMx->CCER = tmpccer;
 8002cee:	6219      	str	r1, [r3, #32]
   tmpsmcr = TIMx->SMCR;
 8002cf0:	689a      	ldr	r2, [r3, #8]
   tmpsmcr &= ~TIM_SMCR_TS;
 8002cf2:	f022 0270 	bic.w	r2, r2, #112	; 0x70
   tmpsmcr |= InputTriggerSource | TIM_SLAVEMODE_EXTERNAL1;
 8002cf6:	f042 0247 	orr.w	r2, r2, #71	; 0x47
 8002cfa:	e7c0      	b.n	8002c7e <HAL_TIM_ConfigClockSource+0xd0>
   tmpsmcr = TIMx->SMCR;
 8002cfc:	689a      	ldr	r2, [r3, #8]
   tmpsmcr &= ~TIM_SMCR_TS;
 8002cfe:	f022 0270 	bic.w	r2, r2, #112	; 0x70
   tmpsmcr |= InputTriggerSource | TIM_SLAVEMODE_EXTERNAL1;
 8002d02:	f042 0207 	orr.w	r2, r2, #7
 8002d06:	e7ba      	b.n	8002c7e <HAL_TIM_ConfigClockSource+0xd0>
   tmpsmcr = TIMx->SMCR;
 8002d08:	689a      	ldr	r2, [r3, #8]
   tmpsmcr &= ~TIM_SMCR_TS;
 8002d0a:	f022 0270 	bic.w	r2, r2, #112	; 0x70
   tmpsmcr |= InputTriggerSource | TIM_SLAVEMODE_EXTERNAL1;
 8002d0e:	f042 0217 	orr.w	r2, r2, #23
 8002d12:	e7b4      	b.n	8002c7e <HAL_TIM_ConfigClockSource+0xd0>
   tmpsmcr = TIMx->SMCR;
 8002d14:	689a      	ldr	r2, [r3, #8]
   tmpsmcr &= ~TIM_SMCR_TS;
 8002d16:	f022 0270 	bic.w	r2, r2, #112	; 0x70
   tmpsmcr |= InputTriggerSource | TIM_SLAVEMODE_EXTERNAL1;
 8002d1a:	f042 0227 	orr.w	r2, r2, #39	; 0x27
 8002d1e:	e7ae      	b.n	8002c7e <HAL_TIM_ConfigClockSource+0xd0>

08002d20 <HAL_TIM_PeriodElapsedCallback>:
 8002d20:	4770      	bx	lr

08002d22 <HAL_TIM_OC_DelayElapsedCallback>:
 8002d22:	4770      	bx	lr

08002d24 <HAL_TIM_PWM_PulseFinishedCallback>:
 8002d24:	4770      	bx	lr

08002d26 <HAL_TIM_TriggerCallback>:
 8002d26:	4770      	bx	lr

08002d28 <HAL_TIM_IRQHandler>:
  if(__HAL_TIM_GET_FLAG(htim, TIM_FLAG_CC1) != RESET)
 8002d28:	6803      	ldr	r3, [r0, #0]
{
 8002d2a:	b510      	push	{r4, lr}
  if(__HAL_TIM_GET_FLAG(htim, TIM_FLAG_CC1) != RESET)
 8002d2c:	691a      	ldr	r2, [r3, #16]
{
 8002d2e:	4604      	mov	r4, r0
  if(__HAL_TIM_GET_FLAG(htim, TIM_FLAG_CC1) != RESET)
 8002d30:	0791      	lsls	r1, r2, #30
 8002d32:	d50e      	bpl.n	8002d52 <HAL_TIM_IRQHandler+0x2a>
    if(__HAL_TIM_GET_IT_SOURCE(htim, TIM_IT_CC1) !=RESET)
 8002d34:	68da      	ldr	r2, [r3, #12]
 8002d36:	0792      	lsls	r2, r2, #30
 8002d38:	d50b      	bpl.n	8002d52 <HAL_TIM_IRQHandler+0x2a>
        __HAL_TIM_CLEAR_IT(htim, TIM_IT_CC1);
 8002d3a:	f06f 0202 	mvn.w	r2, #2
 8002d3e:	611a      	str	r2, [r3, #16]
        htim->Channel = HAL_TIM_ACTIVE_CHANNEL_1;
 8002d40:	2201      	movs	r2, #1
        if((htim->Instance->CCMR1 & TIM_CCMR1_CC1S) != 0x00)
 8002d42:	699b      	ldr	r3, [r3, #24]
        htim->Channel = HAL_TIM_ACTIVE_CHANNEL_1;
 8002d44:	7502      	strb	r2, [r0, #20]
        if((htim->Instance->CCMR1 & TIM_CCMR1_CC1S) != 0x00)
 8002d46:	0799      	lsls	r1, r3, #30
 8002d48:	d05c      	beq.n	8002e04 <HAL_TIM_IRQHandler+0xdc>
          HAL_TIM_IC_CaptureCallback(htim);
 8002d4a:	f001 faa5 	bl	8004298 <HAL_TIM_IC_CaptureCallback>
        htim->Channel = HAL_TIM_ACTIVE_CHANNEL_CLEARED;
 8002d4e:	2300      	movs	r3, #0
 8002d50:	7523      	strb	r3, [r4, #20]
  if(__HAL_TIM_GET_FLAG(htim, TIM_FLAG_CC2) != RESET)
 8002d52:	6823      	ldr	r3, [r4, #0]
 8002d54:	691a      	ldr	r2, [r3, #16]
 8002d56:	0752      	lsls	r2, r2, #29
 8002d58:	d510      	bpl.n	8002d7c <HAL_TIM_IRQHandler+0x54>
    if(__HAL_TIM_GET_IT_SOURCE(htim, TIM_IT_CC2) !=RESET)
 8002d5a:	68da      	ldr	r2, [r3, #12]
 8002d5c:	0750      	lsls	r0, r2, #29
 8002d5e:	d50d      	bpl.n	8002d7c <HAL_TIM_IRQHandler+0x54>
      __HAL_TIM_CLEAR_IT(htim, TIM_IT_CC2);
 8002d60:	f06f 0204 	mvn.w	r2, #4
 8002d64:	611a      	str	r2, [r3, #16]
      htim->Channel = HAL_TIM_ACTIVE_CHANNEL_2;
 8002d66:	2202      	movs	r2, #2
      if((htim->Instance->CCMR1 & TIM_CCMR1_CC2S) != 0x00)
 8002d68:	699b      	ldr	r3, [r3, #24]
      htim->Channel = HAL_TIM_ACTIVE_CHANNEL_2;
 8002d6a:	7522      	strb	r2, [r4, #20]
      if((htim->Instance->CCMR1 & TIM_CCMR1_CC2S) != 0x00)
 8002d6c:	f413 7f40 	tst.w	r3, #768	; 0x300
        HAL_TIM_IC_CaptureCallback(htim);
 8002d70:	4620      	mov	r0, r4
      if((htim->Instance->CCMR1 & TIM_CCMR1_CC2S) != 0x00)
 8002d72:	d04d      	beq.n	8002e10 <HAL_TIM_IRQHandler+0xe8>
        HAL_TIM_IC_CaptureCallback(htim);
 8002d74:	f001 fa90 	bl	8004298 <HAL_TIM_IC_CaptureCallback>
      htim->Channel = HAL_TIM_ACTIVE_CHANNEL_CLEARED;
 8002d78:	2300      	movs	r3, #0
 8002d7a:	7523      	strb	r3, [r4, #20]
  if(__HAL_TIM_GET_FLAG(htim, TIM_FLAG_CC3) != RESET)
 8002d7c:	6823      	ldr	r3, [r4, #0]
 8002d7e:	691a      	ldr	r2, [r3, #16]
 8002d80:	0711      	lsls	r1, r2, #28
 8002d82:	d50f      	bpl.n	8002da4 <HAL_TIM_IRQHandler+0x7c>
    if(__HAL_TIM_GET_IT_SOURCE(htim, TIM_IT_CC3) !=RESET)
 8002d84:	68da      	ldr	r2, [r3, #12]
 8002d86:	0712      	lsls	r2, r2, #28
 8002d88:	d50c      	bpl.n	8002da4 <HAL_TIM_IRQHandler+0x7c>
      __HAL_TIM_CLEAR_IT(htim, TIM_IT_CC3);
 8002d8a:	f06f 0208 	mvn.w	r2, #8
 8002d8e:	611a      	str	r2, [r3, #16]
      htim->Channel = HAL_TIM_ACTIVE_CHANNEL_3;
 8002d90:	2204      	movs	r2, #4
      if((htim->Instance->CCMR2 & TIM_CCMR2_CC3S) != 0x00)
 8002d92:	69db      	ldr	r3, [r3, #28]
      htim->Channel = HAL_TIM_ACTIVE_CHANNEL_3;
 8002d94:	7522      	strb	r2, [r4, #20]
      if((htim->Instance->CCMR2 & TIM_CCMR2_CC3S) != 0x00)
 8002d96:	079b      	lsls	r3, r3, #30
        HAL_TIM_IC_CaptureCallback(htim);
 8002d98:	4620      	mov	r0, r4
      if((htim->Instance->CCMR2 & TIM_CCMR2_CC3S) != 0x00)
 8002d9a:	d03f      	beq.n	8002e1c <HAL_TIM_IRQHandler+0xf4>
        HAL_TIM_IC_CaptureCallback(htim);
 8002d9c:	f001 fa7c 	bl	8004298 <HAL_TIM_IC_CaptureCallback>
      htim->Channel = HAL_TIM_ACTIVE_CHANNEL_CLEARED;
 8002da0:	2300      	movs	r3, #0
 8002da2:	7523      	strb	r3, [r4, #20]
  if(__HAL_TIM_GET_FLAG(htim, TIM_FLAG_CC4) != RESET)
 8002da4:	6823      	ldr	r3, [r4, #0]
 8002da6:	691a      	ldr	r2, [r3, #16]
 8002da8:	06d0      	lsls	r0, r2, #27
 8002daa:	d510      	bpl.n	8002dce <HAL_TIM_IRQHandler+0xa6>
    if(__HAL_TIM_GET_IT_SOURCE(htim, TIM_IT_CC4) !=RESET)
 8002dac:	68da      	ldr	r2, [r3, #12]
 8002dae:	06d1      	lsls	r1, r2, #27
 8002db0:	d50d      	bpl.n	8002dce <HAL_TIM_IRQHandler+0xa6>
      __HAL_TIM_CLEAR_IT(htim, TIM_IT_CC4);
 8002db2:	f06f 0210 	mvn.w	r2, #16
 8002db6:	611a      	str	r2, [r3, #16]
      htim->Channel = HAL_TIM_ACTIVE_CHANNEL_4;
 8002db8:	2208      	movs	r2, #8
      if((htim->Instance->CCMR2 & TIM_CCMR2_CC4S) != 0x00)
 8002dba:	69db      	ldr	r3, [r3, #28]
      htim->Channel = HAL_TIM_ACTIVE_CHANNEL_4;
 8002dbc:	7522      	strb	r2, [r4, #20]
      if((htim->Instance->CCMR2 & TIM_CCMR2_CC4S) != 0x00)
 8002dbe:	f413 7f40 	tst.w	r3, #768	; 0x300
        HAL_TIM_IC_CaptureCallback(htim);
 8002dc2:	4620      	mov	r0, r4
      if((htim->Instance->CCMR2 & TIM_CCMR2_CC4S) != 0x00)
 8002dc4:	d030      	beq.n	8002e28 <HAL_TIM_IRQHandler+0x100>
        HAL_TIM_IC_CaptureCallback(htim);
 8002dc6:	f001 fa67 	bl	8004298 <HAL_TIM_IC_CaptureCallback>
      htim->Channel = HAL_TIM_ACTIVE_CHANNEL_CLEARED;
 8002dca:	2300      	movs	r3, #0
 8002dcc:	7523      	strb	r3, [r4, #20]
  if(__HAL_TIM_GET_FLAG(htim, TIM_FLAG_UPDATE) != RESET)
 8002dce:	6823      	ldr	r3, [r4, #0]
 8002dd0:	691a      	ldr	r2, [r3, #16]
 8002dd2:	07d2      	lsls	r2, r2, #31
 8002dd4:	d508      	bpl.n	8002de8 <HAL_TIM_IRQHandler+0xc0>
    if(__HAL_TIM_GET_IT_SOURCE(htim, TIM_IT_UPDATE) !=RESET)
 8002dd6:	68da      	ldr	r2, [r3, #12]
 8002dd8:	07d0      	lsls	r0, r2, #31
 8002dda:	d505      	bpl.n	8002de8 <HAL_TIM_IRQHandler+0xc0>
      __HAL_TIM_CLEAR_IT(htim, TIM_IT_UPDATE);
 8002ddc:	f06f 0201 	mvn.w	r2, #1
      HAL_TIM_PeriodElapsedCallback(htim);
 8002de0:	4620      	mov	r0, r4
      __HAL_TIM_CLEAR_IT(htim, TIM_IT_UPDATE);
 8002de2:	611a      	str	r2, [r3, #16]
      HAL_TIM_PeriodElapsedCallback(htim);
 8002de4:	f7ff ff9c 	bl	8002d20 <HAL_TIM_PeriodElapsedCallback>
  if(__HAL_TIM_GET_FLAG(htim, TIM_FLAG_TRIGGER) != RESET)
 8002de8:	6823      	ldr	r3, [r4, #0]
 8002dea:	691a      	ldr	r2, [r3, #16]
 8002dec:	0651      	lsls	r1, r2, #25
 8002dee:	d508      	bpl.n	8002e02 <HAL_TIM_IRQHandler+0xda>
    if(__HAL_TIM_GET_IT_SOURCE(htim, TIM_IT_TRIGGER) !=RESET)
 8002df0:	68da      	ldr	r2, [r3, #12]
 8002df2:	0652      	lsls	r2, r2, #25
 8002df4:	d505      	bpl.n	8002e02 <HAL_TIM_IRQHandler+0xda>
      __HAL_TIM_CLEAR_IT(htim, TIM_IT_TRIGGER);
 8002df6:	f06f 0240 	mvn.w	r2, #64	; 0x40
      HAL_TIM_TriggerCallback(htim);
 8002dfa:	4620      	mov	r0, r4
      __HAL_TIM_CLEAR_IT(htim, TIM_IT_TRIGGER);
 8002dfc:	611a      	str	r2, [r3, #16]
      HAL_TIM_TriggerCallback(htim);
 8002dfe:	f7ff ff92 	bl	8002d26 <HAL_TIM_TriggerCallback>
 8002e02:	bd10      	pop	{r4, pc}
          HAL_TIM_OC_DelayElapsedCallback(htim);
 8002e04:	f7ff ff8d 	bl	8002d22 <HAL_TIM_OC_DelayElapsedCallback>
          HAL_TIM_PWM_PulseFinishedCallback(htim);
 8002e08:	4620      	mov	r0, r4
 8002e0a:	f7ff ff8b 	bl	8002d24 <HAL_TIM_PWM_PulseFinishedCallback>
 8002e0e:	e79e      	b.n	8002d4e <HAL_TIM_IRQHandler+0x26>
        HAL_TIM_OC_DelayElapsedCallback(htim);
 8002e10:	f7ff ff87 	bl	8002d22 <HAL_TIM_OC_DelayElapsedCallback>
        HAL_TIM_PWM_PulseFinishedCallback(htim);
 8002e14:	4620      	mov	r0, r4
 8002e16:	f7ff ff85 	bl	8002d24 <HAL_TIM_PWM_PulseFinishedCallback>
 8002e1a:	e7ad      	b.n	8002d78 <HAL_TIM_IRQHandler+0x50>
        HAL_TIM_OC_DelayElapsedCallback(htim);
 8002e1c:	f7ff ff81 	bl	8002d22 <HAL_TIM_OC_DelayElapsedCallback>
        HAL_TIM_PWM_PulseFinishedCallback(htim);
 8002e20:	4620      	mov	r0, r4
 8002e22:	f7ff ff7f 	bl	8002d24 <HAL_TIM_PWM_PulseFinishedCallback>
 8002e26:	e7bb      	b.n	8002da0 <HAL_TIM_IRQHandler+0x78>
        HAL_TIM_OC_DelayElapsedCallback(htim);
 8002e28:	f7ff ff7b 	bl	8002d22 <HAL_TIM_OC_DelayElapsedCallback>
        HAL_TIM_PWM_PulseFinishedCallback(htim);
 8002e2c:	4620      	mov	r0, r4
 8002e2e:	f7ff ff79 	bl	8002d24 <HAL_TIM_PWM_PulseFinishedCallback>
 8002e32:	e7ca      	b.n	8002dca <HAL_TIM_IRQHandler+0xa2>

08002e34 <HAL_TIMEx_MasterConfigSynchronization>:
  /* Check the parameters */
  assert_param(IS_TIM_MASTER_INSTANCE(htim->Instance));
  assert_param(IS_TIM_TRGO_SOURCE(sMasterConfig->MasterOutputTrigger));
  assert_param(IS_TIM_MSM_STATE(sMasterConfig->MasterSlaveMode));

  __HAL_LOCK(htim);
 8002e34:	f890 3034 	ldrb.w	r3, [r0, #52]	; 0x34
{
 8002e38:	b510      	push	{r4, lr}
  __HAL_LOCK(htim);
 8002e3a:	2b01      	cmp	r3, #1
 8002e3c:	f04f 0302 	mov.w	r3, #2
 8002e40:	d018      	beq.n	8002e74 <HAL_TIMEx_MasterConfigSynchronization+0x40>

  htim->State = HAL_TIM_STATE_BUSY;
 8002e42:	f880 3035 	strb.w	r3, [r0, #53]	; 0x35

  /* Reset the MMS Bits */
  htim->Instance->CR2 &= ~TIM_CR2_MMS;
 8002e46:	6803      	ldr	r3, [r0, #0]
  /* Select the TRGO source */
  htim->Instance->CR2 |=  sMasterConfig->MasterOutputTrigger;
 8002e48:	680c      	ldr	r4, [r1, #0]
  htim->Instance->CR2 &= ~TIM_CR2_MMS;
 8002e4a:	685a      	ldr	r2, [r3, #4]

  /* Reset the MSM Bit */
  htim->Instance->SMCR &= ~TIM_SMCR_MSM;
  /* Set or Reset the MSM Bit */
  htim->Instance->SMCR |= sMasterConfig->MasterSlaveMode;
 8002e4c:	6849      	ldr	r1, [r1, #4]
  htim->Instance->CR2 &= ~TIM_CR2_MMS;
 8002e4e:	f022 0270 	bic.w	r2, r2, #112	; 0x70
 8002e52:	605a      	str	r2, [r3, #4]
  htim->Instance->CR2 |=  sMasterConfig->MasterOutputTrigger;
 8002e54:	685a      	ldr	r2, [r3, #4]
 8002e56:	4322      	orrs	r2, r4
 8002e58:	605a      	str	r2, [r3, #4]
  htim->Instance->SMCR &= ~TIM_SMCR_MSM;
 8002e5a:	689a      	ldr	r2, [r3, #8]
 8002e5c:	f022 0280 	bic.w	r2, r2, #128	; 0x80
 8002e60:	609a      	str	r2, [r3, #8]
  htim->Instance->SMCR |= sMasterConfig->MasterSlaveMode;
 8002e62:	689a      	ldr	r2, [r3, #8]
 8002e64:	430a      	orrs	r2, r1
 8002e66:	609a      	str	r2, [r3, #8]

  htim->State = HAL_TIM_STATE_READY;
 8002e68:	2301      	movs	r3, #1
 8002e6a:	f880 3035 	strb.w	r3, [r0, #53]	; 0x35

  __HAL_UNLOCK(htim);
 8002e6e:	2300      	movs	r3, #0
 8002e70:	f880 3034 	strb.w	r3, [r0, #52]	; 0x34
  __HAL_LOCK(htim);
 8002e74:	4618      	mov	r0, r3

  return HAL_OK;
}
 8002e76:	bd10      	pop	{r4, pc}

08002e78 <UART_SetConfig>:
  * @param  huart: Pointer to a UART_HandleTypeDef structure that contains
  *                the configuration information for the specified UART module.
  * @retval None
  */
static void UART_SetConfig(UART_HandleTypeDef *huart)
{
 8002e78:	e92d 47f0 	stmdb	sp!, {r4, r5, r6, r7, r8, r9, sl, lr}
 8002e7c:	4681      	mov	r9, r0
  assert_param(IS_UART_MODE(huart->Init.Mode));

  /*------- UART-associated USART registers setting : CR2 Configuration ------*/
  /* Configure the UART Stop Bits: Set STOP[13:12] bits according 
   * to huart->Init.StopBits value */
  MODIFY_REG(huart->Instance->CR2, USART_CR2_STOP, huart->Init.StopBits);
 8002e7e:	6805      	ldr	r5, [r0, #0]
 8002e80:	68c2      	ldr	r2, [r0, #12]
 8002e82:	692b      	ldr	r3, [r5, #16]
  /* Configure the UART Word Length, Parity and mode: 
     Set the M bits according to huart->Init.WordLength value 
     Set PCE and PS bits according to huart->Init.Parity value
     Set TE and RE bits according to huart->Init.Mode value
     Set OVER8 bit according to huart->Init.OverSampling value */
  tmpreg = (uint32_t)huart->Init.WordLength | huart->Init.Parity | huart->Init.Mode | huart->Init.OverSampling;
 8002e84:	69c1      	ldr	r1, [r0, #28]
  MODIFY_REG(huart->Instance->CR2, USART_CR2_STOP, huart->Init.StopBits);
 8002e86:	f423 5340 	bic.w	r3, r3, #12288	; 0x3000
 8002e8a:	4313      	orrs	r3, r2
 8002e8c:	612b      	str	r3, [r5, #16]
  tmpreg = (uint32_t)huart->Init.WordLength | huart->Init.Parity | huart->Init.Mode | huart->Init.OverSampling;
 8002e8e:	6883      	ldr	r3, [r0, #8]
 8002e90:	6900      	ldr	r0, [r0, #16]
  MODIFY_REG(huart->Instance->CR1, 
 8002e92:	68ea      	ldr	r2, [r5, #12]
  tmpreg = (uint32_t)huart->Init.WordLength | huart->Init.Parity | huart->Init.Mode | huart->Init.OverSampling;
 8002e94:	4303      	orrs	r3, r0
 8002e96:	f8d9 0014 	ldr.w	r0, [r9, #20]
  MODIFY_REG(huart->Instance->CR1, 
 8002e9a:	f422 4216 	bic.w	r2, r2, #38400	; 0x9600
  tmpreg = (uint32_t)huart->Init.WordLength | huart->Init.Parity | huart->Init.Mode | huart->Init.OverSampling;
 8002e9e:	4303      	orrs	r3, r0
  MODIFY_REG(huart->Instance->CR1, 
 8002ea0:	f022 020c 	bic.w	r2, r2, #12
  tmpreg = (uint32_t)huart->Init.WordLength | huart->Init.Parity | huart->Init.Mode | huart->Init.OverSampling;
 8002ea4:	430b      	orrs	r3, r1
  MODIFY_REG(huart->Instance->CR1, 
 8002ea6:	4313      	orrs	r3, r2
 8002ea8:	60eb      	str	r3, [r5, #12]
             (uint32_t)(USART_CR1_M | USART_CR1_PCE | USART_CR1_PS | USART_CR1_TE | USART_CR1_RE | USART_CR1_OVER8), 
             tmpreg);
  
  /*------- UART-associated USART registers setting : CR3 Configuration ------*/
  /* Configure the UART HFC: Set CTSE and RTSE bits according to huart->Init.HwFlowCtl value */
  MODIFY_REG(huart->Instance->CR3, (USART_CR3_RTSE | USART_CR3_CTSE), huart->Init.HwFlowCtl);
 8002eaa:	696b      	ldr	r3, [r5, #20]
 8002eac:	f8d9 2018 	ldr.w	r2, [r9, #24]
 8002eb0:	f423 7340 	bic.w	r3, r3, #768	; 0x300
 8002eb4:	4313      	orrs	r3, r2
  
  /* Check the Over Sampling */
  if(huart->Init.OverSampling == UART_OVERSAMPLING_8)
 8002eb6:	f5b1 4f00 	cmp.w	r1, #32768	; 0x8000
  MODIFY_REG(huart->Instance->CR3, (USART_CR3_RTSE | USART_CR3_CTSE), huart->Init.HwFlowCtl);
 8002eba:	616b      	str	r3, [r5, #20]
 8002ebc:	4b7e      	ldr	r3, [pc, #504]	; (80030b8 <UART_SetConfig+0x240>)
  if(huart->Init.OverSampling == UART_OVERSAMPLING_8)
 8002ebe:	d17f      	bne.n	8002fc0 <UART_SetConfig+0x148>
  {
    /*------- UART-associated USART registers setting : BRR Configuration ------*/
    if((huart->Instance == USART1))
 8002ec0:	429d      	cmp	r5, r3
 8002ec2:	f04f 0419 	mov.w	r4, #25
 8002ec6:	d147      	bne.n	8002f58 <UART_SetConfig+0xe0>
    {
      huart->Instance->BRR = UART_BRR_SAMPLING8(HAL_RCC_GetPCLK2Freq(), huart->Init.BaudRate);
 8002ec8:	f7ff fb9e 	bl	8002608 <HAL_RCC_GetPCLK2Freq>
 8002ecc:	fb04 f300 	mul.w	r3, r4, r0
 8002ed0:	f8d9 7004 	ldr.w	r7, [r9, #4]
 8002ed4:	f04f 0864 	mov.w	r8, #100	; 0x64
 8002ed8:	007f      	lsls	r7, r7, #1
 8002eda:	fbb3 f3f7 	udiv	r3, r3, r7
 8002ede:	fbb3 f3f8 	udiv	r3, r3, r8
 8002ee2:	011f      	lsls	r7, r3, #4
 8002ee4:	f7ff fb90 	bl	8002608 <HAL_RCC_GetPCLK2Freq>
 8002ee8:	4360      	muls	r0, r4
 8002eea:	f8d9 3004 	ldr.w	r3, [r9, #4]
 8002eee:	005b      	lsls	r3, r3, #1
 8002ef0:	fbb0 f6f3 	udiv	r6, r0, r3
 8002ef4:	f7ff fb88 	bl	8002608 <HAL_RCC_GetPCLK2Freq>
 8002ef8:	4360      	muls	r0, r4
 8002efa:	f8d9 3004 	ldr.w	r3, [r9, #4]
 8002efe:	005b      	lsls	r3, r3, #1
 8002f00:	fbb0 f3f3 	udiv	r3, r0, r3
 8002f04:	fbb3 f3f8 	udiv	r3, r3, r8
 8002f08:	fb08 6313 	mls	r3, r8, r3, r6
 8002f0c:	00db      	lsls	r3, r3, #3
 8002f0e:	3332      	adds	r3, #50	; 0x32
 8002f10:	fbb3 f3f8 	udiv	r3, r3, r8
 8002f14:	005b      	lsls	r3, r3, #1
 8002f16:	f403 76f8 	and.w	r6, r3, #496	; 0x1f0
 8002f1a:	f7ff fb75 	bl	8002608 <HAL_RCC_GetPCLK2Freq>
 8002f1e:	4360      	muls	r0, r4
 8002f20:	f8d9 2004 	ldr.w	r2, [r9, #4]
 8002f24:	0052      	lsls	r2, r2, #1
 8002f26:	fbb0 faf2 	udiv	sl, r0, r2
 8002f2a:	f7ff fb6d 	bl	8002608 <HAL_RCC_GetPCLK2Freq>
    }
    else
    {
      huart->Instance->BRR = UART_BRR_SAMPLING8(HAL_RCC_GetPCLK1Freq(), huart->Init.BaudRate);
 8002f2e:	4360      	muls	r0, r4
 8002f30:	f8d9 3004 	ldr.w	r3, [r9, #4]
 8002f34:	005b      	lsls	r3, r3, #1
 8002f36:	fbb0 f3f3 	udiv	r3, r0, r3
 8002f3a:	fbb3 f3f8 	udiv	r3, r3, r8
 8002f3e:	fb08 a313 	mls	r3, r8, r3, sl
 8002f42:	00db      	lsls	r3, r3, #3
 8002f44:	3332      	adds	r3, #50	; 0x32
 8002f46:	fbb3 f3f8 	udiv	r3, r3, r8
 8002f4a:	f003 0307 	and.w	r3, r3, #7
 8002f4e:	443b      	add	r3, r7
    {
      huart->Instance->BRR = UART_BRR_SAMPLING16(HAL_RCC_GetPCLK2Freq(), huart->Init.BaudRate);
    }
    else
    {
      huart->Instance->BRR = UART_BRR_SAMPLING16(HAL_RCC_GetPCLK1Freq(), huart->Init.BaudRate);
 8002f50:	4433      	add	r3, r6
 8002f52:	60ab      	str	r3, [r5, #8]
 8002f54:	e8bd 87f0 	ldmia.w	sp!, {r4, r5, r6, r7, r8, r9, sl, pc}
      huart->Instance->BRR = UART_BRR_SAMPLING8(HAL_RCC_GetPCLK1Freq(), huart->Init.BaudRate);
 8002f58:	f7ff fb3e 	bl	80025d8 <HAL_RCC_GetPCLK1Freq>
 8002f5c:	fb04 f300 	mul.w	r3, r4, r0
 8002f60:	f8d9 7004 	ldr.w	r7, [r9, #4]
 8002f64:	f04f 0864 	mov.w	r8, #100	; 0x64
 8002f68:	007f      	lsls	r7, r7, #1
 8002f6a:	fbb3 f3f7 	udiv	r3, r3, r7
 8002f6e:	fbb3 f3f8 	udiv	r3, r3, r8
 8002f72:	011f      	lsls	r7, r3, #4
 8002f74:	f7ff fb30 	bl	80025d8 <HAL_RCC_GetPCLK1Freq>
 8002f78:	4360      	muls	r0, r4
 8002f7a:	f8d9 3004 	ldr.w	r3, [r9, #4]
 8002f7e:	005b      	lsls	r3, r3, #1
 8002f80:	fbb0 f6f3 	udiv	r6, r0, r3
 8002f84:	f7ff fb28 	bl	80025d8 <HAL_RCC_GetPCLK1Freq>
 8002f88:	4360      	muls	r0, r4
 8002f8a:	f8d9 3004 	ldr.w	r3, [r9, #4]
 8002f8e:	005b      	lsls	r3, r3, #1
 8002f90:	fbb0 f3f3 	udiv	r3, r0, r3
 8002f94:	fbb3 f3f8 	udiv	r3, r3, r8
 8002f98:	fb08 6313 	mls	r3, r8, r3, r6
 8002f9c:	00db      	lsls	r3, r3, #3
 8002f9e:	3332      	adds	r3, #50	; 0x32
 8002fa0:	fbb3 f3f8 	udiv	r3, r3, r8
 8002fa4:	005b      	lsls	r3, r3, #1
 8002fa6:	f403 76f8 	and.w	r6, r3, #496	; 0x1f0
 8002faa:	f7ff fb15 	bl	80025d8 <HAL_RCC_GetPCLK1Freq>
 8002fae:	4360      	muls	r0, r4
 8002fb0:	f8d9 2004 	ldr.w	r2, [r9, #4]
 8002fb4:	0052      	lsls	r2, r2, #1
 8002fb6:	fbb0 faf2 	udiv	sl, r0, r2
 8002fba:	f7ff fb0d 	bl	80025d8 <HAL_RCC_GetPCLK1Freq>
 8002fbe:	e7b6      	b.n	8002f2e <UART_SetConfig+0xb6>
    if((huart->Instance == USART1))
 8002fc0:	429d      	cmp	r5, r3
 8002fc2:	f04f 0419 	mov.w	r4, #25
 8002fc6:	d143      	bne.n	8003050 <UART_SetConfig+0x1d8>
      huart->Instance->BRR = UART_BRR_SAMPLING16(HAL_RCC_GetPCLK2Freq(), huart->Init.BaudRate);
 8002fc8:	f7ff fb1e 	bl	8002608 <HAL_RCC_GetPCLK2Freq>
 8002fcc:	fb04 f300 	mul.w	r3, r4, r0
 8002fd0:	f8d9 6004 	ldr.w	r6, [r9, #4]
 8002fd4:	f04f 0864 	mov.w	r8, #100	; 0x64
 8002fd8:	00b6      	lsls	r6, r6, #2
 8002fda:	fbb3 f3f6 	udiv	r3, r3, r6
 8002fde:	fbb3 f3f8 	udiv	r3, r3, r8
 8002fe2:	011e      	lsls	r6, r3, #4
 8002fe4:	f7ff fb10 	bl	8002608 <HAL_RCC_GetPCLK2Freq>
 8002fe8:	4360      	muls	r0, r4
 8002fea:	f8d9 3004 	ldr.w	r3, [r9, #4]
 8002fee:	009b      	lsls	r3, r3, #2
 8002ff0:	fbb0 f7f3 	udiv	r7, r0, r3
 8002ff4:	f7ff fb08 	bl	8002608 <HAL_RCC_GetPCLK2Freq>
 8002ff8:	4360      	muls	r0, r4
 8002ffa:	f8d9 3004 	ldr.w	r3, [r9, #4]
 8002ffe:	009b      	lsls	r3, r3, #2
 8003000:	fbb0 f3f3 	udiv	r3, r0, r3
 8003004:	fbb3 f3f8 	udiv	r3, r3, r8
 8003008:	fb08 7313 	mls	r3, r8, r3, r7
 800300c:	011b      	lsls	r3, r3, #4
 800300e:	3332      	adds	r3, #50	; 0x32
 8003010:	fbb3 f3f8 	udiv	r3, r3, r8
 8003014:	f003 07f0 	and.w	r7, r3, #240	; 0xf0
 8003018:	f7ff faf6 	bl	8002608 <HAL_RCC_GetPCLK2Freq>
 800301c:	4360      	muls	r0, r4
 800301e:	f8d9 2004 	ldr.w	r2, [r9, #4]
 8003022:	0092      	lsls	r2, r2, #2
 8003024:	fbb0 faf2 	udiv	sl, r0, r2
 8003028:	f7ff faee 	bl	8002608 <HAL_RCC_GetPCLK2Freq>
      huart->Instance->BRR = UART_BRR_SAMPLING16(HAL_RCC_GetPCLK1Freq(), huart->Init.BaudRate);
 800302c:	4360      	muls	r0, r4
 800302e:	f8d9 3004 	ldr.w	r3, [r9, #4]
 8003032:	009b      	lsls	r3, r3, #2
 8003034:	fbb0 f3f3 	udiv	r3, r0, r3
 8003038:	fbb3 f3f8 	udiv	r3, r3, r8
 800303c:	fb08 a313 	mls	r3, r8, r3, sl
 8003040:	011b      	lsls	r3, r3, #4
 8003042:	3332      	adds	r3, #50	; 0x32
 8003044:	fbb3 f3f8 	udiv	r3, r3, r8
 8003048:	f003 030f 	and.w	r3, r3, #15
 800304c:	433b      	orrs	r3, r7
 800304e:	e77f      	b.n	8002f50 <UART_SetConfig+0xd8>
 8003050:	f7ff fac2 	bl	80025d8 <HAL_RCC_GetPCLK1Freq>
 8003054:	fb04 f300 	mul.w	r3, r4, r0
 8003058:	f8d9 6004 	ldr.w	r6, [r9, #4]
 800305c:	f04f 0864 	mov.w	r8, #100	; 0x64
 8003060:	00b6      	lsls	r6, r6, #2
 8003062:	fbb3 f3f6 	udiv	r3, r3, r6
 8003066:	fbb3 f3f8 	udiv	r3, r3, r8
 800306a:	011e      	lsls	r6, r3, #4
 800306c:	f7ff fab4 	bl	80025d8 <HAL_RCC_GetPCLK1Freq>
 8003070:	4360      	muls	r0, r4
 8003072:	f8d9 3004 	ldr.w	r3, [r9, #4]
 8003076:	009b      	lsls	r3, r3, #2
 8003078:	fbb0 f7f3 	udiv	r7, r0, r3
 800307c:	f7ff faac 	bl	80025d8 <HAL_RCC_GetPCLK1Freq>
 8003080:	4360      	muls	r0, r4
 8003082:	f8d9 3004 	ldr.w	r3, [r9, #4]
 8003086:	009b      	lsls	r3, r3, #2
 8003088:	fbb0 f3f3 	udiv	r3, r0, r3
 800308c:	fbb3 f3f8 	udiv	r3, r3, r8
 8003090:	fb08 7313 	mls	r3, r8, r3, r7
 8003094:	011b      	lsls	r3, r3, #4
 8003096:	3332      	adds	r3, #50	; 0x32
 8003098:	fbb3 f3f8 	udiv	r3, r3, r8
 800309c:	f003 07f0 	and.w	r7, r3, #240	; 0xf0
 80030a0:	f7ff fa9a 	bl	80025d8 <HAL_RCC_GetPCLK1Freq>
 80030a4:	4360      	muls	r0, r4
 80030a6:	f8d9 2004 	ldr.w	r2, [r9, #4]
 80030aa:	0092      	lsls	r2, r2, #2
 80030ac:	fbb0 faf2 	udiv	sl, r0, r2
 80030b0:	f7ff fa92 	bl	80025d8 <HAL_RCC_GetPCLK1Freq>
 80030b4:	e7ba      	b.n	800302c <UART_SetConfig+0x1b4>
 80030b6:	bf00      	nop
 80030b8:	40013800 	.word	0x40013800

080030bc <UART_WaitOnFlagUntilTimeout.constprop.1>:
static HAL_StatusTypeDef UART_WaitOnFlagUntilTimeout(UART_HandleTypeDef *huart, uint32_t Flag, FlagStatus Status, uint32_t Timeout)
 80030bc:	b5f8      	push	{r3, r4, r5, r6, r7, lr}
 80030be:	4604      	mov	r4, r0
 80030c0:	460e      	mov	r6, r1
 80030c2:	4615      	mov	r5, r2
  tickstart = HAL_GetTick();
 80030c4:	f7fe f890 	bl	80011e8 <HAL_GetTick>
 80030c8:	4607      	mov	r7, r0
    while(__HAL_UART_GET_FLAG(huart, Flag) == RESET)
 80030ca:	6822      	ldr	r2, [r4, #0]
 80030cc:	6813      	ldr	r3, [r2, #0]
 80030ce:	ea36 0303 	bics.w	r3, r6, r3
 80030d2:	d101      	bne.n	80030d8 <UART_WaitOnFlagUntilTimeout.constprop.1+0x1c>
  return HAL_OK;
 80030d4:	2000      	movs	r0, #0
}
 80030d6:	bdf8      	pop	{r3, r4, r5, r6, r7, pc}
      if(Timeout != HAL_MAX_DELAY)
 80030d8:	1c6b      	adds	r3, r5, #1
 80030da:	d0f7      	beq.n	80030cc <UART_WaitOnFlagUntilTimeout.constprop.1+0x10>
        if((Timeout == 0)||((HAL_GetTick() - tickstart ) > Timeout))
 80030dc:	b9c5      	cbnz	r5, 8003110 <UART_WaitOnFlagUntilTimeout.constprop.1+0x54>
          __HAL_UART_DISABLE_IT(huart, UART_IT_TXE);
 80030de:	6823      	ldr	r3, [r4, #0]
          return HAL_TIMEOUT;
 80030e0:	2003      	movs	r0, #3
          __HAL_UART_DISABLE_IT(huart, UART_IT_TXE);
 80030e2:	68da      	ldr	r2, [r3, #12]
 80030e4:	f022 0280 	bic.w	r2, r2, #128	; 0x80
 80030e8:	60da      	str	r2, [r3, #12]
          __HAL_UART_DISABLE_IT(huart, UART_IT_RXNE);
 80030ea:	68da      	ldr	r2, [r3, #12]
 80030ec:	f022 0220 	bic.w	r2, r2, #32
 80030f0:	60da      	str	r2, [r3, #12]
          __HAL_UART_DISABLE_IT(huart, UART_IT_PE);
 80030f2:	68da      	ldr	r2, [r3, #12]
 80030f4:	f422 7280 	bic.w	r2, r2, #256	; 0x100
 80030f8:	60da      	str	r2, [r3, #12]
          __HAL_UART_DISABLE_IT(huart, UART_IT_ERR);
 80030fa:	695a      	ldr	r2, [r3, #20]
 80030fc:	f022 0201 	bic.w	r2, r2, #1
 8003100:	615a      	str	r2, [r3, #20]
          huart->State= HAL_UART_STATE_READY;
 8003102:	2301      	movs	r3, #1
 8003104:	f884 3039 	strb.w	r3, [r4, #57]	; 0x39
          __HAL_UNLOCK(huart);
 8003108:	2300      	movs	r3, #0
 800310a:	f884 3038 	strb.w	r3, [r4, #56]	; 0x38
 800310e:	bdf8      	pop	{r3, r4, r5, r6, r7, pc}
        if((Timeout == 0)||((HAL_GetTick() - tickstart ) > Timeout))
 8003110:	f7fe f86a 	bl	80011e8 <HAL_GetTick>
 8003114:	1bc0      	subs	r0, r0, r7
 8003116:	4285      	cmp	r5, r0
 8003118:	d2d7      	bcs.n	80030ca <UART_WaitOnFlagUntilTimeout.constprop.1+0xe>
 800311a:	e7e0      	b.n	80030de <UART_WaitOnFlagUntilTimeout.constprop.1+0x22>

0800311c <HAL_UART_Init>:
{
 800311c:	b510      	push	{r4, lr}
  if(huart == NULL)
 800311e:	4604      	mov	r4, r0
 8003120:	b330      	cbz	r0, 8003170 <HAL_UART_Init+0x54>
  if(huart->State == HAL_UART_STATE_RESET)
 8003122:	f890 3039 	ldrb.w	r3, [r0, #57]	; 0x39
 8003126:	f003 02ff 	and.w	r2, r3, #255	; 0xff
 800312a:	b91b      	cbnz	r3, 8003134 <HAL_UART_Init+0x18>
    huart->Lock = HAL_UNLOCKED;
 800312c:	f880 2038 	strb.w	r2, [r0, #56]	; 0x38
    HAL_UART_MspInit(huart);
 8003130:	f001 ffe0 	bl	80050f4 <HAL_UART_MspInit>
  huart->State = HAL_UART_STATE_BUSY;
 8003134:	2302      	movs	r3, #2
  __HAL_UART_DISABLE(huart);
 8003136:	6822      	ldr	r2, [r4, #0]
  huart->State = HAL_UART_STATE_BUSY;
 8003138:	f884 3039 	strb.w	r3, [r4, #57]	; 0x39
  __HAL_UART_DISABLE(huart);
 800313c:	68d3      	ldr	r3, [r2, #12]
  UART_SetConfig(huart);
 800313e:	4620      	mov	r0, r4
  __HAL_UART_DISABLE(huart);
 8003140:	f423 5300 	bic.w	r3, r3, #8192	; 0x2000
 8003144:	60d3      	str	r3, [r2, #12]
  UART_SetConfig(huart);
 8003146:	f7ff fe97 	bl	8002e78 <UART_SetConfig>
  CLEAR_BIT(huart->Instance->CR2, (USART_CR2_LINEN | USART_CR2_CLKEN));
 800314a:	6823      	ldr	r3, [r4, #0]
  huart->ErrorCode = HAL_UART_ERROR_NONE;
 800314c:	2000      	movs	r0, #0
  CLEAR_BIT(huart->Instance->CR2, (USART_CR2_LINEN | USART_CR2_CLKEN));
 800314e:	691a      	ldr	r2, [r3, #16]
 8003150:	f422 4290 	bic.w	r2, r2, #18432	; 0x4800
 8003154:	611a      	str	r2, [r3, #16]
  CLEAR_BIT(huart->Instance->CR3, (USART_CR3_SCEN | USART_CR3_HDSEL | USART_CR3_IREN));
 8003156:	695a      	ldr	r2, [r3, #20]
 8003158:	f022 022a 	bic.w	r2, r2, #42	; 0x2a
 800315c:	615a      	str	r2, [r3, #20]
  __HAL_UART_ENABLE(huart);
 800315e:	68da      	ldr	r2, [r3, #12]
 8003160:	f442 5200 	orr.w	r2, r2, #8192	; 0x2000
 8003164:	60da      	str	r2, [r3, #12]
  huart->State= HAL_UART_STATE_READY;
 8003166:	2301      	movs	r3, #1
  huart->ErrorCode = HAL_UART_ERROR_NONE;
 8003168:	63e0      	str	r0, [r4, #60]	; 0x3c
  huart->State= HAL_UART_STATE_READY;
 800316a:	f884 3039 	strb.w	r3, [r4, #57]	; 0x39
  return HAL_OK;
 800316e:	bd10      	pop	{r4, pc}
    return HAL_ERROR;
 8003170:	2001      	movs	r0, #1
}
 8003172:	bd10      	pop	{r4, pc}

08003174 <HAL_UART_Transmit>:
{
 8003174:	b570      	push	{r4, r5, r6, lr}
 8003176:	460d      	mov	r5, r1
  tmp_state = huart->State;
 8003178:	f890 1039 	ldrb.w	r1, [r0, #57]	; 0x39
{
 800317c:	4604      	mov	r4, r0
  tmp_state = huart->State;
 800317e:	b2c9      	uxtb	r1, r1
  if((tmp_state == HAL_UART_STATE_READY) || (tmp_state == HAL_UART_STATE_BUSY_RX))
 8003180:	2901      	cmp	r1, #1
{
 8003182:	461e      	mov	r6, r3
  if((tmp_state == HAL_UART_STATE_READY) || (tmp_state == HAL_UART_STATE_BUSY_RX))
 8003184:	d001      	beq.n	800318a <HAL_UART_Transmit+0x16>
 8003186:	2922      	cmp	r1, #34	; 0x22
 8003188:	d14d      	bne.n	8003226 <HAL_UART_Transmit+0xb2>
    if((pData == NULL) || (Size == 0))
 800318a:	2d00      	cmp	r5, #0
 800318c:	d049      	beq.n	8003222 <HAL_UART_Transmit+0xae>
 800318e:	2a00      	cmp	r2, #0
 8003190:	d047      	beq.n	8003222 <HAL_UART_Transmit+0xae>
    __HAL_LOCK(huart);
 8003192:	f894 3038 	ldrb.w	r3, [r4, #56]	; 0x38
 8003196:	2b01      	cmp	r3, #1
 8003198:	d045      	beq.n	8003226 <HAL_UART_Transmit+0xb2>
 800319a:	2301      	movs	r3, #1
 800319c:	f884 3038 	strb.w	r3, [r4, #56]	; 0x38
    huart->ErrorCode = HAL_UART_ERROR_NONE;
 80031a0:	2300      	movs	r3, #0
 80031a2:	63e3      	str	r3, [r4, #60]	; 0x3c
    if(huart->State == HAL_UART_STATE_BUSY_RX) 
 80031a4:	f894 3039 	ldrb.w	r3, [r4, #57]	; 0x39
    huart->TxXferSize = Size;
 80031a8:	84a2      	strh	r2, [r4, #36]	; 0x24
    if(huart->State == HAL_UART_STATE_BUSY_RX) 
 80031aa:	2b22      	cmp	r3, #34	; 0x22
      huart->State = HAL_UART_STATE_BUSY_TX_RX;
 80031ac:	bf0c      	ite	eq
 80031ae:	2332      	moveq	r3, #50	; 0x32
      huart->State = HAL_UART_STATE_BUSY_TX;
 80031b0:	2312      	movne	r3, #18
    huart->TxXferCount = Size;
 80031b2:	84e2      	strh	r2, [r4, #38]	; 0x26
      huart->State = HAL_UART_STATE_BUSY_TX;
 80031b4:	f884 3039 	strb.w	r3, [r4, #57]	; 0x39
    while(huart->TxXferCount > 0)
 80031b8:	8ce2      	ldrh	r2, [r4, #38]	; 0x26
 80031ba:	b98a      	cbnz	r2, 80031e0 <HAL_UART_Transmit+0x6c>
    if(UART_WaitOnFlagUntilTimeout(huart, UART_FLAG_TC, RESET, Timeout) != HAL_OK)
 80031bc:	4632      	mov	r2, r6
 80031be:	2140      	movs	r1, #64	; 0x40
 80031c0:	4620      	mov	r0, r4
 80031c2:	f7ff ff7b 	bl	80030bc <UART_WaitOnFlagUntilTimeout.constprop.1>
 80031c6:	b9c0      	cbnz	r0, 80031fa <HAL_UART_Transmit+0x86>
    if(huart->State == HAL_UART_STATE_BUSY_TX_RX) 
 80031c8:	f894 3039 	ldrb.w	r3, [r4, #57]	; 0x39
 80031cc:	2b32      	cmp	r3, #50	; 0x32
      huart->State = HAL_UART_STATE_BUSY_RX;
 80031ce:	bf0c      	ite	eq
 80031d0:	2322      	moveq	r3, #34	; 0x22
      huart->State = HAL_UART_STATE_READY;
 80031d2:	2301      	movne	r3, #1
 80031d4:	f884 3039 	strb.w	r3, [r4, #57]	; 0x39
    __HAL_UNLOCK(huart);
 80031d8:	2300      	movs	r3, #0
 80031da:	f884 3038 	strb.w	r3, [r4, #56]	; 0x38
    return HAL_OK;
 80031de:	bd70      	pop	{r4, r5, r6, pc}
      if(huart->Init.WordLength == UART_WORDLENGTH_9B)
 80031e0:	68a3      	ldr	r3, [r4, #8]
      huart->TxXferCount--;
 80031e2:	3a01      	subs	r2, #1
      if(huart->Init.WordLength == UART_WORDLENGTH_9B)
 80031e4:	f5b3 5f80 	cmp.w	r3, #4096	; 0x1000
      huart->TxXferCount--;
 80031e8:	84e2      	strh	r2, [r4, #38]	; 0x26
        if(UART_WaitOnFlagUntilTimeout(huart, UART_FLAG_TXE, RESET, Timeout) != HAL_OK)
 80031ea:	f04f 0180 	mov.w	r1, #128	; 0x80
 80031ee:	4632      	mov	r2, r6
 80031f0:	4620      	mov	r0, r4
      if(huart->Init.WordLength == UART_WORDLENGTH_9B)
 80031f2:	d10d      	bne.n	8003210 <HAL_UART_Transmit+0x9c>
        if(UART_WaitOnFlagUntilTimeout(huart, UART_FLAG_TXE, RESET, Timeout) != HAL_OK)
 80031f4:	f7ff ff62 	bl	80030bc <UART_WaitOnFlagUntilTimeout.constprop.1>
 80031f8:	b108      	cbz	r0, 80031fe <HAL_UART_Transmit+0x8a>
          return HAL_TIMEOUT;
 80031fa:	2003      	movs	r0, #3
 80031fc:	bd70      	pop	{r4, r5, r6, pc}
        huart->Instance->DR = (*tmp & (uint16_t)0x01FF);
 80031fe:	882b      	ldrh	r3, [r5, #0]
 8003200:	6822      	ldr	r2, [r4, #0]
 8003202:	f3c3 0308 	ubfx	r3, r3, #0, #9
 8003206:	6053      	str	r3, [r2, #4]
        if(huart->Init.Parity == UART_PARITY_NONE)
 8003208:	6923      	ldr	r3, [r4, #16]
 800320a:	b943      	cbnz	r3, 800321e <HAL_UART_Transmit+0xaa>
          pData +=2;
 800320c:	3502      	adds	r5, #2
 800320e:	e7d3      	b.n	80031b8 <HAL_UART_Transmit+0x44>
        if(UART_WaitOnFlagUntilTimeout(huart, UART_FLAG_TXE, RESET, Timeout) != HAL_OK)
 8003210:	f7ff ff54 	bl	80030bc <UART_WaitOnFlagUntilTimeout.constprop.1>
 8003214:	2800      	cmp	r0, #0
 8003216:	d1f0      	bne.n	80031fa <HAL_UART_Transmit+0x86>
        huart->Instance->DR = (*pData++ & (uint8_t)0xFF);
 8003218:	6823      	ldr	r3, [r4, #0]
 800321a:	782a      	ldrb	r2, [r5, #0]
 800321c:	605a      	str	r2, [r3, #4]
 800321e:	3501      	adds	r5, #1
 8003220:	e7ca      	b.n	80031b8 <HAL_UART_Transmit+0x44>
      return  HAL_ERROR;
 8003222:	2001      	movs	r0, #1
 8003224:	bd70      	pop	{r4, r5, r6, pc}
    return HAL_BUSY;
 8003226:	2002      	movs	r0, #2
}
 8003228:	bd70      	pop	{r4, r5, r6, pc}

0800322a <HAL_UART_Receive_IT>:
  tmp_state = huart->State;
 800322a:	f890 3039 	ldrb.w	r3, [r0, #57]	; 0x39
 800322e:	b2db      	uxtb	r3, r3
  if((tmp_state == HAL_UART_STATE_READY) || (tmp_state == HAL_UART_STATE_BUSY_TX))
 8003230:	2b01      	cmp	r3, #1
 8003232:	d001      	beq.n	8003238 <HAL_UART_Receive_IT+0xe>
 8003234:	2b12      	cmp	r3, #18
 8003236:	d128      	bne.n	800328a <HAL_UART_Receive_IT+0x60>
    if((pData == NULL ) || (Size == 0))
 8003238:	b329      	cbz	r1, 8003286 <HAL_UART_Receive_IT+0x5c>
 800323a:	b322      	cbz	r2, 8003286 <HAL_UART_Receive_IT+0x5c>
    __HAL_LOCK(huart);
 800323c:	f890 3038 	ldrb.w	r3, [r0, #56]	; 0x38
 8003240:	2b01      	cmp	r3, #1
 8003242:	d022      	beq.n	800328a <HAL_UART_Receive_IT+0x60>
 8003244:	2301      	movs	r3, #1
 8003246:	f880 3038 	strb.w	r3, [r0, #56]	; 0x38
    huart->ErrorCode = HAL_UART_ERROR_NONE;
 800324a:	2300      	movs	r3, #0
 800324c:	63c3      	str	r3, [r0, #60]	; 0x3c
    huart->RxXferSize = Size;
 800324e:	8582      	strh	r2, [r0, #44]	; 0x2c
    huart->RxXferCount = Size;
 8003250:	85c2      	strh	r2, [r0, #46]	; 0x2e
    if(huart->State == HAL_UART_STATE_BUSY_TX)
 8003252:	f890 2039 	ldrb.w	r2, [r0, #57]	; 0x39
    __HAL_UNLOCK(huart);
 8003256:	f880 3038 	strb.w	r3, [r0, #56]	; 0x38
    if(huart->State == HAL_UART_STATE_BUSY_TX)
 800325a:	2a12      	cmp	r2, #18
      huart->State = HAL_UART_STATE_BUSY_TX_RX;
 800325c:	bf0c      	ite	eq
 800325e:	2232      	moveq	r2, #50	; 0x32
      huart->State = HAL_UART_STATE_BUSY_RX;
 8003260:	2222      	movne	r2, #34	; 0x22
    __HAL_UART_ENABLE_IT(huart, UART_IT_PE);
 8003262:	6803      	ldr	r3, [r0, #0]
      huart->State = HAL_UART_STATE_BUSY_RX;
 8003264:	f880 2039 	strb.w	r2, [r0, #57]	; 0x39
    __HAL_UART_ENABLE_IT(huart, UART_IT_PE);
 8003268:	68da      	ldr	r2, [r3, #12]
    huart->pRxBuffPtr = pData;
 800326a:	6281      	str	r1, [r0, #40]	; 0x28
    __HAL_UART_ENABLE_IT(huart, UART_IT_PE);
 800326c:	f442 7280 	orr.w	r2, r2, #256	; 0x100
 8003270:	60da      	str	r2, [r3, #12]
    __HAL_UART_ENABLE_IT(huart, UART_IT_ERR);
 8003272:	695a      	ldr	r2, [r3, #20]
    return HAL_OK;
 8003274:	2000      	movs	r0, #0
    __HAL_UART_ENABLE_IT(huart, UART_IT_ERR);
 8003276:	f042 0201 	orr.w	r2, r2, #1
 800327a:	615a      	str	r2, [r3, #20]
    __HAL_UART_ENABLE_IT(huart, UART_IT_RXNE);
 800327c:	68da      	ldr	r2, [r3, #12]
 800327e:	f042 0220 	orr.w	r2, r2, #32
 8003282:	60da      	str	r2, [r3, #12]
    return HAL_OK;
 8003284:	4770      	bx	lr
      return HAL_ERROR;
 8003286:	2001      	movs	r0, #1
 8003288:	4770      	bx	lr
    return HAL_BUSY;
 800328a:	2002      	movs	r0, #2
}
 800328c:	4770      	bx	lr

0800328e <HAL_UART_TxCpltCallback>:
 800328e:	4770      	bx	lr

08003290 <HAL_UART_ErrorCallback>:
{
 8003290:	4770      	bx	lr

08003292 <HAL_UART_IRQHandler>:
  tmp_flag = __HAL_UART_GET_FLAG(huart, UART_FLAG_PE);
 8003292:	6802      	ldr	r2, [r0, #0]
{
 8003294:	b513      	push	{r0, r1, r4, lr}
  tmp_flag = __HAL_UART_GET_FLAG(huart, UART_FLAG_PE);
 8003296:	6811      	ldr	r1, [r2, #0]
{
 8003298:	4604      	mov	r4, r0
  if((tmp_flag != RESET) && (tmp_it_source != RESET))
 800329a:	07c9      	lsls	r1, r1, #31
  tmp_it_source = __HAL_UART_GET_IT_SOURCE(huart, UART_IT_PE);  
 800329c:	68d3      	ldr	r3, [r2, #12]
  if((tmp_flag != RESET) && (tmp_it_source != RESET))
 800329e:	d505      	bpl.n	80032ac <HAL_UART_IRQHandler+0x1a>
 80032a0:	05db      	lsls	r3, r3, #23
    huart->ErrorCode |= HAL_UART_ERROR_PE;
 80032a2:	bf42      	ittt	mi
 80032a4:	6bc3      	ldrmi	r3, [r0, #60]	; 0x3c
 80032a6:	f043 0301 	orrmi.w	r3, r3, #1
 80032aa:	63c3      	strmi	r3, [r0, #60]	; 0x3c
  tmp_flag = __HAL_UART_GET_FLAG(huart, UART_FLAG_FE);
 80032ac:	6811      	ldr	r1, [r2, #0]
  tmp_it_source = __HAL_UART_GET_IT_SOURCE(huart, UART_IT_ERR);
 80032ae:	6953      	ldr	r3, [r2, #20]
  if((tmp_flag != RESET) && (tmp_it_source != RESET))
 80032b0:	0788      	lsls	r0, r1, #30
  tmp_it_source = __HAL_UART_GET_IT_SOURCE(huart, UART_IT_ERR);
 80032b2:	f003 0301 	and.w	r3, r3, #1
  if((tmp_flag != RESET) && (tmp_it_source != RESET))
 80032b6:	d504      	bpl.n	80032c2 <HAL_UART_IRQHandler+0x30>
 80032b8:	b11b      	cbz	r3, 80032c2 <HAL_UART_IRQHandler+0x30>
    huart->ErrorCode |= HAL_UART_ERROR_FE;
 80032ba:	6be1      	ldr	r1, [r4, #60]	; 0x3c
 80032bc:	f041 0104 	orr.w	r1, r1, #4
 80032c0:	63e1      	str	r1, [r4, #60]	; 0x3c
  tmp_flag = __HAL_UART_GET_FLAG(huart, UART_FLAG_NE);
 80032c2:	6811      	ldr	r1, [r2, #0]
  if((tmp_flag != RESET) && (tmp_it_source != RESET))
 80032c4:	0749      	lsls	r1, r1, #29
 80032c6:	d504      	bpl.n	80032d2 <HAL_UART_IRQHandler+0x40>
 80032c8:	b11b      	cbz	r3, 80032d2 <HAL_UART_IRQHandler+0x40>
    huart->ErrorCode |= HAL_UART_ERROR_NE;
 80032ca:	6be1      	ldr	r1, [r4, #60]	; 0x3c
 80032cc:	f041 0102 	orr.w	r1, r1, #2
 80032d0:	63e1      	str	r1, [r4, #60]	; 0x3c
  tmp_flag = __HAL_UART_GET_FLAG(huart, UART_FLAG_ORE);
 80032d2:	6811      	ldr	r1, [r2, #0]
  if((tmp_flag != RESET) && (tmp_it_source != RESET))
 80032d4:	0708      	lsls	r0, r1, #28
 80032d6:	d504      	bpl.n	80032e2 <HAL_UART_IRQHandler+0x50>
 80032d8:	b11b      	cbz	r3, 80032e2 <HAL_UART_IRQHandler+0x50>
    huart->ErrorCode |= HAL_UART_ERROR_ORE;
 80032da:	6be3      	ldr	r3, [r4, #60]	; 0x3c
 80032dc:	f043 0308 	orr.w	r3, r3, #8
 80032e0:	63e3      	str	r3, [r4, #60]	; 0x3c
  tmp_flag = __HAL_UART_GET_FLAG(huart, UART_FLAG_RXNE);
 80032e2:	6811      	ldr	r1, [r2, #0]
  tmp_it_source = __HAL_UART_GET_IT_SOURCE(huart, UART_IT_RXNE);
 80032e4:	68d3      	ldr	r3, [r2, #12]
  if((tmp_flag != RESET) && (tmp_it_source != RESET))
 80032e6:	0689      	lsls	r1, r1, #26
 80032e8:	d533      	bpl.n	8003352 <HAL_UART_IRQHandler+0xc0>
 80032ea:	0698      	lsls	r0, r3, #26
 80032ec:	d531      	bpl.n	8003352 <HAL_UART_IRQHandler+0xc0>
  tmp_state = huart->State; 
 80032ee:	f894 3039 	ldrb.w	r3, [r4, #57]	; 0x39
  if((tmp_state == HAL_UART_STATE_BUSY_RX) || (tmp_state == HAL_UART_STATE_BUSY_TX_RX))
 80032f2:	f003 03ef 	and.w	r3, r3, #239	; 0xef
 80032f6:	2b22      	cmp	r3, #34	; 0x22
 80032f8:	d12b      	bne.n	8003352 <HAL_UART_IRQHandler+0xc0>
    if(huart->Init.WordLength == UART_WORDLENGTH_9B)
 80032fa:	68a3      	ldr	r3, [r4, #8]
 80032fc:	6921      	ldr	r1, [r4, #16]
 80032fe:	f5b3 5f80 	cmp.w	r3, #4096	; 0x1000
 8003302:	6aa3      	ldr	r3, [r4, #40]	; 0x28
 8003304:	d176      	bne.n	80033f4 <HAL_UART_IRQHandler+0x162>
        *tmp = (uint16_t)(huart->Instance->DR & (uint16_t)0x01FF);
 8003306:	6852      	ldr	r2, [r2, #4]
      if(huart->Init.Parity == UART_PARITY_NONE)
 8003308:	2900      	cmp	r1, #0
 800330a:	d16f      	bne.n	80033ec <HAL_UART_IRQHandler+0x15a>
        *tmp = (uint16_t)(huart->Instance->DR & (uint16_t)0x01FF);
 800330c:	f3c2 0208 	ubfx	r2, r2, #0, #9
 8003310:	f823 2b02 	strh.w	r2, [r3], #2
        huart->pRxBuffPtr += 1;
 8003314:	62a3      	str	r3, [r4, #40]	; 0x28
    if(--huart->RxXferCount == 0)
 8003316:	8de3      	ldrh	r3, [r4, #46]	; 0x2e
 8003318:	3b01      	subs	r3, #1
 800331a:	b29b      	uxth	r3, r3
 800331c:	85e3      	strh	r3, [r4, #46]	; 0x2e
 800331e:	b9c3      	cbnz	r3, 8003352 <HAL_UART_IRQHandler+0xc0>
      __HAL_UART_DISABLE_IT(huart, UART_IT_RXNE);
 8003320:	6823      	ldr	r3, [r4, #0]
      HAL_UART_RxCpltCallback(huart);
 8003322:	4620      	mov	r0, r4
      __HAL_UART_DISABLE_IT(huart, UART_IT_RXNE);
 8003324:	68da      	ldr	r2, [r3, #12]
 8003326:	f022 0220 	bic.w	r2, r2, #32
 800332a:	60da      	str	r2, [r3, #12]
      if(huart->State == HAL_UART_STATE_BUSY_TX_RX) 
 800332c:	f894 2039 	ldrb.w	r2, [r4, #57]	; 0x39
 8003330:	2a32      	cmp	r2, #50	; 0x32
        __HAL_UART_DISABLE_IT(huart, UART_IT_PE);
 8003332:	bf17      	itett	ne
 8003334:	68da      	ldrne	r2, [r3, #12]
        huart->State = HAL_UART_STATE_BUSY_TX;
 8003336:	2312      	moveq	r3, #18
        __HAL_UART_DISABLE_IT(huart, UART_IT_PE);
 8003338:	f422 7280 	bicne.w	r2, r2, #256	; 0x100
 800333c:	60da      	strne	r2, [r3, #12]
        __HAL_UART_DISABLE_IT(huart, UART_IT_ERR);
 800333e:	bf1f      	itttt	ne
 8003340:	695a      	ldrne	r2, [r3, #20]
 8003342:	f022 0201 	bicne.w	r2, r2, #1
 8003346:	615a      	strne	r2, [r3, #20]
        huart->State = HAL_UART_STATE_READY;
 8003348:	2301      	movne	r3, #1
 800334a:	f884 3039 	strb.w	r3, [r4, #57]	; 0x39
      HAL_UART_RxCpltCallback(huart);
 800334e:	f000 f9ad 	bl	80036ac <HAL_UART_RxCpltCallback>
  tmp_flag = __HAL_UART_GET_FLAG(huart, UART_FLAG_TXE);
 8003352:	6823      	ldr	r3, [r4, #0]
 8003354:	6819      	ldr	r1, [r3, #0]
  tmp_it_source = __HAL_UART_GET_IT_SOURCE(huart, UART_IT_TXE);
 8003356:	68da      	ldr	r2, [r3, #12]
  if((tmp_flag != RESET) && (tmp_it_source != RESET))
 8003358:	0609      	lsls	r1, r1, #24
 800335a:	d522      	bpl.n	80033a2 <HAL_UART_IRQHandler+0x110>
 800335c:	0610      	lsls	r0, r2, #24
 800335e:	d520      	bpl.n	80033a2 <HAL_UART_IRQHandler+0x110>
  tmp_state = huart->State;
 8003360:	f894 2039 	ldrb.w	r2, [r4, #57]	; 0x39
  if((tmp_state == HAL_UART_STATE_BUSY_TX) || (tmp_state == HAL_UART_STATE_BUSY_TX_RX))
 8003364:	f002 02df 	and.w	r2, r2, #223	; 0xdf
 8003368:	2a12      	cmp	r2, #18
 800336a:	d11a      	bne.n	80033a2 <HAL_UART_IRQHandler+0x110>
    if(huart->Init.WordLength == UART_WORDLENGTH_9B)
 800336c:	68a2      	ldr	r2, [r4, #8]
 800336e:	f5b2 5f80 	cmp.w	r2, #4096	; 0x1000
 8003372:	6a22      	ldr	r2, [r4, #32]
 8003374:	d14c      	bne.n	8003410 <HAL_UART_IRQHandler+0x17e>
      huart->Instance->DR = (uint16_t)(*tmp & (uint16_t)0x01FF);
 8003376:	8811      	ldrh	r1, [r2, #0]
 8003378:	f3c1 0108 	ubfx	r1, r1, #0, #9
 800337c:	6059      	str	r1, [r3, #4]
      if(huart->Init.Parity == UART_PARITY_NONE)
 800337e:	6921      	ldr	r1, [r4, #16]
 8003380:	2900      	cmp	r1, #0
 8003382:	d143      	bne.n	800340c <HAL_UART_IRQHandler+0x17a>
        huart->pTxBuffPtr += 2;
 8003384:	3202      	adds	r2, #2
        huart->pTxBuffPtr += 1;
 8003386:	6222      	str	r2, [r4, #32]
    if(--huart->TxXferCount == 0)
 8003388:	8ce2      	ldrh	r2, [r4, #38]	; 0x26
 800338a:	3a01      	subs	r2, #1
 800338c:	b292      	uxth	r2, r2
 800338e:	84e2      	strh	r2, [r4, #38]	; 0x26
 8003390:	b93a      	cbnz	r2, 80033a2 <HAL_UART_IRQHandler+0x110>
      __HAL_UART_DISABLE_IT(huart, UART_IT_TXE);
 8003392:	68da      	ldr	r2, [r3, #12]
 8003394:	f022 0280 	bic.w	r2, r2, #128	; 0x80
 8003398:	60da      	str	r2, [r3, #12]
      __HAL_UART_ENABLE_IT(huart, UART_IT_TC);
 800339a:	68da      	ldr	r2, [r3, #12]
 800339c:	f042 0240 	orr.w	r2, r2, #64	; 0x40
 80033a0:	60da      	str	r2, [r3, #12]
  tmp_flag = __HAL_UART_GET_FLAG(huart, UART_FLAG_TC);
 80033a2:	6819      	ldr	r1, [r3, #0]
  tmp_it_source = __HAL_UART_GET_IT_SOURCE(huart, UART_IT_TC);
 80033a4:	68da      	ldr	r2, [r3, #12]
  if((tmp_flag != RESET) && (tmp_it_source != RESET))
 80033a6:	0649      	lsls	r1, r1, #25
 80033a8:	d510      	bpl.n	80033cc <HAL_UART_IRQHandler+0x13a>
 80033aa:	0652      	lsls	r2, r2, #25
 80033ac:	d50e      	bpl.n	80033cc <HAL_UART_IRQHandler+0x13a>
  __HAL_UART_DISABLE_IT(huart, UART_IT_TC);
 80033ae:	68da      	ldr	r2, [r3, #12]
  HAL_UART_TxCpltCallback(huart);
 80033b0:	4620      	mov	r0, r4
  __HAL_UART_DISABLE_IT(huart, UART_IT_TC);
 80033b2:	f022 0240 	bic.w	r2, r2, #64	; 0x40
 80033b6:	60da      	str	r2, [r3, #12]
  if(huart->State == HAL_UART_STATE_BUSY_TX_RX) 
 80033b8:	f894 3039 	ldrb.w	r3, [r4, #57]	; 0x39
 80033bc:	2b32      	cmp	r3, #50	; 0x32
    huart->State = HAL_UART_STATE_BUSY_RX;
 80033be:	bf0c      	ite	eq
 80033c0:	2322      	moveq	r3, #34	; 0x22
    huart->State = HAL_UART_STATE_READY;
 80033c2:	2301      	movne	r3, #1
 80033c4:	f884 3039 	strb.w	r3, [r4, #57]	; 0x39
  HAL_UART_TxCpltCallback(huart);
 80033c8:	f7ff ff61 	bl	800328e <HAL_UART_TxCpltCallback>
  if(huart->ErrorCode != HAL_UART_ERROR_NONE)
 80033cc:	6be3      	ldr	r3, [r4, #60]	; 0x3c
 80033ce:	b15b      	cbz	r3, 80033e8 <HAL_UART_IRQHandler+0x156>
    __HAL_UART_CLEAR_PEFLAG(huart);
 80033d0:	6823      	ldr	r3, [r4, #0]
    HAL_UART_ErrorCallback(huart);
 80033d2:	4620      	mov	r0, r4
    __HAL_UART_CLEAR_PEFLAG(huart);
 80033d4:	681a      	ldr	r2, [r3, #0]
 80033d6:	9201      	str	r2, [sp, #4]
 80033d8:	685b      	ldr	r3, [r3, #4]
 80033da:	9301      	str	r3, [sp, #4]
 80033dc:	9b01      	ldr	r3, [sp, #4]
    huart->State = HAL_UART_STATE_READY;
 80033de:	2301      	movs	r3, #1
 80033e0:	f884 3039 	strb.w	r3, [r4, #57]	; 0x39
    HAL_UART_ErrorCallback(huart);
 80033e4:	f7ff ff54 	bl	8003290 <HAL_UART_ErrorCallback>
}
 80033e8:	b002      	add	sp, #8
 80033ea:	bd10      	pop	{r4, pc}
        *tmp = (uint16_t)(huart->Instance->DR & (uint16_t)0x00FF);
 80033ec:	b2d2      	uxtb	r2, r2
 80033ee:	f823 2b01 	strh.w	r2, [r3], #1
 80033f2:	e78f      	b.n	8003314 <HAL_UART_IRQHandler+0x82>
      if(huart->Init.Parity == UART_PARITY_NONE)
 80033f4:	b921      	cbnz	r1, 8003400 <HAL_UART_IRQHandler+0x16e>
        *huart->pRxBuffPtr++ = (uint8_t)(huart->Instance->DR & (uint8_t)0x00FF);
 80033f6:	1c59      	adds	r1, r3, #1
 80033f8:	6852      	ldr	r2, [r2, #4]
 80033fa:	62a1      	str	r1, [r4, #40]	; 0x28
        *huart->pRxBuffPtr++ = (uint8_t)(huart->Instance->DR & (uint8_t)0x007F);
 80033fc:	701a      	strb	r2, [r3, #0]
 80033fe:	e78a      	b.n	8003316 <HAL_UART_IRQHandler+0x84>
 8003400:	6852      	ldr	r2, [r2, #4]
 8003402:	1c59      	adds	r1, r3, #1
 8003404:	62a1      	str	r1, [r4, #40]	; 0x28
 8003406:	f002 027f 	and.w	r2, r2, #127	; 0x7f
 800340a:	e7f7      	b.n	80033fc <HAL_UART_IRQHandler+0x16a>
        huart->pTxBuffPtr += 1;
 800340c:	3201      	adds	r2, #1
 800340e:	e7ba      	b.n	8003386 <HAL_UART_IRQHandler+0xf4>
      huart->Instance->DR = (uint8_t)(*huart->pTxBuffPtr++ & (uint8_t)0x00FF);
 8003410:	1c51      	adds	r1, r2, #1
 8003412:	6221      	str	r1, [r4, #32]
 8003414:	7812      	ldrb	r2, [r2, #0]
 8003416:	605a      	str	r2, [r3, #4]
 8003418:	e7b6      	b.n	8003388 <HAL_UART_IRQHandler+0xf6>
	...

0800341c <EXE_CMD>:
		}
		//signal ready for new command
		Transfer_cplt = 0;
	}
}
void EXE_CMD(char*command, TIM_HandleTypeDef* Fan_TIM, UART_HandleTypeDef* huart){
 800341c:	e92d 43f0 	stmdb	sp!, {r4, r5, r6, r7, r8, r9, lr}
 8003420:	b0b9      	sub	sp, #228	; 0xe4
 8003422:	460e      	mov	r6, r1
	char cleaningbuffer[100];
	//copy command into buffer
	strcpy(cleaningbuffer, command);
 8003424:	4601      	mov	r1, r0
 8003426:	a806      	add	r0, sp, #24
void EXE_CMD(char*command, TIM_HandleTypeDef* Fan_TIM, UART_HandleTypeDef* huart){
 8003428:	4615      	mov	r5, r2
	strcpy(cleaningbuffer, command);
 800342a:	f002 f81a 	bl	8005462 <strcpy>

	char* tkpnt;
	//get first token
	tkpnt = strtok(cleaningbuffer, " ");
 800342e:	4992      	ldr	r1, [pc, #584]	; (8003678 <EXE_CMD+0x25c>)
 8003430:	a806      	add	r0, sp, #24
 8003432:	f002 fe5b 	bl	80060ec <strtok>
	if(strncmp(tkpnt, "s",1)==0){
 8003436:	7804      	ldrb	r4, [r0, #0]
	tkpnt = strtok(cleaningbuffer, " ");
 8003438:	4607      	mov	r7, r0
	if(strncmp(tkpnt, "s",1)==0){
 800343a:	2c73      	cmp	r4, #115	; 0x73
 800343c:	d107      	bne.n	800344e <EXE_CMD+0x32>
		/*
		 * Stop command, immediately stops all PWM, Brakes, and zeros all targets
		 */
		__HAL_TIM_SetCompare(Fan_TIM, TIM_CHANNEL_1, 0);
 800343e:	2200      	movs	r2, #0
 8003440:	6833      	ldr	r3, [r6, #0]
 8003442:	635a      	str	r2, [r3, #52]	; 0x34
		Stop_Motors();
	}else if(strncmp(tkpnt, "sm",2)==0){
		/*
		 * Stop motor command, immediately stops motor PWM, Brakes, and zeros all targets
		 */
		Stop_Motors();
 8003444:	f000 fd72 	bl	8003f2c <Stop_Motors>
	}else{
		char buffer[25];
		uint8_t len = sprintf(buffer,"Invalid Command\r\n"); //sprintf will return the length of 'buffer'
		HAL_UART_Transmit(huart, (unsigned char*)buffer, len, 1000);
	}
}
 8003448:	b039      	add	sp, #228	; 0xe4
 800344a:	e8bd 83f0 	ldmia.w	sp!, {r4, r5, r6, r7, r8, r9, pc}
	}else if(strncmp(tkpnt, "sm",2)==0){
 800344e:	2202      	movs	r2, #2
 8003450:	498a      	ldr	r1, [pc, #552]	; (800367c <EXE_CMD+0x260>)
 8003452:	f002 f80e 	bl	8005472 <strncmp>
 8003456:	2800      	cmp	r0, #0
 8003458:	d0f4      	beq.n	8003444 <EXE_CMD+0x28>
	}else if(strncmp(tkpnt, "sf",2)==0){
 800345a:	2202      	movs	r2, #2
 800345c:	4988      	ldr	r1, [pc, #544]	; (8003680 <EXE_CMD+0x264>)
 800345e:	4638      	mov	r0, r7
 8003460:	f002 f807 	bl	8005472 <strncmp>
 8003464:	b910      	cbnz	r0, 800346c <EXE_CMD+0x50>
		__HAL_TIM_SetCompare(Fan_TIM, TIM_CHANNEL_1, 0);
 8003466:	6833      	ldr	r3, [r6, #0]
		__HAL_TIM_SetCompare(Fan_TIM, TIM_CHANNEL_1, pwm);
 8003468:	6358      	str	r0, [r3, #52]	; 0x34
 800346a:	e7ed      	b.n	8003448 <EXE_CMD+0x2c>
	}else if (strncmp(tkpnt, "r",1)==0){
 800346c:	2c72      	cmp	r4, #114	; 0x72
 800346e:	d11a      	bne.n	80034a6 <EXE_CMD+0x8a>
		tkpnt = strtok(NULL, " ");
 8003470:	4981      	ldr	r1, [pc, #516]	; (8003678 <EXE_CMD+0x25c>)
 8003472:	2000      	movs	r0, #0
 8003474:	f002 fe3a 	bl	80060ec <strtok>
		float rotomega = atof(tkpnt);
 8003478:	f001 fe8f 	bl	800519a <atof>
 800347c:	4606      	mov	r6, r0
 800347e:	460f      	mov	r7, r1
		tkpnt = strtok(NULL, " ");
 8003480:	2000      	movs	r0, #0
 8003482:	497d      	ldr	r1, [pc, #500]	; (8003678 <EXE_CMD+0x25c>)
 8003484:	f002 fe32 	bl	80060ec <strtok>
		float rotphi = atof(tkpnt);
 8003488:	f001 fe87 	bl	800519a <atof>
 800348c:	f7fd fb1a 	bl	8000ac4 <__aeabi_d2f>
		float rotomega = atof(tkpnt);
 8003490:	4639      	mov	r1, r7
		float rotphi = atof(tkpnt);
 8003492:	4604      	mov	r4, r0
		float rotomega = atof(tkpnt);
 8003494:	4630      	mov	r0, r6
 8003496:	f7fd fb15 	bl	8000ac4 <__aeabi_d2f>
		setArc(rotR, rotomega, rotphi);
 800349a:	4622      	mov	r2, r4
 800349c:	4601      	mov	r1, r0
 800349e:	2000      	movs	r0, #0
		setArc(rotR, rotomega, rotphi);
 80034a0:	f000 fa56 	bl	8003950 <setArc>
 80034a4:	e7d0      	b.n	8003448 <EXE_CMD+0x2c>
	}else if(strncmp(tkpnt, "f",1)==0){
 80034a6:	2c66      	cmp	r4, #102	; 0x66
 80034a8:	d108      	bne.n	80034bc <EXE_CMD+0xa0>
		tkpnt = strtok(NULL, " ");
 80034aa:	4973      	ldr	r1, [pc, #460]	; (8003678 <EXE_CMD+0x25c>)
 80034ac:	2000      	movs	r0, #0
 80034ae:	f002 fe1d 	bl	80060ec <strtok>
		int pwm = atoi(tkpnt);
 80034b2:	f001 fe75 	bl	80051a0 <atoi>
		__HAL_TIM_SetCompare(Fan_TIM, TIM_CHANNEL_1, pwm);
 80034b6:	6833      	ldr	r3, [r6, #0]
		pwm = pwm + 255;
 80034b8:	30ff      	adds	r0, #255	; 0xff
 80034ba:	e7d5      	b.n	8003468 <EXE_CMD+0x4c>
	}else if(strncmp(tkpnt, "b",1)==0){
 80034bc:	2c62      	cmp	r4, #98	; 0x62
 80034be:	d112      	bne.n	80034e6 <EXE_CMD+0xca>
		tkpnt = strtok(NULL, " ");
 80034c0:	496d      	ldr	r1, [pc, #436]	; (8003678 <EXE_CMD+0x25c>)
 80034c2:	2000      	movs	r0, #0
 80034c4:	f002 fe12 	bl	80060ec <strtok>
		int16_t pwm = atoi(tkpnt);
 80034c8:	f001 fe6a 	bl	80051a0 <atoi>
		pwm = map(pwm, 0, 180, 125, 500);
 80034cc:	f44f 73fa 	mov.w	r3, #500	; 0x1f4
 80034d0:	22b4      	movs	r2, #180	; 0xb4
 80034d2:	9300      	str	r3, [sp, #0]
 80034d4:	2100      	movs	r1, #0
 80034d6:	237d      	movs	r3, #125	; 0x7d
 80034d8:	b280      	uxth	r0, r0
 80034da:	f000 fd5d 	bl	8003f98 <map>
		__HAL_TIM_SetCompare(Fan_TIM, TIM_CHANNEL_2, pwm);
 80034de:	6833      	ldr	r3, [r6, #0]
 80034e0:	b200      	sxth	r0, r0
 80034e2:	6398      	str	r0, [r3, #56]	; 0x38
 80034e4:	e7b0      	b.n	8003448 <EXE_CMD+0x2c>
	}else if(strncmp(tkpnt, "p",1)==0){
 80034e6:	2c70      	cmp	r4, #112	; 0x70
 80034e8:	d102      	bne.n	80034f0 <EXE_CMD+0xd4>
		startPP();
 80034ea:	f000 fd61 	bl	8003fb0 <startPP>
 80034ee:	e7ab      	b.n	8003448 <EXE_CMD+0x2c>
	}else if(strncmp(tkpnt, "l",1)==0){
 80034f0:	2c6c      	cmp	r4, #108	; 0x6c
 80034f2:	d118      	bne.n	8003526 <EXE_CMD+0x10a>
		tkpnt = strtok(NULL, " ");
 80034f4:	4960      	ldr	r1, [pc, #384]	; (8003678 <EXE_CMD+0x25c>)
 80034f6:	2000      	movs	r0, #0
 80034f8:	f002 fdf8 	bl	80060ec <strtok>
		float lindis = atof(tkpnt);
 80034fc:	f001 fe4d 	bl	800519a <atof>
 8003500:	4606      	mov	r6, r0
 8003502:	460f      	mov	r7, r1
		tkpnt = strtok(NULL, " ");
 8003504:	2000      	movs	r0, #0
 8003506:	495c      	ldr	r1, [pc, #368]	; (8003678 <EXE_CMD+0x25c>)
 8003508:	f002 fdf0 	bl	80060ec <strtok>
		float linspd = atof(tkpnt);
 800350c:	f001 fe45 	bl	800519a <atof>
 8003510:	f7fd fad8 	bl	8000ac4 <__aeabi_d2f>
 8003514:	4604      	mov	r4, r0
		float lindis = atof(tkpnt);
 8003516:	4639      	mov	r1, r7
 8003518:	4630      	mov	r0, r6
 800351a:	f7fd fad3 	bl	8000ac4 <__aeabi_d2f>
		setLin(lindis, linspd);
 800351e:	4621      	mov	r1, r4
 8003520:	f000 fae2 	bl	8003ae8 <setLin>
 8003524:	e790      	b.n	8003448 <EXE_CMD+0x2c>
	}else if(strncmp(tkpnt, "a",1)==0){
 8003526:	2c61      	cmp	r4, #97	; 0x61
 8003528:	d124      	bne.n	8003574 <EXE_CMD+0x158>
		tkpnt = strtok(NULL, " ");
 800352a:	4953      	ldr	r1, [pc, #332]	; (8003678 <EXE_CMD+0x25c>)
 800352c:	2000      	movs	r0, #0
 800352e:	f002 fddd 	bl	80060ec <strtok>
		float rotR = atof(tkpnt);
 8003532:	f001 fe32 	bl	800519a <atof>
 8003536:	4606      	mov	r6, r0
 8003538:	460f      	mov	r7, r1
		tkpnt = strtok(NULL, " ");
 800353a:	2000      	movs	r0, #0
 800353c:	494e      	ldr	r1, [pc, #312]	; (8003678 <EXE_CMD+0x25c>)
 800353e:	f002 fdd5 	bl	80060ec <strtok>
		float rotomega = atof(tkpnt);
 8003542:	f001 fe2a 	bl	800519a <atof>
 8003546:	4680      	mov	r8, r0
 8003548:	4689      	mov	r9, r1
		tkpnt = strtok(NULL, " ");
 800354a:	2000      	movs	r0, #0
 800354c:	494a      	ldr	r1, [pc, #296]	; (8003678 <EXE_CMD+0x25c>)
 800354e:	f002 fdcd 	bl	80060ec <strtok>
		float rotphi = atof(tkpnt);
 8003552:	f001 fe22 	bl	800519a <atof>
 8003556:	f7fd fab5 	bl	8000ac4 <__aeabi_d2f>
		float rotomega = atof(tkpnt);
 800355a:	4649      	mov	r1, r9
		float rotphi = atof(tkpnt);
 800355c:	4605      	mov	r5, r0
		float rotomega = atof(tkpnt);
 800355e:	4640      	mov	r0, r8
 8003560:	f7fd fab0 	bl	8000ac4 <__aeabi_d2f>
 8003564:	4604      	mov	r4, r0
		float rotR = atof(tkpnt);
 8003566:	4639      	mov	r1, r7
 8003568:	4630      	mov	r0, r6
 800356a:	f7fd faab 	bl	8000ac4 <__aeabi_d2f>
		setArc(rotR, rotomega, rotphi);
 800356e:	462a      	mov	r2, r5
 8003570:	4621      	mov	r1, r4
 8003572:	e795      	b.n	80034a0 <EXE_CMD+0x84>
	}else if(strncmp(tkpnt, "t",1)==0){
 8003574:	2c74      	cmp	r4, #116	; 0x74
 8003576:	d10e      	bne.n	8003596 <EXE_CMD+0x17a>
		uint8_t len=sprintf(buffer,"%i\r\n", (int)(HAL_GetTick())); //sprintf will return the length of 'buffer'
 8003578:	f7fd fe36 	bl	80011e8 <HAL_GetTick>
 800357c:	4602      	mov	r2, r0
 800357e:	4941      	ldr	r1, [pc, #260]	; (8003684 <EXE_CMD+0x268>)
		len = sprintf(buffer,"Left Encoder:%i\r\n", (int)(TIM2->CNT)); //sprintf will return the length of 'buffer'
 8003580:	a81f      	add	r0, sp, #124	; 0x7c
 8003582:	f001 ff3b 	bl	80053fc <siprintf>
		HAL_UART_Transmit(huart, (unsigned char*)buffer, len, 1000);
 8003586:	f44f 737a 	mov.w	r3, #1000	; 0x3e8
 800358a:	b2c2      	uxtb	r2, r0
		HAL_UART_Transmit(huart, (unsigned char*)buffer, len, 1000);
 800358c:	a91f      	add	r1, sp, #124	; 0x7c
 800358e:	4628      	mov	r0, r5
 8003590:	f7ff fdf0 	bl	8003174 <HAL_UART_Transmit>
}
 8003594:	e758      	b.n	8003448 <EXE_CMD+0x2c>
	}else if(strncmp(tkpnt, "d",1)==0){
 8003596:	2c64      	cmp	r4, #100	; 0x64
 8003598:	d109      	bne.n	80035ae <EXE_CMD+0x192>
		tkpnt = strtok(NULL, " ");
 800359a:	4937      	ldr	r1, [pc, #220]	; (8003678 <EXE_CMD+0x25c>)
 800359c:	2000      	movs	r0, #0
 800359e:	f002 fda5 	bl	80060ec <strtok>
		int16_t pwm = atoi(tkpnt);
 80035a2:	f001 fdfd 	bl	80051a0 <atoi>
		Run_MotorPWM(pwm);
 80035a6:	b200      	sxth	r0, r0
 80035a8:	f000 fc84 	bl	8003eb4 <Run_MotorPWM>
 80035ac:	e74c      	b.n	8003448 <EXE_CMD+0x2c>
	}else if(strncmp(tkpnt, "i",1)==0){
 80035ae:	2c69      	cmp	r4, #105	; 0x69
 80035b0:	d129      	bne.n	8003606 <EXE_CMD+0x1ea>
		uint8_t id = checkIMUID();
 80035b2:	f000 ff69 	bl	8004488 <checkIMUID>
		uint8_t len = sprintf(buffer,"ID :%x\r\n", id); //sprintf will return the length of 'buffer'
 80035b6:	4934      	ldr	r1, [pc, #208]	; (8003688 <EXE_CMD+0x26c>)
 80035b8:	4602      	mov	r2, r0
 80035ba:	a81f      	add	r0, sp, #124	; 0x7c
 80035bc:	f001 ff1e 	bl	80053fc <siprintf>
		HAL_UART_Transmit(huart, (unsigned char*)buffer, len, 1000);
 80035c0:	f44f 737a 	mov.w	r3, #1000	; 0x3e8
 80035c4:	b2c2      	uxtb	r2, r0
 80035c6:	a91f      	add	r1, sp, #124	; 0x7c
 80035c8:	4628      	mov	r0, r5
 80035ca:	f7ff fdd3 	bl	8003174 <HAL_UART_Transmit>
		write8(OPR_MODE_ADD, OPERATION_MODE_IMUPLUS);
 80035ce:	2108      	movs	r1, #8
 80035d0:	203d      	movs	r0, #61	; 0x3d
 80035d2:	f000 ff3d 	bl	8004450 <write8>
		getEuler(euler);
 80035d6:	a803      	add	r0, sp, #12
 80035d8:	f000 ff59 	bl	800448e <getEuler>
		len = sprintf(buffer,"EulerX :%i\r\n", (int)(euler[0])); //sprintf will return the length of 'buffer'
 80035dc:	9803      	ldr	r0, [sp, #12]
 80035de:	f7fd fd95 	bl	800110c <__aeabi_f2iz>
 80035e2:	492a      	ldr	r1, [pc, #168]	; (800368c <EXE_CMD+0x270>)
 80035e4:	4602      	mov	r2, r0
 80035e6:	a81f      	add	r0, sp, #124	; 0x7c
 80035e8:	f001 ff08 	bl	80053fc <siprintf>
		HAL_UART_Transmit(huart, (unsigned char*)buffer, len, 1000);
 80035ec:	a91f      	add	r1, sp, #124	; 0x7c
 80035ee:	b2c2      	uxtb	r2, r0
 80035f0:	f44f 737a 	mov.w	r3, #1000	; 0x3e8
 80035f4:	4628      	mov	r0, r5
 80035f6:	f7ff fdbd 	bl	8003174 <HAL_UART_Transmit>
		len = sprintf(buffer,"Temp :%i\r\n", (int8_t)(read8(BNO055_TEMP_ADDR))); //sprintf will return the length of 'buffer'
 80035fa:	2034      	movs	r0, #52	; 0x34
 80035fc:	f000 fef0 	bl	80043e0 <read8>
 8003600:	4923      	ldr	r1, [pc, #140]	; (8003690 <EXE_CMD+0x274>)
 8003602:	b242      	sxtb	r2, r0
 8003604:	e7bc      	b.n	8003580 <EXE_CMD+0x164>
	}else if(strncmp(tkpnt, "e",1)==0){
 8003606:	2c65      	cmp	r4, #101	; 0x65
 8003608:	d12d      	bne.n	8003666 <EXE_CMD+0x24a>
		uint8_t len = sprintf(buffer,"Right Encoder Delta :%i\r\n", Get_RightEncoderPos()); //sprintf will return the length of 'buffer'
 800360a:	f000 fac9 	bl	8003ba0 <Get_RightEncoderPos>
 800360e:	4921      	ldr	r1, [pc, #132]	; (8003694 <EXE_CMD+0x278>)
 8003610:	4602      	mov	r2, r0
 8003612:	a81f      	add	r0, sp, #124	; 0x7c
 8003614:	f001 fef2 	bl	80053fc <siprintf>
		HAL_UART_Transmit(huart, (unsigned char*)buffer, len, 1000);
 8003618:	f44f 737a 	mov.w	r3, #1000	; 0x3e8
 800361c:	b2c2      	uxtb	r2, r0
 800361e:	a91f      	add	r1, sp, #124	; 0x7c
 8003620:	4628      	mov	r0, r5
 8003622:	f7ff fda7 	bl	8003174 <HAL_UART_Transmit>
		len = sprintf(buffer,"Right Encoder:%i\r\n", (int)(TIM3->CNT)); //sprintf will return the length of 'buffer'
 8003626:	4b1c      	ldr	r3, [pc, #112]	; (8003698 <EXE_CMD+0x27c>)
 8003628:	491c      	ldr	r1, [pc, #112]	; (800369c <EXE_CMD+0x280>)
 800362a:	6a5a      	ldr	r2, [r3, #36]	; 0x24
 800362c:	a81f      	add	r0, sp, #124	; 0x7c
 800362e:	f001 fee5 	bl	80053fc <siprintf>
		HAL_UART_Transmit(huart, (unsigned char*)buffer, len, 1000);
 8003632:	f44f 737a 	mov.w	r3, #1000	; 0x3e8
 8003636:	b2c2      	uxtb	r2, r0
 8003638:	a91f      	add	r1, sp, #124	; 0x7c
 800363a:	4628      	mov	r0, r5
 800363c:	f7ff fd9a 	bl	8003174 <HAL_UART_Transmit>
		len = sprintf(buffer,"Left Encoder Delta:%i\r\n", Get_LeftEncoderPos());
 8003640:	f000 faa8 	bl	8003b94 <Get_LeftEncoderPos>
 8003644:	4916      	ldr	r1, [pc, #88]	; (80036a0 <EXE_CMD+0x284>)
 8003646:	4602      	mov	r2, r0
 8003648:	a81f      	add	r0, sp, #124	; 0x7c
 800364a:	f001 fed7 	bl	80053fc <siprintf>
		HAL_UART_Transmit(huart, (unsigned char*)buffer, len, 1000);
 800364e:	f44f 737a 	mov.w	r3, #1000	; 0x3e8
 8003652:	b2c2      	uxtb	r2, r0
 8003654:	a91f      	add	r1, sp, #124	; 0x7c
 8003656:	4628      	mov	r0, r5
 8003658:	f7ff fd8c 	bl	8003174 <HAL_UART_Transmit>
		len = sprintf(buffer,"Left Encoder:%i\r\n", (int)(TIM2->CNT)); //sprintf will return the length of 'buffer'
 800365c:	f04f 4380 	mov.w	r3, #1073741824	; 0x40000000
 8003660:	4910      	ldr	r1, [pc, #64]	; (80036a4 <EXE_CMD+0x288>)
 8003662:	6a5a      	ldr	r2, [r3, #36]	; 0x24
 8003664:	e78c      	b.n	8003580 <EXE_CMD+0x164>
		uint8_t len = sprintf(buffer,"Invalid Command\r\n"); //sprintf will return the length of 'buffer'
 8003666:	4910      	ldr	r1, [pc, #64]	; (80036a8 <EXE_CMD+0x28c>)
 8003668:	a81f      	add	r0, sp, #124	; 0x7c
 800366a:	f001 fefa 	bl	8005462 <strcpy>
		HAL_UART_Transmit(huart, (unsigned char*)buffer, len, 1000);
 800366e:	f44f 737a 	mov.w	r3, #1000	; 0x3e8
 8003672:	2211      	movs	r2, #17
 8003674:	e78a      	b.n	800358c <EXE_CMD+0x170>
 8003676:	bf00      	nop
 8003678:	08007a78 	.word	0x08007a78
 800367c:	08007800 	.word	0x08007800
 8003680:	08007803 	.word	0x08007803
 8003684:	08007817 	.word	0x08007817
 8003688:	08007806 	.word	0x08007806
 800368c:	0800780f 	.word	0x0800780f
 8003690:	0800781c 	.word	0x0800781c
 8003694:	08007827 	.word	0x08007827
 8003698:	40000400 	.word	0x40000400
 800369c:	08007841 	.word	0x08007841
 80036a0:	08007854 	.word	0x08007854
 80036a4:	0800786c 	.word	0x0800786c
 80036a8:	0800787e 	.word	0x0800787e

080036ac <HAL_UART_RxCpltCallback>:
//Interrupt callback routine
void HAL_UART_RxCpltCallback(UART_HandleTypeDef *huart)
{
	//when character received
    uint8_t i;
    if (huart->Instance == USART1)  //current UART
 80036ac:	6802      	ldr	r2, [r0, #0]
 80036ae:	4b11      	ldr	r3, [pc, #68]	; (80036f4 <HAL_UART_RxCpltCallback+0x48>)
{
 80036b0:	b430      	push	{r4, r5}
    if (huart->Instance == USART1)  //current UART
 80036b2:	429a      	cmp	r2, r3
 80036b4:	d11c      	bne.n	80036f0 <HAL_UART_RxCpltCallback+0x44>
	{
		if (Rx_indx == 0) {
 80036b6:	4a10      	ldr	r2, [pc, #64]	; (80036f8 <HAL_UART_RxCpltCallback+0x4c>)
 80036b8:	7813      	ldrb	r3, [r2, #0]
 80036ba:	b143      	cbz	r3, 80036ce <HAL_UART_RxCpltCallback+0x22>
			//clear Rx_Buffer before receiving new data
			for (i=0;i<100;i++) Rx_Buffer[i]=0;
		}

		if (Rx_data[0] != 13) //if received data different from ASCII 13 (carriage return \r)
 80036bc:	490f      	ldr	r1, [pc, #60]	; (80036fc <HAL_UART_RxCpltCallback+0x50>)
 80036be:	7809      	ldrb	r1, [r1, #0]
 80036c0:	290d      	cmp	r1, #13
 80036c2:	d10c      	bne.n	80036de <HAL_UART_RxCpltCallback+0x32>
		{
			Rx_Buffer[Rx_indx++] = Rx_data[0];    //add data to Rx_Buffer
		}
		else            //if received data = 13
		{
			Transfer_cplt = Rx_indx;//transfer complete, data is ready to read
 80036c4:	490e      	ldr	r1, [pc, #56]	; (8003700 <HAL_UART_RxCpltCallback+0x54>)
 80036c6:	700b      	strb	r3, [r1, #0]
			Rx_indx=0;
 80036c8:	2300      	movs	r3, #0
 80036ca:	7013      	strb	r3, [r2, #0]
 80036cc:	e00b      	b.n	80036e6 <HAL_UART_RxCpltCallback+0x3a>
 80036ce:	4619      	mov	r1, r3
			for (i=0;i<100;i++) Rx_Buffer[i]=0;
 80036d0:	461d      	mov	r5, r3
 80036d2:	4c0c      	ldr	r4, [pc, #48]	; (8003704 <HAL_UART_RxCpltCallback+0x58>)
 80036d4:	550d      	strb	r5, [r1, r4]
 80036d6:	3101      	adds	r1, #1
 80036d8:	2964      	cmp	r1, #100	; 0x64
 80036da:	d1fb      	bne.n	80036d4 <HAL_UART_RxCpltCallback+0x28>
 80036dc:	e7ee      	b.n	80036bc <HAL_UART_RxCpltCallback+0x10>
			Rx_Buffer[Rx_indx++] = Rx_data[0];    //add data to Rx_Buffer
 80036de:	1c5c      	adds	r4, r3, #1
 80036e0:	7014      	strb	r4, [r2, #0]
 80036e2:	4a08      	ldr	r2, [pc, #32]	; (8003704 <HAL_UART_RxCpltCallback+0x58>)
 80036e4:	54d1      	strb	r1, [r2, r3]
		}

		HAL_UART_Receive_IT(huart, Rx_data, 1);   //activate UART receive interrupt every time
 80036e6:	2201      	movs	r2, #1
	}

}
 80036e8:	bc30      	pop	{r4, r5}
		HAL_UART_Receive_IT(huart, Rx_data, 1);   //activate UART receive interrupt every time
 80036ea:	4904      	ldr	r1, [pc, #16]	; (80036fc <HAL_UART_RxCpltCallback+0x50>)
 80036ec:	f7ff bd9d 	b.w	800322a <HAL_UART_Receive_IT>
}
 80036f0:	bc30      	pop	{r4, r5}
 80036f2:	4770      	bx	lr
 80036f4:	40013800 	.word	0x40013800
 80036f8:	20000215 	.word	0x20000215
 80036fc:	20000216 	.word	0x20000216
 8003700:	20000214 	.word	0x20000214
 8003704:	20000218 	.word	0x20000218

08003708 <UART_ReadStart>:
//Wrapper function to force recieve interrupt start
void UART_ReadStart(UART_HandleTypeDef *huart){
	HAL_UART_Receive_IT(huart, Rx_data, 1);
 8003708:	2201      	movs	r2, #1
 800370a:	4901      	ldr	r1, [pc, #4]	; (8003710 <UART_ReadStart+0x8>)
 800370c:	f7ff bd8d 	b.w	800322a <HAL_UART_Receive_IT>
 8003710:	20000216 	.word	0x20000216

08003714 <Parse_CMD>:
void Parse_CMD(TIM_HandleTypeDef* Fan_TIM,UART_HandleTypeDef* huart){
 8003714:	b570      	push	{r4, r5, r6, lr}
	if(Transfer_cplt >= 1){
 8003716:	4c1c      	ldr	r4, [pc, #112]	; (8003788 <Parse_CMD+0x74>)
void Parse_CMD(TIM_HandleTypeDef* Fan_TIM,UART_HandleTypeDef* huart){
 8003718:	b0a0      	sub	sp, #128	; 0x80
 800371a:	4606      	mov	r6, r0
	UART_ReadStart(huart);
 800371c:	4608      	mov	r0, r1
void Parse_CMD(TIM_HandleTypeDef* Fan_TIM,UART_HandleTypeDef* huart){
 800371e:	460d      	mov	r5, r1
	UART_ReadStart(huart);
 8003720:	f7ff fff2 	bl	8003708 <UART_ReadStart>
	if(Transfer_cplt >= 1){
 8003724:	7823      	ldrb	r3, [r4, #0]
 8003726:	b34b      	cbz	r3, 800377c <Parse_CMD+0x68>
		memset(cmd,0,sizeof cmd);
 8003728:	2264      	movs	r2, #100	; 0x64
 800372a:	2100      	movs	r1, #0
 800372c:	a807      	add	r0, sp, #28
 800372e:	f001 fd6f 	bl	8005210 <memset>
		strcpy(cmd, Rx_Buffer);
 8003732:	4916      	ldr	r1, [pc, #88]	; (800378c <Parse_CMD+0x78>)
 8003734:	a807      	add	r0, sp, #28
 8003736:	f001 fe94 	bl	8005462 <strcpy>
		uint8_t len = sprintf(buffer,"string:%s\r\n", cmd); //sprintf will return the length of 'buffer'
 800373a:	aa07      	add	r2, sp, #28
 800373c:	4914      	ldr	r1, [pc, #80]	; (8003790 <Parse_CMD+0x7c>)
 800373e:	4668      	mov	r0, sp
 8003740:	f001 fe5c 	bl	80053fc <siprintf>
		HAL_UART_Transmit(huart, (unsigned char*)buffer, len, 1000);
 8003744:	f44f 737a 	mov.w	r3, #1000	; 0x3e8
 8003748:	b2c2      	uxtb	r2, r0
 800374a:	4669      	mov	r1, sp
 800374c:	4628      	mov	r0, r5
 800374e:	f7ff fd11 	bl	8003174 <HAL_UART_Transmit>
		cmd[Transfer_cplt]='\0';
 8003752:	7823      	ldrb	r3, [r4, #0]
 8003754:	aa20      	add	r2, sp, #128	; 0x80
 8003756:	4413      	add	r3, r2
 8003758:	2200      	movs	r2, #0
 800375a:	f803 2c64 	strb.w	r2, [r3, #-100]
		if(/*true||*/(cmd[0] == 's')||(cmd[0]=='t')||(cmd[0]=='f')){
 800375e:	f89d 301c 	ldrb.w	r3, [sp, #28]
 8003762:	f1a3 0273 	sub.w	r2, r3, #115	; 0x73
 8003766:	2a01      	cmp	r2, #1
 8003768:	d901      	bls.n	800376e <Parse_CMD+0x5a>
 800376a:	2b66      	cmp	r3, #102	; 0x66
 800376c:	d108      	bne.n	8003780 <Parse_CMD+0x6c>
			EXE_CMD(cmd, Fan_TIM, huart);
 800376e:	462a      	mov	r2, r5
 8003770:	4631      	mov	r1, r6
 8003772:	a807      	add	r0, sp, #28
 8003774:	f7ff fe52 	bl	800341c <EXE_CMD>
		Transfer_cplt = 0;
 8003778:	2300      	movs	r3, #0
 800377a:	7023      	strb	r3, [r4, #0]
}
 800377c:	b020      	add	sp, #128	; 0x80
 800377e:	bd70      	pop	{r4, r5, r6, pc}
			enq(cmd);
 8003780:	a807      	add	r0, sp, #28
 8003782:	f000 f85d 	bl	8003840 <enq>
 8003786:	e7f7      	b.n	8003778 <Parse_CMD+0x64>
 8003788:	20000214 	.word	0x20000214
 800378c:	20000218 	.word	0x20000218
 8003790:	08007890 	.word	0x08007890

08003794 <initCOM>:
struct cmdqueue COM;
//char** queue;
char buildqueue[QUEUESIZE][2];
char deqtemp[100];
void initCOM(){
	COM.back = QUEUESIZE-1;
 8003794:	2318      	movs	r3, #24
 8003796:	4a0b      	ldr	r2, [pc, #44]	; (80037c4 <initCOM+0x30>)
void initCOM(){
 8003798:	b530      	push	{r4, r5, lr}
	COM.back = QUEUESIZE-1;
 800379a:	7053      	strb	r3, [r2, #1]
	COM.front = 0;
 800379c:	2300      	movs	r3, #0
	COM.size = 0;
	COM.capacity = (uint8_t)QUEUESIZE;
 800379e:	2119      	movs	r1, #25
	for(int i = 0; i<QUEUESIZE; i++){
		for(int j=0; j<100; j++){
			COM.cmds[i][j] = 0;
 80037a0:	461c      	mov	r4, r3
	for(int i = 0; i<QUEUESIZE; i++){
 80037a2:	f640 15c4 	movw	r5, #2500	; 0x9c4
	COM.front = 0;
 80037a6:	7013      	strb	r3, [r2, #0]
	COM.size = 0;
 80037a8:	7093      	strb	r3, [r2, #2]
	COM.capacity = (uint8_t)QUEUESIZE;
 80037aa:	70d1      	strb	r1, [r2, #3]
void initCOM(){
 80037ac:	2100      	movs	r1, #0
			COM.cmds[i][j] = 0;
 80037ae:	18c8      	adds	r0, r1, r3
		for(int j=0; j<100; j++){
 80037b0:	3101      	adds	r1, #1
			COM.cmds[i][j] = 0;
 80037b2:	4410      	add	r0, r2
		for(int j=0; j<100; j++){
 80037b4:	2964      	cmp	r1, #100	; 0x64
			COM.cmds[i][j] = 0;
 80037b6:	7104      	strb	r4, [r0, #4]
		for(int j=0; j<100; j++){
 80037b8:	d1f9      	bne.n	80037ae <initCOM+0x1a>
 80037ba:	3364      	adds	r3, #100	; 0x64
	for(int i = 0; i<QUEUESIZE; i++){
 80037bc:	42ab      	cmp	r3, r5
 80037be:	d1f5      	bne.n	80037ac <initCOM+0x18>
 80037c0:	bd30      	pop	{r4, r5, pc}
 80037c2:	bf00      	nop
 80037c4:	200002ae 	.word	0x200002ae

080037c8 <isFull>:
		}
	}
	return;
}
int isFull(){
	if(COM.size == COM.capacity) return true;
 80037c8:	4b03      	ldr	r3, [pc, #12]	; (80037d8 <isFull+0x10>)
 80037ca:	7898      	ldrb	r0, [r3, #2]
 80037cc:	78db      	ldrb	r3, [r3, #3]
	return false;

}
 80037ce:	1ac3      	subs	r3, r0, r3
 80037d0:	4258      	negs	r0, r3
 80037d2:	4158      	adcs	r0, r3
 80037d4:	4770      	bx	lr
 80037d6:	bf00      	nop
 80037d8:	200002ae 	.word	0x200002ae

080037dc <isEmpty>:
int isEmpty(){
	if (COM.size == 0) return true;
 80037dc:	4b02      	ldr	r3, [pc, #8]	; (80037e8 <isEmpty+0xc>)
 80037de:	7898      	ldrb	r0, [r3, #2]
	return false;
}
 80037e0:	fab0 f080 	clz	r0, r0
 80037e4:	0940      	lsrs	r0, r0, #5
 80037e6:	4770      	bx	lr
 80037e8:	200002ae 	.word	0x200002ae

080037ec <deq>:
char* deq(){
 80037ec:	b5f8      	push	{r3, r4, r5, r6, r7, lr}
	if(isEmpty()){
 80037ee:	f7ff fff5 	bl	80037dc <isEmpty>
 80037f2:	4606      	mov	r6, r0
 80037f4:	b9d8      	cbnz	r0, 800382e <deq+0x42>
		return "";
	}

	strcpy(deqtemp, COM.cmds[COM.front]);
 80037f6:	2764      	movs	r7, #100	; 0x64
 80037f8:	4c0e      	ldr	r4, [pc, #56]	; (8003834 <deq+0x48>)
 80037fa:	480f      	ldr	r0, [pc, #60]	; (8003838 <deq+0x4c>)
 80037fc:	7825      	ldrb	r5, [r4, #0]
 80037fe:	fb07 4505 	mla	r5, r7, r5, r4
 8003802:	3504      	adds	r5, #4
 8003804:	4629      	mov	r1, r5
 8003806:	f001 fe2c 	bl	8005462 <strcpy>
	char*item = deqtemp;
	memset(COM.cmds[COM.front],0, sizeof COM.cmds[COM.front]);
 800380a:	463a      	mov	r2, r7
 800380c:	4631      	mov	r1, r6
 800380e:	4628      	mov	r0, r5
 8003810:	f001 fcfe 	bl	8005210 <memset>
	COM.front = (COM.front + 1) % COM.capacity;
 8003814:	7823      	ldrb	r3, [r4, #0]
 8003816:	78e1      	ldrb	r1, [r4, #3]
 8003818:	3301      	adds	r3, #1
 800381a:	fb93 f2f1 	sdiv	r2, r3, r1
 800381e:	fb01 3312 	mls	r3, r1, r2, r3
 8003822:	7023      	strb	r3, [r4, #0]
	COM.size -=1;
 8003824:	78a3      	ldrb	r3, [r4, #2]
	return item;
 8003826:	4804      	ldr	r0, [pc, #16]	; (8003838 <deq+0x4c>)
	COM.size -=1;
 8003828:	3b01      	subs	r3, #1
 800382a:	70a3      	strb	r3, [r4, #2]
	return item;
 800382c:	bdf8      	pop	{r3, r4, r5, r6, r7, pc}
		return "";
 800382e:	4803      	ldr	r0, [pc, #12]	; (800383c <deq+0x50>)
}
 8003830:	bdf8      	pop	{r3, r4, r5, r6, r7, pc}
 8003832:	bf00      	nop
 8003834:	200002ae 	.word	0x200002ae
 8003838:	20000c76 	.word	0x20000c76
 800383c:	0800788f 	.word	0x0800788f

08003840 <enq>:
int enq(char* str){
 8003840:	b530      	push	{r4, r5, lr}
 8003842:	b09b      	sub	sp, #108	; 0x6c
 8003844:	4604      	mov	r4, r0
	if(isFull()){
 8003846:	f7ff ffbf 	bl	80037c8 <isFull>
 800384a:	4601      	mov	r1, r0
 800384c:	b9e8      	cbnz	r0, 800388a <enq+0x4a>
		return false;
	}
	char temp[100];
	memset(temp, 0, sizeof temp);
 800384e:	2564      	movs	r5, #100	; 0x64
 8003850:	a801      	add	r0, sp, #4
 8003852:	462a      	mov	r2, r5
 8003854:	f001 fcdc 	bl	8005210 <memset>
	strcpy(temp, str);
 8003858:	4621      	mov	r1, r4

	COM.back = (COM.back + 1) % COM.capacity;
 800385a:	4c0d      	ldr	r4, [pc, #52]	; (8003890 <enq+0x50>)
	strcpy(temp, str);
 800385c:	a801      	add	r0, sp, #4
 800385e:	f001 fe00 	bl	8005462 <strcpy>
	COM.back = (COM.back + 1) % COM.capacity;
 8003862:	7860      	ldrb	r0, [r4, #1]
 8003864:	78e2      	ldrb	r2, [r4, #3]
 8003866:	1c43      	adds	r3, r0, #1
 8003868:	fb93 f0f2 	sdiv	r0, r3, r2
 800386c:	fb02 3010 	mls	r0, r2, r0, r3
 8003870:	7060      	strb	r0, [r4, #1]
	strcpy(COM.cmds[COM.back], temp);
 8003872:	fb05 4000 	mla	r0, r5, r0, r4
 8003876:	a901      	add	r1, sp, #4
 8003878:	3004      	adds	r0, #4
 800387a:	f001 fdf2 	bl	8005462 <strcpy>
	COM.size += 1;
	return true;
 800387e:	2001      	movs	r0, #1
	COM.size += 1;
 8003880:	78a3      	ldrb	r3, [r4, #2]
 8003882:	3301      	adds	r3, #1
 8003884:	70a3      	strb	r3, [r4, #2]
}
 8003886:	b01b      	add	sp, #108	; 0x6c
 8003888:	bd30      	pop	{r4, r5, pc}
		return false;
 800388a:	2000      	movs	r0, #0
 800388c:	e7fb      	b.n	8003886 <enq+0x46>
 800388e:	bf00      	nop
 8003890:	200002ae 	.word	0x200002ae

08003894 <initMot>:
#include "WW_Loc.h"
struct motor left;
struct motor right;
//initiate right and left motor data structures. Also initializes PID controllers.
void initMot(TIM_HandleTypeDef* TIM_RightEnc, TIM_HandleTypeDef* TIM_LeftEnc,
		TIM_HandleTypeDef* TIM_RightMot, TIM_HandleTypeDef* TIM_LeftMot){
 8003894:	e92d 4ff0 	stmdb	sp!, {r4, r5, r6, r7, r8, r9, sl, fp, lr}

	right.prevcount = __HAL_TIM_GET_COUNTER(TIM_RightEnc);
 8003898:	6804      	ldr	r4, [r0, #0]
 800389a:	f8df e0a0 	ldr.w	lr, [pc, #160]	; 800393c <initMot+0xa8>
 800389e:	6a64      	ldr	r4, [r4, #36]	; 0x24

	left.setRPM = 0.0;
	left.setDis = 0.0;
	left.distance_traveled = 0.0f;

	PIDInit(&right.PID, KP, KI, KD, .1, ((float)PID_PERIOD)/1000.0, 255, AUTOMATIC, DIRECT);
 80038a0:	f8df 809c 	ldr.w	r8, [pc, #156]	; 8003940 <initMot+0xac>
	right.prevcount = __HAL_TIM_GET_COUNTER(TIM_RightEnc);
 80038a4:	f8ae 4010 	strh.w	r4, [lr, #16]
	left.prevcount = __HAL_TIM_GET_COUNTER(TIM_LeftEnc);
 80038a8:	680c      	ldr	r4, [r1, #0]
	PIDInit(&right.PID, KP, KI, KD, .1, ((float)PID_PERIOD)/1000.0, 255, AUTOMATIC, DIRECT);
 80038aa:	4f21      	ldr	r7, [pc, #132]	; (8003930 <initMot+0x9c>)
	left.prevcount = __HAL_TIM_GET_COUNTER(TIM_LeftEnc);
 80038ac:	6a65      	ldr	r5, [r4, #36]	; 0x24
 80038ae:	4c21      	ldr	r4, [pc, #132]	; (8003934 <initMot+0xa0>)
	PIDInit(&right.PID, KP, KI, KD, .1, ((float)PID_PERIOD)/1000.0, 255, AUTOMATIC, DIRECT);
 80038b0:	4e21      	ldr	r6, [pc, #132]	; (8003938 <initMot+0xa4>)
	left.pwm = TIM_LeftMot;
 80038b2:	61a3      	str	r3, [r4, #24]
	right.setRPM = 0.0;
 80038b4:	2300      	movs	r3, #0
	left.prevcount = __HAL_TIM_GET_COUNTER(TIM_LeftEnc);
 80038b6:	8225      	strh	r5, [r4, #16]
	right.setRPM = 0.0;
 80038b8:	f8ce 3000 	str.w	r3, [lr]
	right.setDis = 0.0;
 80038bc:	f8ce 300c 	str.w	r3, [lr, #12]
	right.distance_traveled = 0.0f;
 80038c0:	f8ce 3008 	str.w	r3, [lr, #8]
	left.setRPM = 0.0;
 80038c4:	6023      	str	r3, [r4, #0]
	left.setDis = 0.0;
 80038c6:	60e3      	str	r3, [r4, #12]
	left.distance_traveled = 0.0f;
 80038c8:	60a3      	str	r3, [r4, #8]
	right.dir = false;
 80038ca:	2500      	movs	r5, #0
	PIDInit(&right.PID, KP, KI, KD, .1, ((float)PID_PERIOD)/1000.0, 255, AUTOMATIC, DIRECT);
 80038cc:	2301      	movs	r3, #1
 80038ce:	f8df a074 	ldr.w	sl, [pc, #116]	; 8003944 <initMot+0xb0>
 80038d2:	f8df 9074 	ldr.w	r9, [pc, #116]	; 8003948 <initMot+0xb4>
 80038d6:	f8df b074 	ldr.w	fp, [pc, #116]	; 800394c <initMot+0xb8>
		TIM_HandleTypeDef* TIM_RightMot, TIM_HandleTypeDef* TIM_LeftMot){
 80038da:	b087      	sub	sp, #28
	right.encoder = TIM_RightEnc;
 80038dc:	f8ce 0014 	str.w	r0, [lr, #20]
	right.pwm = TIM_RightMot;
 80038e0:	f8ce 2018 	str.w	r2, [lr, #24]
	left.encoder = TIM_LeftEnc;
 80038e4:	6161      	str	r1, [r4, #20]
	right.dir = false;
 80038e6:	f88e 5004 	strb.w	r5, [lr, #4]
	left.dir = false;
 80038ea:	7125      	strb	r5, [r4, #4]
	PIDInit(&right.PID, KP, KI, KD, .1, ((float)PID_PERIOD)/1000.0, 255, AUTOMATIC, DIRECT);
 80038ec:	f10e 001c 	add.w	r0, lr, #28
 80038f0:	9303      	str	r3, [sp, #12]
 80038f2:	463a      	mov	r2, r7
 80038f4:	4643      	mov	r3, r8
 80038f6:	4631      	mov	r1, r6
 80038f8:	9504      	str	r5, [sp, #16]
 80038fa:	f8cd a008 	str.w	sl, [sp, #8]
 80038fe:	f8cd 9004 	str.w	r9, [sp, #4]
 8003902:	f8cd b000 	str.w	fp, [sp]
 8003906:	f001 f86f 	bl	80049e8 <PIDInit>
	PIDInit(&left.PID, KP, KI, KD, .1, ((float)PID_PERIOD)/1000.0, 255, AUTOMATIC, DIRECT);
 800390a:	2301      	movs	r3, #1
 800390c:	9504      	str	r5, [sp, #16]
 800390e:	9303      	str	r3, [sp, #12]
 8003910:	f8cd a008 	str.w	sl, [sp, #8]
 8003914:	f8cd 9004 	str.w	r9, [sp, #4]
 8003918:	f8cd b000 	str.w	fp, [sp]
 800391c:	4643      	mov	r3, r8
 800391e:	463a      	mov	r2, r7
 8003920:	4631      	mov	r1, r6
 8003922:	f104 001c 	add.w	r0, r4, #28
 8003926:	f001 f85f 	bl	80049e8 <PIDInit>

}
 800392a:	b007      	add	sp, #28
 800392c:	e8bd 8ff0 	ldmia.w	sp!, {r4, r5, r6, r7, r8, r9, sl, fp, pc}
 8003930:	40533333 	.word	0x40533333
 8003934:	20000d34 	.word	0x20000d34
 8003938:	3f666666 	.word	0x3f666666
 800393c:	20000cdc 	.word	0x20000cdc
 8003940:	3d8f5c29 	.word	0x3d8f5c29
 8003944:	437f0000 	.word	0x437f0000
 8003948:	3ccccccd 	.word	0x3ccccccd
 800394c:	3dcccccd 	.word	0x3dcccccd

08003950 <setArc>:
//sets targets for arc move
void setArc(float R/*mm*/, float w/*degrees/s*/, float phi/*degrees*/){
 8003950:	e92d 4ff0 	stmdb	sp!, {r4, r5, r6, r7, r8, r9, sl, fp, lr}
 8003954:	4606      	mov	r6, r0
 8003956:	b085      	sub	sp, #20
	float scalingfactor = 60.0/360.0;//(seconds/minute)/(degrees/revolution)
	right.setRPM = (w*(R+CENTERDIS))*scalingfactor*(1/WHEELRAD);
 8003958:	4608      	mov	r0, r1
void setArc(float R/*mm*/, float w/*degrees/s*/, float phi/*degrees*/){
 800395a:	9203      	str	r2, [sp, #12]
	right.setRPM = (w*(R+CENTERDIS))*scalingfactor*(1/WHEELRAD);
 800395c:	f7fc fd7c 	bl	8000458 <__aeabi_f2d>
 8003960:	e9cd 0100 	strd	r0, r1, [sp]
 8003964:	4630      	mov	r0, r6
 8003966:	f7fc fd77 	bl	8000458 <__aeabi_f2d>
 800396a:	a353      	add	r3, pc, #332	; (adr r3, 8003ab8 <setArc+0x168>)
 800396c:	e9d3 2300 	ldrd	r2, r3, [r3]
 8003970:	4606      	mov	r6, r0
 8003972:	460f      	mov	r7, r1
 8003974:	f7fc fc12 	bl	800019c <__adddf3>
 8003978:	4602      	mov	r2, r0
 800397a:	460b      	mov	r3, r1
 800397c:	4680      	mov	r8, r0
 800397e:	4689      	mov	r9, r1
 8003980:	e9dd 0100 	ldrd	r0, r1, [sp]
 8003984:	f7fc fdbc 	bl	8000500 <__aeabi_dmul>
 8003988:	a34d      	add	r3, pc, #308	; (adr r3, 8003ac0 <setArc+0x170>)
 800398a:	e9d3 2300 	ldrd	r2, r3, [r3]
 800398e:	f7fc fdb7 	bl	8000500 <__aeabi_dmul>
 8003992:	a34d      	add	r3, pc, #308	; (adr r3, 8003ac8 <setArc+0x178>)
 8003994:	e9d3 2300 	ldrd	r2, r3, [r3]
 8003998:	f7fc fdb2 	bl	8000500 <__aeabi_dmul>
 800399c:	f7fd f892 	bl	8000ac4 <__aeabi_d2f>
	left.setRPM = (w*(R-CENTERDIS))*scalingfactor*(1/WHEELRAD);
 80039a0:	a345      	add	r3, pc, #276	; (adr r3, 8003ab8 <setArc+0x168>)
 80039a2:	e9d3 2300 	ldrd	r2, r3, [r3]
	right.setRPM = (w*(R+CENTERDIS))*scalingfactor*(1/WHEELRAD);
 80039a6:	4d4c      	ldr	r5, [pc, #304]	; (8003ad8 <setArc+0x188>)
 80039a8:	4682      	mov	sl, r0
 80039aa:	6028      	str	r0, [r5, #0]
	left.setRPM = (w*(R-CENTERDIS))*scalingfactor*(1/WHEELRAD);
 80039ac:	4639      	mov	r1, r7
 80039ae:	4630      	mov	r0, r6
 80039b0:	f7fc fbf2 	bl	8000198 <__aeabi_dsub>
 80039b4:	4602      	mov	r2, r0
 80039b6:	460b      	mov	r3, r1
 80039b8:	4606      	mov	r6, r0
 80039ba:	460f      	mov	r7, r1
 80039bc:	e9dd 0100 	ldrd	r0, r1, [sp]
 80039c0:	f7fc fd9e 	bl	8000500 <__aeabi_dmul>
 80039c4:	a33e      	add	r3, pc, #248	; (adr r3, 8003ac0 <setArc+0x170>)
 80039c6:	e9d3 2300 	ldrd	r2, r3, [r3]
 80039ca:	f7fc fd99 	bl	8000500 <__aeabi_dmul>
 80039ce:	a33e      	add	r3, pc, #248	; (adr r3, 8003ac8 <setArc+0x178>)
 80039d0:	e9d3 2300 	ldrd	r2, r3, [r3]
 80039d4:	f7fc fd94 	bl	8000500 <__aeabi_dmul>
 80039d8:	f7fd f874 	bl	8000ac4 <__aeabi_d2f>
 80039dc:	4c3f      	ldr	r4, [pc, #252]	; (8003adc <setArc+0x18c>)
 80039de:	4683      	mov	fp, r0
 80039e0:	6020      	str	r0, [r4, #0]
	//set appropriate values for reverse operation
	if (right.setRPM < 0){
 80039e2:	2100      	movs	r1, #0
 80039e4:	4650      	mov	r0, sl
 80039e6:	f7fd fb69 	bl	80010bc <__aeabi_fcmplt>
 80039ea:	2800      	cmp	r0, #0
 80039ec:	d05e      	beq.n	8003aac <setArc+0x15c>
		right.setRPM = -1*right.setRPM;
		right.dir = true;
 80039ee:	2201      	movs	r2, #1
		right.setRPM = -1*right.setRPM;
 80039f0:	f10a 4a00 	add.w	sl, sl, #2147483648	; 0x80000000
 80039f4:	f8c5 a000 	str.w	sl, [r5]
		right.dir = true;
 80039f8:	712a      	strb	r2, [r5, #4]
	else
	{
		right.dir = false;
	}

	if (left.setRPM < 0){
 80039fa:	2100      	movs	r1, #0
 80039fc:	4658      	mov	r0, fp
 80039fe:	f7fd fb5d 	bl	80010bc <__aeabi_fcmplt>
 8003a02:	2800      	cmp	r0, #0
 8003a04:	d054      	beq.n	8003ab0 <setArc+0x160>
		left.setRPM = -1*left.setRPM;
 8003a06:	f10b 4300 	add.w	r3, fp, #2147483648	; 0x80000000
 8003a0a:	6023      	str	r3, [r4, #0]
		left.dir = true;
 8003a0c:	2301      	movs	r3, #1
 8003a0e:	7123      	strb	r3, [r4, #4]
	else
	{
		left.dir = false;
	}
	//get arc length for distance target
	right.setDis = abs((R+CENTERDIS)*phi*M_PI/180);
 8003a10:	9803      	ldr	r0, [sp, #12]
 8003a12:	f7fc fd21 	bl	8000458 <__aeabi_f2d>
 8003a16:	4602      	mov	r2, r0
 8003a18:	460b      	mov	r3, r1
 8003a1a:	4682      	mov	sl, r0
 8003a1c:	468b      	mov	fp, r1
 8003a1e:	4640      	mov	r0, r8
 8003a20:	4649      	mov	r1, r9
 8003a22:	f7fc fd6d 	bl	8000500 <__aeabi_dmul>
 8003a26:	a32a      	add	r3, pc, #168	; (adr r3, 8003ad0 <setArc+0x180>)
 8003a28:	e9d3 2300 	ldrd	r2, r3, [r3]
 8003a2c:	f7fc fd68 	bl	8000500 <__aeabi_dmul>
 8003a30:	2200      	movs	r2, #0
 8003a32:	4b2b      	ldr	r3, [pc, #172]	; (8003ae0 <setArc+0x190>)
 8003a34:	f7fc fe8e 	bl	8000754 <__aeabi_ddiv>
 8003a38:	f7fc fffc 	bl	8000a34 <__aeabi_d2iz>
 8003a3c:	2800      	cmp	r0, #0
 8003a3e:	bfb8      	it	lt
 8003a40:	4240      	neglt	r0, r0
 8003a42:	f7fd f949 	bl	8000cd8 <__aeabi_i2f>
	left.setDis = abs((R-CENTERDIS)*phi*M_PI/180);
 8003a46:	4652      	mov	r2, sl
	right.setDis = abs((R+CENTERDIS)*phi*M_PI/180);
 8003a48:	60e8      	str	r0, [r5, #12]
	left.setDis = abs((R-CENTERDIS)*phi*M_PI/180);
 8003a4a:	465b      	mov	r3, fp
 8003a4c:	4630      	mov	r0, r6
 8003a4e:	4639      	mov	r1, r7
 8003a50:	f7fc fd56 	bl	8000500 <__aeabi_dmul>
 8003a54:	a31e      	add	r3, pc, #120	; (adr r3, 8003ad0 <setArc+0x180>)
 8003a56:	e9d3 2300 	ldrd	r2, r3, [r3]
 8003a5a:	f7fc fd51 	bl	8000500 <__aeabi_dmul>
 8003a5e:	2200      	movs	r2, #0
 8003a60:	4b1f      	ldr	r3, [pc, #124]	; (8003ae0 <setArc+0x190>)
 8003a62:	f7fc fe77 	bl	8000754 <__aeabi_ddiv>
 8003a66:	f7fc ffe5 	bl	8000a34 <__aeabi_d2iz>
 8003a6a:	2800      	cmp	r0, #0
 8003a6c:	bfb8      	it	lt
 8003a6e:	4240      	neglt	r0, r0
 8003a70:	f7fd f932 	bl	8000cd8 <__aeabi_i2f>
	//adjust again for negative phi
	if (phi < 0){
 8003a74:	2100      	movs	r1, #0
	left.setDis = abs((R-CENTERDIS)*phi*M_PI/180);
 8003a76:	60e0      	str	r0, [r4, #12]
	if (phi < 0){
 8003a78:	9803      	ldr	r0, [sp, #12]
 8003a7a:	f7fd fb1f 	bl	80010bc <__aeabi_fcmplt>
 8003a7e:	b178      	cbz	r0, 8003aa0 <setArc+0x150>
		left.setRPM = -1*left.setRPM;
 8003a80:	6823      	ldr	r3, [r4, #0]
 8003a82:	f103 4300 	add.w	r3, r3, #2147483648	; 0x80000000
 8003a86:	6023      	str	r3, [r4, #0]
		left.dir = !left.dir;
 8003a88:	7923      	ldrb	r3, [r4, #4]
 8003a8a:	f083 0301 	eor.w	r3, r3, #1
 8003a8e:	7123      	strb	r3, [r4, #4]
		right.setRPM = -1*right.setRPM;
 8003a90:	682b      	ldr	r3, [r5, #0]
 8003a92:	f103 4300 	add.w	r3, r3, #2147483648	; 0x80000000
 8003a96:	602b      	str	r3, [r5, #0]
		right.dir = !right.dir;
 8003a98:	792b      	ldrb	r3, [r5, #4]
 8003a9a:	f083 0301 	eor.w	r3, r3, #1
 8003a9e:	712b      	strb	r3, [r5, #4]
	}
	//Re-initialize targeting to a rotation/distance
	right.distance_traveled = 0.0;
 8003aa0:	2300      	movs	r3, #0
 8003aa2:	60ab      	str	r3, [r5, #8]
	left.distance_traveled = 0.0;
 8003aa4:	60a3      	str	r3, [r4, #8]
}
 8003aa6:	b005      	add	sp, #20
 8003aa8:	e8bd 8ff0 	ldmia.w	sp!, {r4, r5, r6, r7, r8, r9, sl, fp, pc}
		right.dir = false;
 8003aac:	7128      	strb	r0, [r5, #4]
 8003aae:	e7a4      	b.n	80039fa <setArc+0xaa>
		left.dir = false;
 8003ab0:	7120      	strb	r0, [r4, #4]
 8003ab2:	e7ad      	b.n	8003a10 <setArc+0xc0>
 8003ab4:	f3af 8000 	nop.w
 8003ab8:	00000000 	.word	0x00000000
 8003abc:	406bc800 	.word	0x406bc800
 8003ac0:	60000000 	.word	0x60000000
 8003ac4:	3fc55555 	.word	0x3fc55555
 8003ac8:	b84c05c2 	.word	0xb84c05c2
 8003acc:	3f970980 	.word	0x3f970980
 8003ad0:	54442d18 	.word	0x54442d18
 8003ad4:	400921fb 	.word	0x400921fb
 8003ad8:	20000cdc 	.word	0x20000cdc
 8003adc:	20000d34 	.word	0x20000d34
 8003ae0:	40668000 	.word	0x40668000
 8003ae4:	00000000 	.word	0x00000000

08003ae8 <setLin>:
//sets targets for linear move
void setLin(float dis/*mm*/, float spd/*mm/s*/){
 8003ae8:	b5f8      	push	{r3, r4, r5, r6, r7, lr}
 8003aea:	4607      	mov	r7, r0
	//calculate rpm
	right.setRPM = (spd/(2.0*M_PI*WHEELRAD))*60.0;
 8003aec:	4608      	mov	r0, r1
 8003aee:	f7fc fcb3 	bl	8000458 <__aeabi_f2d>
 8003af2:	a313      	add	r3, pc, #76	; (adr r3, 8003b40 <setLin+0x58>)
 8003af4:	e9d3 2300 	ldrd	r2, r3, [r3]
 8003af8:	f7fc fe2c 	bl	8000754 <__aeabi_ddiv>
 8003afc:	2200      	movs	r2, #0
 8003afe:	4b12      	ldr	r3, [pc, #72]	; (8003b48 <setLin+0x60>)
 8003b00:	f7fc fcfe 	bl	8000500 <__aeabi_dmul>
 8003b04:	f7fc ffde 	bl	8000ac4 <__aeabi_d2f>
 8003b08:	4d10      	ldr	r5, [pc, #64]	; (8003b4c <setLin+0x64>)
	left.setRPM = right.setRPM;
 8003b0a:	4c11      	ldr	r4, [pc, #68]	; (8003b50 <setLin+0x68>)
	right.setRPM = (spd/(2.0*M_PI*WHEELRAD))*60.0;
 8003b0c:	6028      	str	r0, [r5, #0]
	left.setRPM = right.setRPM;
 8003b0e:	6020      	str	r0, [r4, #0]
	//reverse if rpm negative
	if (right.setRPM < 0){
 8003b10:	2100      	movs	r1, #0
	right.setRPM = (spd/(2.0*M_PI*WHEELRAD))*60.0;
 8003b12:	4606      	mov	r6, r0
	if (right.setRPM < 0){
 8003b14:	f7fd fad2 	bl	80010bc <__aeabi_fcmplt>
 8003b18:	462a      	mov	r2, r5
 8003b1a:	4623      	mov	r3, r4
 8003b1c:	b160      	cbz	r0, 8003b38 <setLin+0x50>
		right.setRPM = -1.0*right.setRPM;
		left.setRPM = -1.0*left.setRPM;
		right.dir = true;
 8003b1e:	2101      	movs	r1, #1
		right.setRPM = -1.0*right.setRPM;
 8003b20:	f106 4600 	add.w	r6, r6, #2147483648	; 0x80000000
 8003b24:	602e      	str	r6, [r5, #0]
		left.setRPM = -1.0*left.setRPM;
 8003b26:	6026      	str	r6, [r4, #0]
		right.dir = true;
 8003b28:	7129      	strb	r1, [r5, #4]
		left.dir = true;
 8003b2a:	7121      	strb	r1, [r4, #4]
	}
	//set distance
	right.setDis = dis;
	left.setDis = dis;
	//Re-initialize targeting to a rotation/distance
	right.distance_traveled = 0.0;
 8003b2c:	2100      	movs	r1, #0
	right.setDis = dis;
 8003b2e:	60d7      	str	r7, [r2, #12]
	left.setDis = dis;
 8003b30:	60df      	str	r7, [r3, #12]
	right.distance_traveled = 0.0;
 8003b32:	6091      	str	r1, [r2, #8]
	left.distance_traveled = 0.0;
 8003b34:	6099      	str	r1, [r3, #8]
 8003b36:	bdf8      	pop	{r3, r4, r5, r6, r7, pc}
		right.dir = false;
 8003b38:	7128      	strb	r0, [r5, #4]
		left.dir = false;
 8003b3a:	7120      	strb	r0, [r4, #4]
 8003b3c:	e7f6      	b.n	8003b2c <setLin+0x44>
 8003b3e:	bf00      	nop
 8003b40:	f4b9c01f 	.word	0xf4b9c01f
 8003b44:	40717499 	.word	0x40717499
 8003b48:	404e0000 	.word	0x404e0000
 8003b4c:	20000cdc 	.word	0x20000cdc
 8003b50:	20000d34 	.word	0x20000d34

08003b54 <Get_EncoderPos>:
}
//get Absolute difference in count of requested encoder since last call of Get_EncoderPos(), accounting for over/underflow
uint16_t Get_EncoderPos(struct motor* Mot){
	uint16_t newposition;
	//establish one master value of count
	uint16_t currentcount = __HAL_TIM_GET_COUNTER(Mot->encoder);
 8003b54:	6943      	ldr	r3, [r0, #20]
 8003b56:	681b      	ldr	r3, [r3, #0]
 8003b58:	6a5a      	ldr	r2, [r3, #36]	; 0x24
	if(__HAL_TIM_IS_TIM_COUNTING_DOWN(Mot->encoder)){
 8003b5a:	681b      	ldr	r3, [r3, #0]
	uint16_t currentcount = __HAL_TIM_GET_COUNTER(Mot->encoder);
 8003b5c:	b291      	uxth	r1, r2
	if(__HAL_TIM_IS_TIM_COUNTING_DOWN(Mot->encoder)){
 8003b5e:	f013 0f10 	tst.w	r3, #16
 8003b62:	8a03      	ldrh	r3, [r0, #16]
 8003b64:	d00d      	beq.n	8003b82 <Get_EncoderPos+0x2e>
		if(Mot->prevcount < currentcount){
 8003b66:	4299      	cmp	r1, r3
 8003b68:	d905      	bls.n	8003b76 <Get_EncoderPos+0x22>
			//underflow condition
			newposition = 65535 - currentcount + Mot->prevcount;
 8003b6a:	3b01      	subs	r3, #1
 8003b6c:	1a5b      	subs	r3, r3, r1
	}else{
		if(Mot->prevcount > currentcount){
			//overflow condition
			newposition = currentcount + 65535 - Mot->prevcount;
		}else{
			newposition = abs(currentcount - Mot->prevcount);
 8003b6e:	b29b      	uxth	r3, r3
		}
	}
	Mot->prevcount = currentcount;
 8003b70:	8201      	strh	r1, [r0, #16]
	return newposition;
}
 8003b72:	4618      	mov	r0, r3
 8003b74:	4770      	bx	lr
			newposition = abs(Mot->prevcount-currentcount);
 8003b76:	b292      	uxth	r2, r2
 8003b78:	1a9b      	subs	r3, r3, r2
			newposition = abs(currentcount - Mot->prevcount);
 8003b7a:	2b00      	cmp	r3, #0
 8003b7c:	bfb8      	it	lt
 8003b7e:	425b      	neglt	r3, r3
 8003b80:	e7f5      	b.n	8003b6e <Get_EncoderPos+0x1a>
		if(Mot->prevcount > currentcount){
 8003b82:	4299      	cmp	r1, r3
 8003b84:	d202      	bcs.n	8003b8c <Get_EncoderPos+0x38>
			newposition = currentcount + 65535 - Mot->prevcount;
 8003b86:	43db      	mvns	r3, r3
 8003b88:	440b      	add	r3, r1
 8003b8a:	e7f0      	b.n	8003b6e <Get_EncoderPos+0x1a>
			newposition = abs(currentcount - Mot->prevcount);
 8003b8c:	b292      	uxth	r2, r2
 8003b8e:	1ad3      	subs	r3, r2, r3
 8003b90:	e7f3      	b.n	8003b7a <Get_EncoderPos+0x26>
	...

08003b94 <Get_LeftEncoderPos>:
//wrapper
uint16_t Get_LeftEncoderPos(){
	return Get_EncoderPos(&left);
 8003b94:	4801      	ldr	r0, [pc, #4]	; (8003b9c <Get_LeftEncoderPos+0x8>)
 8003b96:	f7ff bfdd 	b.w	8003b54 <Get_EncoderPos>
 8003b9a:	bf00      	nop
 8003b9c:	20000d34 	.word	0x20000d34

08003ba0 <Get_RightEncoderPos>:
}
//wrapper
uint16_t Get_RightEncoderPos(){
	return Get_EncoderPos(&right);
 8003ba0:	4801      	ldr	r0, [pc, #4]	; (8003ba8 <Get_RightEncoderPos+0x8>)
 8003ba2:	f7ff bfd7 	b.w	8003b54 <Get_EncoderPos>
 8003ba6:	bf00      	nop
 8003ba8:	20000cdc 	.word	0x20000cdc

08003bac <Set_MotorDir>:
}
//sets GPIOS for requested motor direction/break for L298 driver based on motor's data structure values
void Set_MotorDir(){
 8003bac:	b538      	push	{r3, r4, r5, lr}
	if (right.setRPM == 0.0) {
 8003bae:	4d1b      	ldr	r5, [pc, #108]	; (8003c1c <Set_MotorDir+0x70>)
 8003bb0:	2100      	movs	r1, #0
 8003bb2:	6828      	ldr	r0, [r5, #0]
 8003bb4:	f7fd fa78 	bl	80010a8 <__aeabi_fcmpeq>
 8003bb8:	b1d8      	cbz	r0, 8003bf2 <Set_MotorDir+0x46>
		HAL_GPIO_WritePin(GPIOC, GPIO_PIN_0, GPIO_PIN_RESET);
 8003bba:	2200      	movs	r2, #0
 8003bbc:	2101      	movs	r1, #1
 8003bbe:	4818      	ldr	r0, [pc, #96]	; (8003c20 <Set_MotorDir+0x74>)
 8003bc0:	f7fd fc6e 	bl	80014a0 <HAL_GPIO_WritePin>
		HAL_GPIO_WritePin(GPIOC, GPIO_PIN_1, GPIO_PIN_RESET);
 8003bc4:	2200      	movs	r2, #0
		HAL_GPIO_WritePin(GPIOC, GPIO_PIN_1, GPIO_PIN_RESET);
	} else {
		HAL_GPIO_WritePin(GPIOC, GPIO_PIN_0, GPIO_PIN_RESET);
		HAL_GPIO_WritePin(GPIOC, GPIO_PIN_1, GPIO_PIN_SET);
	}
	if (left.setRPM == 0.0) {
 8003bc6:	4d17      	ldr	r5, [pc, #92]	; (8003c24 <Set_MotorDir+0x78>)
		HAL_GPIO_WritePin(GPIOC, GPIO_PIN_1, GPIO_PIN_SET);
 8003bc8:	2102      	movs	r1, #2
 8003bca:	4815      	ldr	r0, [pc, #84]	; (8003c20 <Set_MotorDir+0x74>)
 8003bcc:	f7fd fc68 	bl	80014a0 <HAL_GPIO_WritePin>
	if (left.setRPM == 0.0) {
 8003bd0:	2100      	movs	r1, #0
 8003bd2:	6828      	ldr	r0, [r5, #0]
 8003bd4:	f7fd fa68 	bl	80010a8 <__aeabi_fcmpeq>
 8003bd8:	b1a8      	cbz	r0, 8003c06 <Set_MotorDir+0x5a>
		HAL_GPIO_WritePin(GPIOC, GPIO_PIN_2, GPIO_PIN_RESET);
 8003bda:	2200      	movs	r2, #0
 8003bdc:	2104      	movs	r1, #4
 8003bde:	4810      	ldr	r0, [pc, #64]	; (8003c20 <Set_MotorDir+0x74>)
 8003be0:	f7fd fc5e 	bl	80014a0 <HAL_GPIO_WritePin>
		HAL_GPIO_WritePin(GPIOC, GPIO_PIN_3, GPIO_PIN_RESET);
 8003be4:	2200      	movs	r2, #0
		HAL_GPIO_WritePin(GPIOC, GPIO_PIN_3, GPIO_PIN_RESET);
	} else {
		HAL_GPIO_WritePin(GPIOC, GPIO_PIN_2, GPIO_PIN_RESET);
		HAL_GPIO_WritePin(GPIOC, GPIO_PIN_3, GPIO_PIN_SET);
	}
}
 8003be6:	e8bd 4038 	ldmia.w	sp!, {r3, r4, r5, lr}
		HAL_GPIO_WritePin(GPIOC, GPIO_PIN_3, GPIO_PIN_SET);
 8003bea:	2108      	movs	r1, #8
 8003bec:	480c      	ldr	r0, [pc, #48]	; (8003c20 <Set_MotorDir+0x74>)
 8003bee:	f7fd bc57 	b.w	80014a0 <HAL_GPIO_WritePin>
	} else if(right.dir == true) {
 8003bf2:	792a      	ldrb	r2, [r5, #4]
 8003bf4:	b10a      	cbz	r2, 8003bfa <Set_MotorDir+0x4e>
		HAL_GPIO_WritePin(GPIOC, GPIO_PIN_0, GPIO_PIN_SET);
 8003bf6:	2201      	movs	r2, #1
 8003bf8:	e7e0      	b.n	8003bbc <Set_MotorDir+0x10>
		HAL_GPIO_WritePin(GPIOC, GPIO_PIN_0, GPIO_PIN_RESET);
 8003bfa:	2101      	movs	r1, #1
 8003bfc:	4808      	ldr	r0, [pc, #32]	; (8003c20 <Set_MotorDir+0x74>)
 8003bfe:	f7fd fc4f 	bl	80014a0 <HAL_GPIO_WritePin>
		HAL_GPIO_WritePin(GPIOC, GPIO_PIN_1, GPIO_PIN_SET);
 8003c02:	2201      	movs	r2, #1
 8003c04:	e7df      	b.n	8003bc6 <Set_MotorDir+0x1a>
	}else if(left.dir == true) {
 8003c06:	792a      	ldrb	r2, [r5, #4]
 8003c08:	b10a      	cbz	r2, 8003c0e <Set_MotorDir+0x62>
		HAL_GPIO_WritePin(GPIOC, GPIO_PIN_2, GPIO_PIN_SET);
 8003c0a:	2201      	movs	r2, #1
 8003c0c:	e7e6      	b.n	8003bdc <Set_MotorDir+0x30>
		HAL_GPIO_WritePin(GPIOC, GPIO_PIN_2, GPIO_PIN_RESET);
 8003c0e:	2104      	movs	r1, #4
 8003c10:	4803      	ldr	r0, [pc, #12]	; (8003c20 <Set_MotorDir+0x74>)
 8003c12:	f7fd fc45 	bl	80014a0 <HAL_GPIO_WritePin>
		HAL_GPIO_WritePin(GPIOC, GPIO_PIN_3, GPIO_PIN_SET);
 8003c16:	2201      	movs	r2, #1
 8003c18:	e7e5      	b.n	8003be6 <Set_MotorDir+0x3a>
 8003c1a:	bf00      	nop
 8003c1c:	20000cdc 	.word	0x20000cdc
 8003c20:	40020800 	.word	0x40020800
 8003c24:	20000d34 	.word	0x20000d34

08003c28 <Set_PIDOut>:
//updates left and right PID setpoints and Inputs, computes new output and updates PWM
void Set_PIDOut(float rpm1, float rpm2, UART_HandleTypeDef* huart){
 8003c28:	e92d 43f8 	stmdb	sp!, {r3, r4, r5, r6, r7, r8, r9, lr}
//      setpoint - The desired setpoint the PID controller will try to obtain.
// Returns:
//      Nothing.
// 
inline void 
PIDSetpointSet(PIDControl *pid, float setpoint) { pid->setpoint = setpoint; }
 8003c2c:	4e17      	ldr	r6, [pc, #92]	; (8003c8c <Set_PIDOut+0x64>)
 8003c2e:	4f18      	ldr	r7, [pc, #96]	; (8003c90 <Set_PIDOut+0x68>)
 8003c30:	6833      	ldr	r3, [r6, #0]
 8003c32:	460c      	mov	r4, r1
 8003c34:	6533      	str	r3, [r6, #80]	; 0x50
//      input - The value the controller will work with.
// Returns:
//      Nothing.
// 
inline void 
PIDInputSet(PIDControl *pid, float input) { pid->input = input; }
 8003c36:	4633      	mov	r3, r6
 8003c38:	f843 0f1c 	str.w	r0, [r3, #28]!
	PIDSetpointSet(&right.PID,right.setRPM);
	PIDInputSet(&right.PID,rpm1);
	PIDCompute(&right.PID);
 8003c3c:	4618      	mov	r0, r3
 8003c3e:	f000 fe26 	bl	800488e <PIDCompute>
 8003c42:	4638      	mov	r0, r7
PIDSetpointSet(PIDControl *pid, float setpoint) { pid->setpoint = setpoint; }
 8003c44:	683b      	ldr	r3, [r7, #0]
PIDInputSet(PIDControl *pid, float input) { pid->input = input; }
 8003c46:	f840 4f1c 	str.w	r4, [r0, #28]!
PIDSetpointSet(PIDControl *pid, float setpoint) { pid->setpoint = setpoint; }
 8003c4a:	653b      	str	r3, [r7, #80]	; 0x50
	PIDSetpointSet(&left.PID,left.setRPM);
	PIDInputSet(&left.PID,rpm2);
	PIDCompute(&left.PID);
 8003c4c:	f000 fe1f 	bl	800488e <PIDCompute>
	uint16_t speed1 = (uint16_t)PIDOutputGet(&right.PID);
//	uint16_t speed1 = 0;
	uint16_t speed2 = (uint16_t)PIDOutputGet(&left.PID);
 8003c50:	6a78      	ldr	r0, [r7, #36]	; 0x24
 8003c52:	f7fd fa81 	bl	8001158 <__aeabi_f2uiz>
	speed1 = map(speed1, 0, 255, 0, 2000);
	speed2 = map(speed2, 0, 255, 0, 2000);
//	char buffer[25];
//	uint8_t len = sprintf(buffer,"pwm:%i\r\n", speed1); //sprintf will return the length of 'buffer'
//	HAL_UART_Transmit(huart, buffer, len, 1000);
	__HAL_TIM_SetCompare(right.pwm, TIM_CHANNEL_1, speed1);
 8003c56:	69b3      	ldr	r3, [r6, #24]
	return;
}
//Arduino map function
uint16_t map(uint16_t x, uint16_t in_min, uint16_t in_max, uint16_t out_min, uint16_t out_max)
{
  return (x - in_min) * (out_max - out_min) / (in_max - in_min) + out_min;
 8003c58:	b285      	uxth	r5, r0
	uint16_t speed1 = (uint16_t)PIDOutputGet(&right.PID);
 8003c5a:	6a70      	ldr	r0, [r6, #36]	; 0x24
	__HAL_TIM_SetCompare(right.pwm, TIM_CHANNEL_1, speed1);
 8003c5c:	f8d3 9000 	ldr.w	r9, [r3]
	uint16_t speed1 = (uint16_t)PIDOutputGet(&right.PID);
 8003c60:	f7fd fa7a 	bl	8001158 <__aeabi_f2uiz>
  return (x - in_min) * (out_max - out_min) / (in_max - in_min) + out_min;
 8003c64:	f44f 64fa 	mov.w	r4, #2000	; 0x7d0
 8003c68:	f04f 08ff 	mov.w	r8, #255	; 0xff
 8003c6c:	b280      	uxth	r0, r0
 8003c6e:	4365      	muls	r5, r4
 8003c70:	4344      	muls	r4, r0
 8003c72:	fb95 f5f8 	sdiv	r5, r5, r8
 8003c76:	fb94 f4f8 	sdiv	r4, r4, r8
	__HAL_TIM_SetCompare(left.pwm, TIM_CHANNEL_1, speed2);
 8003c7a:	69bb      	ldr	r3, [r7, #24]
	__HAL_TIM_SetCompare(right.pwm, TIM_CHANNEL_1, speed1);
 8003c7c:	b2a4      	uxth	r4, r4
	__HAL_TIM_SetCompare(left.pwm, TIM_CHANNEL_1, speed2);
 8003c7e:	681b      	ldr	r3, [r3, #0]
 8003c80:	b2ad      	uxth	r5, r5
	__HAL_TIM_SetCompare(right.pwm, TIM_CHANNEL_1, speed1);
 8003c82:	f8c9 4034 	str.w	r4, [r9, #52]	; 0x34
	__HAL_TIM_SetCompare(left.pwm, TIM_CHANNEL_1, speed2);
 8003c86:	635d      	str	r5, [r3, #52]	; 0x34
 8003c88:	e8bd 83f8 	ldmia.w	sp!, {r3, r4, r5, r6, r7, r8, r9, pc}
 8003c8c:	20000cdc 	.word	0x20000cdc
 8003c90:	20000d34 	.word	0x20000d34
 8003c94:	00000000 	.word	0x00000000

08003c98 <Run_PID>:
void Run_PID(UART_HandleTypeDef* huart){
 8003c98:	e92d 43f0 	stmdb	sp!, {r4, r5, r6, r7, r8, r9, lr}
 8003c9c:	b085      	sub	sp, #20
 8003c9e:	4606      	mov	r6, r0
	volatile uint64_t tim = HAL_GetTick();
 8003ca0:	f7fd faa2 	bl	80011e8 <HAL_GetTick>
 8003ca4:	2100      	movs	r1, #0
	volatile uint32_t deltat = (uint32_t)(tim - prevtim);
 8003ca6:	4c7a      	ldr	r4, [pc, #488]	; (8003e90 <Run_PID+0x1f8>)
	volatile uint64_t tim = HAL_GetTick();
 8003ca8:	e9cd 0102 	strd	r0, r1, [sp, #8]
	volatile uint32_t deltat = (uint32_t)(tim - prevtim);
 8003cac:	e9dd 2302 	ldrd	r2, r3, [sp, #8]
 8003cb0:	6823      	ldr	r3, [r4, #0]
 8003cb2:	1ad2      	subs	r2, r2, r3
 8003cb4:	9201      	str	r2, [sp, #4]
	if(deltat < PID_PERIOD){
 8003cb6:	9b01      	ldr	r3, [sp, #4]
 8003cb8:	2b18      	cmp	r3, #24
 8003cba:	f240 80d8 	bls.w	8003e6e <Run_PID+0x1d6>
	Set_MotorDir();
 8003cbe:	f7ff ff75 	bl	8003bac <Set_MotorDir>
	uint16_t newposition1 = Get_RightEncoderPos();
 8003cc2:	f7ff ff6d 	bl	8003ba0 <Get_RightEncoderPos>
 8003cc6:	4605      	mov	r5, r0
	uint16_t newposition2 = Get_LeftEncoderPos();
 8003cc8:	f7ff ff64 	bl	8003b94 <Get_LeftEncoderPos>
	prevtim = tim;
 8003ccc:	e9dd 2302 	ldrd	r2, r3, [sp, #8]
	uint16_t newposition2 = Get_LeftEncoderPos();
 8003cd0:	4607      	mov	r7, r0
	prevtim = tim;
 8003cd2:	e9c4 2300 	strd	r2, r3, [r4]
	float vel1 = ((float)newposition1) * 10; //encoder pulses per second
 8003cd6:	4628      	mov	r0, r5
 8003cd8:	f7fc fffa 	bl	8000cd0 <__aeabi_ui2f>
 8003cdc:	496d      	ldr	r1, [pc, #436]	; (8003e94 <Run_PID+0x1fc>)
 8003cde:	f7fd f84f 	bl	8000d80 <__aeabi_fmul>
	float rpm1 = ((vel1 * 60)/750); //Measured motor RPM
 8003ce2:	496d      	ldr	r1, [pc, #436]	; (8003e98 <Run_PID+0x200>)
 8003ce4:	f7fd f84c 	bl	8000d80 <__aeabi_fmul>
 8003ce8:	496c      	ldr	r1, [pc, #432]	; (8003e9c <Run_PID+0x204>)
 8003cea:	f7fd f8fd 	bl	8000ee8 <__aeabi_fdiv>
 8003cee:	4605      	mov	r5, r0
	float vel2 = ((float)newposition2) * 10; //encoder pulses per second
 8003cf0:	4638      	mov	r0, r7
 8003cf2:	f7fc ffed 	bl	8000cd0 <__aeabi_ui2f>
 8003cf6:	4967      	ldr	r1, [pc, #412]	; (8003e94 <Run_PID+0x1fc>)
 8003cf8:	f7fd f842 	bl	8000d80 <__aeabi_fmul>
	float rpm2 = ((vel2 * 60)/750);
 8003cfc:	4966      	ldr	r1, [pc, #408]	; (8003e98 <Run_PID+0x200>)
 8003cfe:	f7fd f83f 	bl	8000d80 <__aeabi_fmul>
 8003d02:	4966      	ldr	r1, [pc, #408]	; (8003e9c <Run_PID+0x204>)
 8003d04:	f7fd f8f0 	bl	8000ee8 <__aeabi_fdiv>
	Set_PIDOut(rpm1, rpm2, huart);
 8003d08:	4632      	mov	r2, r6
	float rpm2 = ((vel2 * 60)/750);
 8003d0a:	4604      	mov	r4, r0
	Set_PIDOut(rpm1, rpm2, huart);
 8003d0c:	4601      	mov	r1, r0
 8003d0e:	4628      	mov	r0, r5
 8003d10:	f7ff ff8a 	bl	8003c28 <Set_PIDOut>
	float realspeed1 = (rpm1 * 2.0 * M_PI * WHEELRAD)/60; //Linear speed in mm/s
 8003d14:	4628      	mov	r0, r5
 8003d16:	f7fc fb9f 	bl	8000458 <__aeabi_f2d>
 8003d1a:	4602      	mov	r2, r0
 8003d1c:	460b      	mov	r3, r1
 8003d1e:	f7fc fa3d 	bl	800019c <__adddf3>
 8003d22:	a355      	add	r3, pc, #340	; (adr r3, 8003e78 <Run_PID+0x1e0>)
 8003d24:	e9d3 2300 	ldrd	r2, r3, [r3]
 8003d28:	f7fc fbea 	bl	8000500 <__aeabi_dmul>
 8003d2c:	a354      	add	r3, pc, #336	; (adr r3, 8003e80 <Run_PID+0x1e8>)
 8003d2e:	e9d3 2300 	ldrd	r2, r3, [r3]
 8003d32:	f7fc fbe5 	bl	8000500 <__aeabi_dmul>
 8003d36:	2200      	movs	r2, #0
 8003d38:	4b59      	ldr	r3, [pc, #356]	; (8003ea0 <Run_PID+0x208>)
 8003d3a:	f7fc fd0b 	bl	8000754 <__aeabi_ddiv>
 8003d3e:	f7fc fec1 	bl	8000ac4 <__aeabi_d2f>
	right.distance_traveled = right.distance_traveled + (realspeed1*deltat*1e-3); //integrate linear velocity to obtain distance
 8003d42:	9e01      	ldr	r6, [sp, #4]
	float realspeed1 = (rpm1 * 2.0 * M_PI * WHEELRAD)/60; //Linear speed in mm/s
 8003d44:	4605      	mov	r5, r0
	right.distance_traveled = right.distance_traveled + (realspeed1*deltat*1e-3); //integrate linear velocity to obtain distance
 8003d46:	4630      	mov	r0, r6
 8003d48:	f7fc ffc2 	bl	8000cd0 <__aeabi_ui2f>
 8003d4c:	4601      	mov	r1, r0
 8003d4e:	4628      	mov	r0, r5
 8003d50:	f7fd f816 	bl	8000d80 <__aeabi_fmul>
 8003d54:	f7fc fb80 	bl	8000458 <__aeabi_f2d>
 8003d58:	a34b      	add	r3, pc, #300	; (adr r3, 8003e88 <Run_PID+0x1f0>)
 8003d5a:	e9d3 2300 	ldrd	r2, r3, [r3]
 8003d5e:	f7fc fbcf 	bl	8000500 <__aeabi_dmul>
 8003d62:	4d50      	ldr	r5, [pc, #320]	; (8003ea4 <Run_PID+0x20c>)
 8003d64:	4606      	mov	r6, r0
 8003d66:	68a8      	ldr	r0, [r5, #8]
 8003d68:	460f      	mov	r7, r1
 8003d6a:	f7fc fb75 	bl	8000458 <__aeabi_f2d>
 8003d6e:	4602      	mov	r2, r0
 8003d70:	460b      	mov	r3, r1
 8003d72:	4630      	mov	r0, r6
 8003d74:	4639      	mov	r1, r7
 8003d76:	f7fc fa11 	bl	800019c <__adddf3>
 8003d7a:	f7fc fea3 	bl	8000ac4 <__aeabi_d2f>
 8003d7e:	60a8      	str	r0, [r5, #8]
 8003d80:	4680      	mov	r8, r0
	float realspeed2 = (rpm2 * 2.0 * M_PI * WHEELRAD)/60; //Linear speed in mm/s
 8003d82:	4620      	mov	r0, r4
 8003d84:	f7fc fb68 	bl	8000458 <__aeabi_f2d>
 8003d88:	4602      	mov	r2, r0
 8003d8a:	460b      	mov	r3, r1
 8003d8c:	f7fc fa06 	bl	800019c <__adddf3>
 8003d90:	a339      	add	r3, pc, #228	; (adr r3, 8003e78 <Run_PID+0x1e0>)
 8003d92:	e9d3 2300 	ldrd	r2, r3, [r3]
 8003d96:	f7fc fbb3 	bl	8000500 <__aeabi_dmul>
 8003d9a:	a339      	add	r3, pc, #228	; (adr r3, 8003e80 <Run_PID+0x1e8>)
 8003d9c:	e9d3 2300 	ldrd	r2, r3, [r3]
 8003da0:	f7fc fbae 	bl	8000500 <__aeabi_dmul>
 8003da4:	2200      	movs	r2, #0
 8003da6:	4b3e      	ldr	r3, [pc, #248]	; (8003ea0 <Run_PID+0x208>)
 8003da8:	f7fc fcd4 	bl	8000754 <__aeabi_ddiv>
 8003dac:	f7fc fe8a 	bl	8000ac4 <__aeabi_d2f>
	left.distance_traveled = left.distance_traveled + (realspeed2*deltat*1e-3); //integrate linear velocity to obtain distance
 8003db0:	9e01      	ldr	r6, [sp, #4]
	float realspeed2 = (rpm2 * 2.0 * M_PI * WHEELRAD)/60; //Linear speed in mm/s
 8003db2:	4604      	mov	r4, r0
	left.distance_traveled = left.distance_traveled + (realspeed2*deltat*1e-3); //integrate linear velocity to obtain distance
 8003db4:	4630      	mov	r0, r6
 8003db6:	f7fc ff8b 	bl	8000cd0 <__aeabi_ui2f>
 8003dba:	4601      	mov	r1, r0
 8003dbc:	4620      	mov	r0, r4
 8003dbe:	f7fc ffdf 	bl	8000d80 <__aeabi_fmul>
 8003dc2:	f7fc fb49 	bl	8000458 <__aeabi_f2d>
 8003dc6:	a330      	add	r3, pc, #192	; (adr r3, 8003e88 <Run_PID+0x1f0>)
 8003dc8:	e9d3 2300 	ldrd	r2, r3, [r3]
 8003dcc:	f7fc fb98 	bl	8000500 <__aeabi_dmul>
 8003dd0:	4c35      	ldr	r4, [pc, #212]	; (8003ea8 <Run_PID+0x210>)
 8003dd2:	4606      	mov	r6, r0
 8003dd4:	68a0      	ldr	r0, [r4, #8]
 8003dd6:	460f      	mov	r7, r1
 8003dd8:	f7fc fb3e 	bl	8000458 <__aeabi_f2d>
 8003ddc:	4602      	mov	r2, r0
 8003dde:	460b      	mov	r3, r1
 8003de0:	4630      	mov	r0, r6
 8003de2:	4639      	mov	r1, r7
 8003de4:	f7fc f9da 	bl	800019c <__adddf3>
 8003de8:	f7fc fe6c 	bl	8000ac4 <__aeabi_d2f>
	if ((right.setDis==0 && left.setDis == 0)||(abs(right.distance_traveled-right.setDis) <= TOLERANCE)||(abs(left.distance_traveled-left.setDis) <= TOLERANCE) ){
 8003dec:	f8d5 900c 	ldr.w	r9, [r5, #12]
	left.distance_traveled = left.distance_traveled + (realspeed2*deltat*1e-3); //integrate linear velocity to obtain distance
 8003df0:	60a0      	str	r0, [r4, #8]
 8003df2:	4607      	mov	r7, r0
	if ((right.setDis==0 && left.setDis == 0)||(abs(right.distance_traveled-right.setDis) <= TOLERANCE)||(abs(left.distance_traveled-left.setDis) <= TOLERANCE) ){
 8003df4:	2100      	movs	r1, #0
 8003df6:	4648      	mov	r0, r9
 8003df8:	f7fd f956 	bl	80010a8 <__aeabi_fcmpeq>
 8003dfc:	2600      	movs	r6, #0
 8003dfe:	b120      	cbz	r0, 8003e0a <Run_PID+0x172>
 8003e00:	4631      	mov	r1, r6
 8003e02:	68e0      	ldr	r0, [r4, #12]
 8003e04:	f7fd f950 	bl	80010a8 <__aeabi_fcmpeq>
 8003e08:	b988      	cbnz	r0, 8003e2e <Run_PID+0x196>
 8003e0a:	4649      	mov	r1, r9
 8003e0c:	4640      	mov	r0, r8
 8003e0e:	f7fc fead 	bl	8000b6c <__aeabi_fsub>
 8003e12:	f7fd f97b 	bl	800110c <__aeabi_f2iz>
 8003e16:	300a      	adds	r0, #10
 8003e18:	2814      	cmp	r0, #20
 8003e1a:	d908      	bls.n	8003e2e <Run_PID+0x196>
 8003e1c:	68e1      	ldr	r1, [r4, #12]
 8003e1e:	4638      	mov	r0, r7
 8003e20:	f7fc fea4 	bl	8000b6c <__aeabi_fsub>
 8003e24:	f7fd f972 	bl	800110c <__aeabi_f2iz>
 8003e28:	300a      	adds	r0, #10
 8003e2a:	2814      	cmp	r0, #20
 8003e2c:	d81f      	bhi.n	8003e6e <Run_PID+0x1d6>
		__HAL_TIM_SetCompare(right.pwm, TIM_CHANNEL_1, 0);
 8003e2e:	69ab      	ldr	r3, [r5, #24]
 8003e30:	681a      	ldr	r2, [r3, #0]
 8003e32:	2300      	movs	r3, #0
 8003e34:	6353      	str	r3, [r2, #52]	; 0x34
		__HAL_TIM_SetCompare(left.pwm, TIM_CHANNEL_1, 0);
 8003e36:	69a2      	ldr	r2, [r4, #24]
 8003e38:	6812      	ldr	r2, [r2, #0]
		right.dir = false;
 8003e3a:	712b      	strb	r3, [r5, #4]
		__HAL_TIM_SetCompare(left.pwm, TIM_CHANNEL_1, 0);
 8003e3c:	6353      	str	r3, [r2, #52]	; 0x34
		left.dir = false;
 8003e3e:	7123      	strb	r3, [r4, #4]
		right.setRPM = 0.0; //Brake
 8003e40:	602e      	str	r6, [r5, #0]
		left.setRPM = 0.0; //Brake
 8003e42:	6026      	str	r6, [r4, #0]
		right.setDis = 0.0;
 8003e44:	60ee      	str	r6, [r5, #12]
		left.setDis = 0.0;
 8003e46:	60e6      	str	r6, [r4, #12]
		right.distance_traveled = 0.0;
 8003e48:	60ae      	str	r6, [r5, #8]
		left.distance_traveled = 0.0;
 8003e4a:	60a6      	str	r6, [r4, #8]
		Set_MotorDir();
 8003e4c:	f7ff feae 	bl	8003bac <Set_MotorDir>
		if(!isEmpty()){
 8003e50:	f7ff fcc4 	bl	80037dc <isEmpty>
 8003e54:	b928      	cbnz	r0, 8003e62 <Run_PID+0x1ca>
			EXE_CMD(deq(), &htim9, &huart1);
 8003e56:	f7ff fcc9 	bl	80037ec <deq>
 8003e5a:	4a14      	ldr	r2, [pc, #80]	; (8003eac <Run_PID+0x214>)
 8003e5c:	4914      	ldr	r1, [pc, #80]	; (8003eb0 <Run_PID+0x218>)
 8003e5e:	f7ff fadd 	bl	800341c <EXE_CMD>
		Get_EncoderPos(&right);
 8003e62:	4810      	ldr	r0, [pc, #64]	; (8003ea4 <Run_PID+0x20c>)
 8003e64:	f7ff fe76 	bl	8003b54 <Get_EncoderPos>
		Get_EncoderPos(&left);
 8003e68:	480f      	ldr	r0, [pc, #60]	; (8003ea8 <Run_PID+0x210>)
 8003e6a:	f7ff fe73 	bl	8003b54 <Get_EncoderPos>
}
 8003e6e:	b005      	add	sp, #20
 8003e70:	e8bd 83f0 	ldmia.w	sp!, {r4, r5, r6, r7, r8, r9, pc}
 8003e74:	f3af 8000 	nop.w
 8003e78:	54442d18 	.word	0x54442d18
 8003e7c:	400921fb 	.word	0x400921fb
 8003e80:	9999999a 	.word	0x9999999a
 8003e84:	40463999 	.word	0x40463999
 8003e88:	d2f1a9fc 	.word	0xd2f1a9fc
 8003e8c:	3f50624d 	.word	0x3f50624d
 8003e90:	200001f8 	.word	0x200001f8
 8003e94:	41200000 	.word	0x41200000
 8003e98:	42700000 	.word	0x42700000
 8003e9c:	443b8000 	.word	0x443b8000
 8003ea0:	404e0000 	.word	0x404e0000
 8003ea4:	20000cdc 	.word	0x20000cdc
 8003ea8:	20000d34 	.word	0x20000d34
 8003eac:	20000fbc 	.word	0x20000fbc
 8003eb0:	20000f4c 	.word	0x20000f4c

08003eb4 <Run_MotorPWM>:
void Run_MotorPWM(int16_t pwm){
 8003eb4:	b508      	push	{r3, lr}
	__HAL_TIM_SetCompare(right.pwm, TIM_CHANNEL_1, abs(pwm));
 8003eb6:	4b1a      	ldr	r3, [pc, #104]	; (8003f20 <Run_MotorPWM+0x6c>)
	if(pwm >= 0){
 8003eb8:	2800      	cmp	r0, #0
	__HAL_TIM_SetCompare(right.pwm, TIM_CHANNEL_1, abs(pwm));
 8003eba:	699b      	ldr	r3, [r3, #24]
 8003ebc:	681a      	ldr	r2, [r3, #0]
 8003ebe:	ea80 73e0 	eor.w	r3, r0, r0, asr #31
 8003ec2:	eba3 73e0 	sub.w	r3, r3, r0, asr #31
 8003ec6:	6353      	str	r3, [r2, #52]	; 0x34
	__HAL_TIM_SetCompare(left.pwm, TIM_CHANNEL_1, abs(pwm));
 8003ec8:	4a16      	ldr	r2, [pc, #88]	; (8003f24 <Run_MotorPWM+0x70>)
 8003eca:	6992      	ldr	r2, [r2, #24]
 8003ecc:	6812      	ldr	r2, [r2, #0]
 8003ece:	6353      	str	r3, [r2, #52]	; 0x34
	if(pwm >= 0){
 8003ed0:	db15      	blt.n	8003efe <Run_MotorPWM+0x4a>
		HAL_GPIO_WritePin(GPIOC, GPIO_PIN_2, GPIO_PIN_RESET);
 8003ed2:	2200      	movs	r2, #0
 8003ed4:	2104      	movs	r1, #4
 8003ed6:	4814      	ldr	r0, [pc, #80]	; (8003f28 <Run_MotorPWM+0x74>)
 8003ed8:	f7fd fae2 	bl	80014a0 <HAL_GPIO_WritePin>
		HAL_GPIO_WritePin(GPIOC, GPIO_PIN_3, GPIO_PIN_SET);
 8003edc:	2201      	movs	r2, #1
 8003ede:	2108      	movs	r1, #8
 8003ee0:	4811      	ldr	r0, [pc, #68]	; (8003f28 <Run_MotorPWM+0x74>)
 8003ee2:	f7fd fadd 	bl	80014a0 <HAL_GPIO_WritePin>
		HAL_GPIO_WritePin(GPIOC, GPIO_PIN_0, GPIO_PIN_RESET);
 8003ee6:	2200      	movs	r2, #0
 8003ee8:	2101      	movs	r1, #1
 8003eea:	480f      	ldr	r0, [pc, #60]	; (8003f28 <Run_MotorPWM+0x74>)
 8003eec:	f7fd fad8 	bl	80014a0 <HAL_GPIO_WritePin>
		HAL_GPIO_WritePin(GPIOC, GPIO_PIN_1, GPIO_PIN_SET);
 8003ef0:	2201      	movs	r2, #1
}
 8003ef2:	e8bd 4008 	ldmia.w	sp!, {r3, lr}
		HAL_GPIO_WritePin(GPIOC, GPIO_PIN_1, GPIO_PIN_RESET);
 8003ef6:	2102      	movs	r1, #2
 8003ef8:	480b      	ldr	r0, [pc, #44]	; (8003f28 <Run_MotorPWM+0x74>)
 8003efa:	f7fd bad1 	b.w	80014a0 <HAL_GPIO_WritePin>
		HAL_GPIO_WritePin(GPIOC, GPIO_PIN_2, GPIO_PIN_SET);
 8003efe:	2201      	movs	r2, #1
 8003f00:	2104      	movs	r1, #4
 8003f02:	4809      	ldr	r0, [pc, #36]	; (8003f28 <Run_MotorPWM+0x74>)
 8003f04:	f7fd facc 	bl	80014a0 <HAL_GPIO_WritePin>
		HAL_GPIO_WritePin(GPIOC, GPIO_PIN_3, GPIO_PIN_RESET);
 8003f08:	2200      	movs	r2, #0
 8003f0a:	2108      	movs	r1, #8
 8003f0c:	4806      	ldr	r0, [pc, #24]	; (8003f28 <Run_MotorPWM+0x74>)
 8003f0e:	f7fd fac7 	bl	80014a0 <HAL_GPIO_WritePin>
		HAL_GPIO_WritePin(GPIOC, GPIO_PIN_0, GPIO_PIN_SET);
 8003f12:	2201      	movs	r2, #1
 8003f14:	4804      	ldr	r0, [pc, #16]	; (8003f28 <Run_MotorPWM+0x74>)
 8003f16:	4611      	mov	r1, r2
 8003f18:	f7fd fac2 	bl	80014a0 <HAL_GPIO_WritePin>
		HAL_GPIO_WritePin(GPIOC, GPIO_PIN_1, GPIO_PIN_RESET);
 8003f1c:	2200      	movs	r2, #0
 8003f1e:	e7e8      	b.n	8003ef2 <Run_MotorPWM+0x3e>
 8003f20:	20000cdc 	.word	0x20000cdc
 8003f24:	20000d34 	.word	0x20000d34
 8003f28:	40020800 	.word	0x40020800

08003f2c <Stop_Motors>:
void Stop_Motors(){
 8003f2c:	b510      	push	{r4, lr}
	HAL_GPIO_WritePin(GPIOC, GPIO_PIN_0, GPIO_PIN_RESET);
 8003f2e:	4c17      	ldr	r4, [pc, #92]	; (8003f8c <Stop_Motors+0x60>)
 8003f30:	2200      	movs	r2, #0
 8003f32:	4620      	mov	r0, r4
 8003f34:	2101      	movs	r1, #1
 8003f36:	f7fd fab3 	bl	80014a0 <HAL_GPIO_WritePin>
	HAL_GPIO_WritePin(GPIOC, GPIO_PIN_1, GPIO_PIN_RESET);
 8003f3a:	4620      	mov	r0, r4
 8003f3c:	2200      	movs	r2, #0
 8003f3e:	2102      	movs	r1, #2
 8003f40:	f7fd faae 	bl	80014a0 <HAL_GPIO_WritePin>
	HAL_GPIO_WritePin(GPIOC, GPIO_PIN_2, GPIO_PIN_RESET);
 8003f44:	4620      	mov	r0, r4
 8003f46:	2200      	movs	r2, #0
 8003f48:	2104      	movs	r1, #4
 8003f4a:	f7fd faa9 	bl	80014a0 <HAL_GPIO_WritePin>
	HAL_GPIO_WritePin(GPIOC, GPIO_PIN_3, GPIO_PIN_RESET);
 8003f4e:	4620      	mov	r0, r4
 8003f50:	2200      	movs	r2, #0
 8003f52:	2108      	movs	r1, #8
 8003f54:	f7fd faa4 	bl	80014a0 <HAL_GPIO_WritePin>
	__HAL_TIM_SetCompare(right.pwm, TIM_CHANNEL_1, 0);
 8003f58:	2200      	movs	r2, #0
 8003f5a:	480d      	ldr	r0, [pc, #52]	; (8003f90 <Stop_Motors+0x64>)
	__HAL_TIM_SetCompare(left.pwm, TIM_CHANNEL_1, 0);
 8003f5c:	4c0d      	ldr	r4, [pc, #52]	; (8003f94 <Stop_Motors+0x68>)
	__HAL_TIM_SetCompare(right.pwm, TIM_CHANNEL_1, 0);
 8003f5e:	6983      	ldr	r3, [r0, #24]
 8003f60:	681b      	ldr	r3, [r3, #0]
 8003f62:	635a      	str	r2, [r3, #52]	; 0x34
	__HAL_TIM_SetCompare(left.pwm, TIM_CHANNEL_1, 0);
 8003f64:	69a3      	ldr	r3, [r4, #24]
 8003f66:	681b      	ldr	r3, [r3, #0]
	left.dir = false;
 8003f68:	7122      	strb	r2, [r4, #4]
	__HAL_TIM_SetCompare(left.pwm, TIM_CHANNEL_1, 0);
 8003f6a:	635a      	str	r2, [r3, #52]	; 0x34
	right.setRPM = 0.0; //Brake
 8003f6c:	2300      	movs	r3, #0
	right.dir = false;
 8003f6e:	7102      	strb	r2, [r0, #4]
	left.setRPM = 0.0; //Brake
 8003f70:	6023      	str	r3, [r4, #0]
	left.setDis = 0.0;
 8003f72:	60e3      	str	r3, [r4, #12]
	left.distance_traveled = 0.0;
 8003f74:	60a3      	str	r3, [r4, #8]
	right.setRPM = 0.0; //Brake
 8003f76:	6003      	str	r3, [r0, #0]
	right.setDis = 0.0;
 8003f78:	60c3      	str	r3, [r0, #12]
	right.distance_traveled = 0.0;
 8003f7a:	6083      	str	r3, [r0, #8]
	Get_EncoderPos(&right);
 8003f7c:	f7ff fdea 	bl	8003b54 <Get_EncoderPos>
	Get_EncoderPos(&left);
 8003f80:	4620      	mov	r0, r4
}
 8003f82:	e8bd 4010 	ldmia.w	sp!, {r4, lr}
	Get_EncoderPos(&left);
 8003f86:	f7ff bde5 	b.w	8003b54 <Get_EncoderPos>
 8003f8a:	bf00      	nop
 8003f8c:	40020800 	.word	0x40020800
 8003f90:	20000cdc 	.word	0x20000cdc
 8003f94:	20000d34 	.word	0x20000d34

08003f98 <map>:
{
 8003f98:	b510      	push	{r4, lr}
  return (x - in_min) * (out_max - out_min) / (in_max - in_min) + out_min;
 8003f9a:	1a44      	subs	r4, r0, r1
 8003f9c:	f8bd 0008 	ldrh.w	r0, [sp, #8]
 8003fa0:	1a52      	subs	r2, r2, r1
 8003fa2:	1ac0      	subs	r0, r0, r3
 8003fa4:	4360      	muls	r0, r4
 8003fa6:	fb90 f0f2 	sdiv	r0, r0, r2
 8003faa:	4418      	add	r0, r3
}
 8003fac:	b280      	uxth	r0, r0
 8003fae:	bd10      	pop	{r4, pc}

08003fb0 <startPP>:
char *dis, *rot;
float lin_dis;
float theta = ROTATIONANGLE;
bool running = false;
void startPP(){
	running = !running;
 8003fb0:	4a02      	ldr	r2, [pc, #8]	; (8003fbc <startPP+0xc>)
 8003fb2:	7813      	ldrb	r3, [r2, #0]
 8003fb4:	f083 0301 	eor.w	r3, r3, #1
 8003fb8:	7013      	strb	r3, [r2, #0]
 8003fba:	4770      	bx	lr
 8003fbc:	20000201 	.word	0x20000201

08003fc0 <RunMotionPlanning>:
	return;
}

void RunMotionPlanning(float End_of_Window_Threshold){
 8003fc0:	e92d 4ff0 	stmdb	sp!, {r4, r5, r6, r7, r8, r9, sl, fp, lr}
	if(!running){
 8003fc4:	4ba4      	ldr	r3, [pc, #656]	; (8004258 <RunMotionPlanning+0x298>)
void RunMotionPlanning(float End_of_Window_Threshold){
 8003fc6:	b08d      	sub	sp, #52	; 0x34
	if(!running){
 8003fc8:	781b      	ldrb	r3, [r3, #0]
 8003fca:	2b00      	cmp	r3, #0
 8003fcc:	f000 80f0 	beq.w	80041b0 <RunMotionPlanning+0x1f0>
		return;
	}
	if(isFull()){
 8003fd0:	f7ff fbfa 	bl	80037c8 <isFull>
 8003fd4:	4604      	mov	r4, r0
 8003fd6:	2800      	cmp	r0, #0
 8003fd8:	f040 80ea 	bne.w	80041b0 <RunMotionPlanning+0x1f0>

			return;
		}
	//double d_x = Get_Ultrasonic_Reading(&x);
	sampleSensors();
 8003fdc:	f000 fa8c 	bl	80044f8 <sampleSensors>
	double d_y = Get_USY();
 8003fe0:	f000 f9d4 	bl	800438c <Get_USY>
		enq("l 991 500");
		BarrierCrossed = true;
	}

	else {
		lin_dis = d_y - WINDOWBOTTOMMARGIN - UltrasonicYPLACEMENT;
 8003fe4:	a398      	add	r3, pc, #608	; (adr r3, 8004248 <RunMotionPlanning+0x288>)
 8003fe6:	e9d3 2300 	ldrd	r2, r3, [r3]
	double d_y = Get_USY();
 8003fea:	4680      	mov	r8, r0
 8003fec:	4689      	mov	r9, r1
		lin_dis = d_y - WINDOWBOTTOMMARGIN - UltrasonicYPLACEMENT;
 8003fee:	f7fc f8d3 	bl	8000198 <__aeabi_dsub>
 8003ff2:	f7fc fd67 	bl	8000ac4 <__aeabi_d2f>
 8003ff6:	4f99      	ldr	r7, [pc, #612]	; (800425c <RunMotionPlanning+0x29c>)
		len = snprintf("", 0, "%f", lin_dis);
 8003ff8:	4d99      	ldr	r5, [pc, #612]	; (8004260 <RunMotionPlanning+0x2a0>)
		lin_dis = d_y - WINDOWBOTTOMMARGIN - UltrasonicYPLACEMENT;
 8003ffa:	6038      	str	r0, [r7, #0]
		len = snprintf("", 0, "%f", lin_dis);
 8003ffc:	f7fc fa2c 	bl	8000458 <__aeabi_f2d>
 8004000:	4a98      	ldr	r2, [pc, #608]	; (8004264 <RunMotionPlanning+0x2a4>)
 8004002:	e9cd 0100 	strd	r0, r1, [sp]
 8004006:	4621      	mov	r1, r4
 8004008:	4897      	ldr	r0, [pc, #604]	; (8004268 <RunMotionPlanning+0x2a8>)
 800400a:	f001 f9c3 	bl	8005394 <sniprintf>
		dis = (char *)malloc(len + 1);
 800400e:	1c44      	adds	r4, r0, #1
		len = snprintf("", 0, "%f", lin_dis);
 8004010:	6028      	str	r0, [r5, #0]
		dis = (char *)malloc(len + 1);
 8004012:	4620      	mov	r0, r4
 8004014:	f001 f8ec 	bl	80051f0 <malloc>
 8004018:	4e94      	ldr	r6, [pc, #592]	; (800426c <RunMotionPlanning+0x2ac>)
 800401a:	4682      	mov	sl, r0
 800401c:	6030      	str	r0, [r6, #0]
		snprintf(dis, len + 1, "%f", lin_dis);
 800401e:	6838      	ldr	r0, [r7, #0]
 8004020:	f7fc fa1a 	bl	8000458 <__aeabi_f2d>
 8004024:	4a8f      	ldr	r2, [pc, #572]	; (8004264 <RunMotionPlanning+0x2a4>)
 8004026:	e9cd 0100 	strd	r0, r1, [sp]
 800402a:	4621      	mov	r1, r4
 800402c:	4650      	mov	r0, sl
 800402e:	f001 f9b1 	bl	8005394 <sniprintf>
		char buffer[25];
		strcpy(buffer, "l ");
 8004032:	498f      	ldr	r1, [pc, #572]	; (8004270 <RunMotionPlanning+0x2b0>)
 8004034:	a805      	add	r0, sp, #20
 8004036:	f001 fa14 	bl	8005462 <strcpy>
		strcat(buffer, dis);
 800403a:	6831      	ldr	r1, [r6, #0]
 800403c:	a805      	add	r0, sp, #20
 800403e:	f001 fa01 	bl	8005444 <strcat>
		strcat(buffer, " 200");
 8004042:	498c      	ldr	r1, [pc, #560]	; (8004274 <RunMotionPlanning+0x2b4>)
 8004044:	a805      	add	r0, sp, #20
 8004046:	f001 f9fd 	bl	8005444 <strcat>
		if (d_y <= WINDOWBOTTOMMARGIN + UltrasonicYPLACEMENT){
 800404a:	a37f      	add	r3, pc, #508	; (adr r3, 8004248 <RunMotionPlanning+0x288>)
 800404c:	e9d3 2300 	ldrd	r2, r3, [r3]
 8004050:	4640      	mov	r0, r8
 8004052:	4649      	mov	r1, r9
 8004054:	f7fc fcd0 	bl	80009f8 <__aeabi_dcmple>
 8004058:	46aa      	mov	sl, r5
 800405a:	2800      	cmp	r0, #0
 800405c:	f000 80ab 	beq.w	80041b6 <RunMotionPlanning+0x1f6>
			Stop_Motors();
 8004060:	f7ff ff64 	bl	8003f2c <Stop_Motors>
		}
		else {
			enq(buffer);
		}
		free(dis);
 8004064:	6830      	ldr	r0, [r6, #0]
 8004066:	f001 f8cb 	bl	8005200 <free>
		if (!BarrierCrossed){
 800406a:	4b83      	ldr	r3, [pc, #524]	; (8004278 <RunMotionPlanning+0x2b8>)
 800406c:	4d83      	ldr	r5, [pc, #524]	; (800427c <RunMotionPlanning+0x2bc>)
 800406e:	f893 b000 	ldrb.w	fp, [r3]
 8004072:	9302      	str	r3, [sp, #8]
 8004074:	f8df 921c 	ldr.w	r9, [pc, #540]	; 8004294 <RunMotionPlanning+0x2d4>
 8004078:	4c81      	ldr	r4, [pc, #516]	; (8004280 <RunMotionPlanning+0x2c0>)
			lenr = snprintf("", 0, "%f",theta);
 800407a:	6828      	ldr	r0, [r5, #0]
		if (!BarrierCrossed){
 800407c:	f1bb 0f00 	cmp.w	fp, #0
 8004080:	f040 809d 	bne.w	80041be <RunMotionPlanning+0x1fe>
			lenr = snprintf("", 0, "%f",theta);
 8004084:	f7fc f9e8 	bl	8000458 <__aeabi_f2d>
 8004088:	4a76      	ldr	r2, [pc, #472]	; (8004264 <RunMotionPlanning+0x2a4>)
 800408a:	e9cd 0100 	strd	r0, r1, [sp]
 800408e:	4659      	mov	r1, fp
 8004090:	4875      	ldr	r0, [pc, #468]	; (8004268 <RunMotionPlanning+0x2a8>)
 8004092:	f001 f97f 	bl	8005394 <sniprintf>
			rot = (char *)malloc(lenr + 1);
 8004096:	f100 0801 	add.w	r8, r0, #1
			lenr = snprintf("", 0, "%f",theta);
 800409a:	f8c9 0000 	str.w	r0, [r9]
			rot = (char *)malloc(lenr + 1);
 800409e:	4640      	mov	r0, r8
 80040a0:	f001 f8a6 	bl	80051f0 <malloc>
 80040a4:	6020      	str	r0, [r4, #0]
 80040a6:	9003      	str	r0, [sp, #12]
			snprintf(rot, lenr + 1, "%f", theta);
 80040a8:	6828      	ldr	r0, [r5, #0]
 80040aa:	f7fc f9d5 	bl	8000458 <__aeabi_f2d>
 80040ae:	9b03      	ldr	r3, [sp, #12]
 80040b0:	e9cd 0100 	strd	r0, r1, [sp]
 80040b4:	4a6b      	ldr	r2, [pc, #428]	; (8004264 <RunMotionPlanning+0x2a4>)
 80040b6:	4641      	mov	r1, r8
 80040b8:	4618      	mov	r0, r3
 80040ba:	f001 f96b 	bl	8005394 <sniprintf>
			memset(buffer, 0, 25);
 80040be:	4659      	mov	r1, fp
 80040c0:	2219      	movs	r2, #25
 80040c2:	a805      	add	r0, sp, #20
 80040c4:	f001 f8a4 	bl	8005210 <memset>
			strcpy(buffer,"r 15 ");
 80040c8:	496e      	ldr	r1, [pc, #440]	; (8004284 <RunMotionPlanning+0x2c4>)
		else {
			lenr = snprintf("", 0, "%f",theta);
			rot = (char *)malloc(lenr + 1);
			snprintf(rot, lenr + 1, "%f", theta);
			memset(buffer, 0, 25);
			strcpy(buffer,"r -15 ");
 80040ca:	a805      	add	r0, sp, #20
 80040cc:	f001 f9c9 	bl	8005462 <strcpy>
			strcat(buffer, rot);
 80040d0:	6821      	ldr	r1, [r4, #0]
 80040d2:	a805      	add	r0, sp, #20
 80040d4:	f001 f9b6 	bl	8005444 <strcat>
			enq(buffer);
 80040d8:	a805      	add	r0, sp, #20
 80040da:	f7ff fbb1 	bl	8003840 <enq>
			free(rot);
 80040de:	6820      	ldr	r0, [r4, #0]
 80040e0:	f001 f88e 	bl	8005200 <free>
		}

		 lin_dis = WINDOWANGLEDDISTANCE;
 80040e4:	4b68      	ldr	r3, [pc, #416]	; (8004288 <RunMotionPlanning+0x2c8>)
	     len = snprintf("", 0, "%f", lin_dis);
 80040e6:	2100      	movs	r1, #0
		 lin_dis = WINDOWANGLEDDISTANCE;
 80040e8:	603b      	str	r3, [r7, #0]
	     len = snprintf("", 0, "%f", lin_dis);
 80040ea:	485f      	ldr	r0, [pc, #380]	; (8004268 <RunMotionPlanning+0x2a8>)
 80040ec:	a358      	add	r3, pc, #352	; (adr r3, 8004250 <RunMotionPlanning+0x290>)
 80040ee:	e9d3 2300 	ldrd	r2, r3, [r3]
 80040f2:	e9cd 2300 	strd	r2, r3, [sp]
 80040f6:	4a5b      	ldr	r2, [pc, #364]	; (8004264 <RunMotionPlanning+0x2a4>)
 80040f8:	f001 f94c 	bl	8005394 <sniprintf>
		 dis = (char *)malloc(len + 1);
 80040fc:	f100 0801 	add.w	r8, r0, #1
	     len = snprintf("", 0, "%f", lin_dis);
 8004100:	f8ca 0000 	str.w	r0, [sl]
		 dis = (char *)malloc(len + 1);
 8004104:	4640      	mov	r0, r8
 8004106:	f001 f873 	bl	80051f0 <malloc>
 800410a:	4682      	mov	sl, r0
 800410c:	6030      	str	r0, [r6, #0]
		 snprintf(dis, len + 1, "%f", lin_dis);
 800410e:	6838      	ldr	r0, [r7, #0]
 8004110:	f7fc f9a2 	bl	8000458 <__aeabi_f2d>
 8004114:	4a53      	ldr	r2, [pc, #332]	; (8004264 <RunMotionPlanning+0x2a4>)
 8004116:	e9cd 0100 	strd	r0, r1, [sp]
 800411a:	4641      	mov	r1, r8
 800411c:	4650      	mov	r0, sl
 800411e:	f001 f939 	bl	8005394 <sniprintf>
		 memset(buffer, 0, 25);
 8004122:	2219      	movs	r2, #25
 8004124:	2100      	movs	r1, #0
 8004126:	a805      	add	r0, sp, #20
 8004128:	f001 f872 	bl	8005210 <memset>
		 strcpy(buffer, "l ");
 800412c:	4950      	ldr	r1, [pc, #320]	; (8004270 <RunMotionPlanning+0x2b0>)
 800412e:	a805      	add	r0, sp, #20
 8004130:	f001 f997 	bl	8005462 <strcpy>
		 strcat(buffer, dis);
 8004134:	6831      	ldr	r1, [r6, #0]
 8004136:	a805      	add	r0, sp, #20
 8004138:	f001 f984 	bl	8005444 <strcat>
		 strcat(buffer, " -100");
 800413c:	4953      	ldr	r1, [pc, #332]	; (800428c <RunMotionPlanning+0x2cc>)
 800413e:	a805      	add	r0, sp, #20
 8004140:	f001 f980 	bl	8005444 <strcat>
		 enq(buffer);
 8004144:	a805      	add	r0, sp, #20
 8004146:	f7ff fb7b 	bl	8003840 <enq>

		if (!BarrierCrossed){
 800414a:	9b02      	ldr	r3, [sp, #8]
			lenr = snprintf("", 0, "%f",theta);
 800414c:	6828      	ldr	r0, [r5, #0]
		if (!BarrierCrossed){
 800414e:	781f      	ldrb	r7, [r3, #0]
 8004150:	2f00      	cmp	r7, #0
 8004152:	d157      	bne.n	8004204 <RunMotionPlanning+0x244>
			lenr = snprintf("", 0, "%f",theta);
 8004154:	f7fc f980 	bl	8000458 <__aeabi_f2d>
 8004158:	4a42      	ldr	r2, [pc, #264]	; (8004264 <RunMotionPlanning+0x2a4>)
 800415a:	e9cd 0100 	strd	r0, r1, [sp]
 800415e:	4639      	mov	r1, r7
 8004160:	4841      	ldr	r0, [pc, #260]	; (8004268 <RunMotionPlanning+0x2a8>)
 8004162:	f001 f917 	bl	8005394 <sniprintf>
			rot = (char *)malloc(lenr + 1);
 8004166:	1c46      	adds	r6, r0, #1
			lenr = snprintf("", 0, "%f",theta);
 8004168:	f8c9 0000 	str.w	r0, [r9]
			rot = (char *)malloc(lenr + 1);
 800416c:	4630      	mov	r0, r6
 800416e:	f001 f83f 	bl	80051f0 <malloc>
 8004172:	4680      	mov	r8, r0
 8004174:	6020      	str	r0, [r4, #0]
			snprintf(rot, lenr + 1, "%f", theta);
 8004176:	6828      	ldr	r0, [r5, #0]
 8004178:	f7fc f96e 	bl	8000458 <__aeabi_f2d>
 800417c:	4a39      	ldr	r2, [pc, #228]	; (8004264 <RunMotionPlanning+0x2a4>)
 800417e:	e9cd 0100 	strd	r0, r1, [sp]
 8004182:	4631      	mov	r1, r6
 8004184:	4640      	mov	r0, r8
 8004186:	f001 f905 	bl	8005394 <sniprintf>
			memset(buffer, 0, 25);
 800418a:	4639      	mov	r1, r7
 800418c:	2219      	movs	r2, #25
 800418e:	a805      	add	r0, sp, #20
 8004190:	f001 f83e 	bl	8005210 <memset>
			strcpy(buffer,"r -15 ");
 8004194:	493e      	ldr	r1, [pc, #248]	; (8004290 <RunMotionPlanning+0x2d0>)
		else {
			lenr = snprintf("", 0, "%f",theta);
			rot = (char *)malloc(lenr + 1);
			snprintf(rot, lenr + 1, "%f", theta);
			memset(buffer, 0, 25);
			strcpy(buffer,"r 15 ");
 8004196:	a805      	add	r0, sp, #20
 8004198:	f001 f963 	bl	8005462 <strcpy>
			strcat(buffer, rot);
 800419c:	6821      	ldr	r1, [r4, #0]
 800419e:	a805      	add	r0, sp, #20
 80041a0:	f001 f950 	bl	8005444 <strcat>
			enq(buffer);
 80041a4:	a805      	add	r0, sp, #20
 80041a6:	f7ff fb4b 	bl	8003840 <enq>
			free(rot);
 80041aa:	6820      	ldr	r0, [r4, #0]
 80041ac:	f001 f828 	bl	8005200 <free>
	}

	if ((BarrierCrossed)/*&&(d_x<=WINDOWBOTTOMMARGIN)*/&&(d_y<=WINDOWBOTTOMMARGIN)){
		return;
	}
}
 80041b0:	b00d      	add	sp, #52	; 0x34
 80041b2:	e8bd 8ff0 	ldmia.w	sp!, {r4, r5, r6, r7, r8, r9, sl, fp, pc}
			enq(buffer);
 80041b6:	a805      	add	r0, sp, #20
 80041b8:	f7ff fb42 	bl	8003840 <enq>
 80041bc:	e752      	b.n	8004064 <RunMotionPlanning+0xa4>
			lenr = snprintf("", 0, "%f",theta);
 80041be:	f7fc f94b 	bl	8000458 <__aeabi_f2d>
 80041c2:	4a28      	ldr	r2, [pc, #160]	; (8004264 <RunMotionPlanning+0x2a4>)
 80041c4:	e9cd 0100 	strd	r0, r1, [sp]
 80041c8:	2100      	movs	r1, #0
 80041ca:	4827      	ldr	r0, [pc, #156]	; (8004268 <RunMotionPlanning+0x2a8>)
 80041cc:	f001 f8e2 	bl	8005394 <sniprintf>
			rot = (char *)malloc(lenr + 1);
 80041d0:	f100 0801 	add.w	r8, r0, #1
			lenr = snprintf("", 0, "%f",theta);
 80041d4:	f8c9 0000 	str.w	r0, [r9]
			rot = (char *)malloc(lenr + 1);
 80041d8:	4640      	mov	r0, r8
 80041da:	f001 f809 	bl	80051f0 <malloc>
 80041de:	4683      	mov	fp, r0
 80041e0:	6020      	str	r0, [r4, #0]
			snprintf(rot, lenr + 1, "%f", theta);
 80041e2:	6828      	ldr	r0, [r5, #0]
 80041e4:	f7fc f938 	bl	8000458 <__aeabi_f2d>
 80041e8:	4a1e      	ldr	r2, [pc, #120]	; (8004264 <RunMotionPlanning+0x2a4>)
 80041ea:	e9cd 0100 	strd	r0, r1, [sp]
 80041ee:	4641      	mov	r1, r8
 80041f0:	4658      	mov	r0, fp
 80041f2:	f001 f8cf 	bl	8005394 <sniprintf>
			memset(buffer, 0, 25);
 80041f6:	2100      	movs	r1, #0
 80041f8:	2219      	movs	r2, #25
 80041fa:	a805      	add	r0, sp, #20
 80041fc:	f001 f808 	bl	8005210 <memset>
			strcpy(buffer,"r -15 ");
 8004200:	4923      	ldr	r1, [pc, #140]	; (8004290 <RunMotionPlanning+0x2d0>)
 8004202:	e762      	b.n	80040ca <RunMotionPlanning+0x10a>
			lenr = snprintf("", 0, "%f",theta);
 8004204:	f7fc f928 	bl	8000458 <__aeabi_f2d>
 8004208:	4a16      	ldr	r2, [pc, #88]	; (8004264 <RunMotionPlanning+0x2a4>)
 800420a:	e9cd 0100 	strd	r0, r1, [sp]
 800420e:	2100      	movs	r1, #0
 8004210:	4815      	ldr	r0, [pc, #84]	; (8004268 <RunMotionPlanning+0x2a8>)
 8004212:	f001 f8bf 	bl	8005394 <sniprintf>
			rot = (char *)malloc(lenr + 1);
 8004216:	1c46      	adds	r6, r0, #1
			lenr = snprintf("", 0, "%f",theta);
 8004218:	f8c9 0000 	str.w	r0, [r9]
			rot = (char *)malloc(lenr + 1);
 800421c:	4630      	mov	r0, r6
 800421e:	f000 ffe7 	bl	80051f0 <malloc>
 8004222:	4607      	mov	r7, r0
 8004224:	6020      	str	r0, [r4, #0]
			snprintf(rot, lenr + 1, "%f", theta);
 8004226:	6828      	ldr	r0, [r5, #0]
 8004228:	f7fc f916 	bl	8000458 <__aeabi_f2d>
 800422c:	4a0d      	ldr	r2, [pc, #52]	; (8004264 <RunMotionPlanning+0x2a4>)
 800422e:	e9cd 0100 	strd	r0, r1, [sp]
 8004232:	4631      	mov	r1, r6
 8004234:	4638      	mov	r0, r7
 8004236:	f001 f8ad 	bl	8005394 <sniprintf>
			memset(buffer, 0, 25);
 800423a:	2100      	movs	r1, #0
 800423c:	2219      	movs	r2, #25
 800423e:	a805      	add	r0, sp, #20
 8004240:	f000 ffe6 	bl	8005210 <memset>
			strcpy(buffer,"r 15 ");
 8004244:	490f      	ldr	r1, [pc, #60]	; (8004284 <RunMotionPlanning+0x2c4>)
 8004246:	e7a6      	b.n	8004196 <RunMotionPlanning+0x1d6>
 8004248:	9999999a 	.word	0x9999999a
 800424c:	40563999 	.word	0x40563999
 8004250:	a0000000 	.word	0xa0000000
 8004254:	40874199 	.word	0x40874199
 8004258:	20000201 	.word	0x20000201
 800425c:	20000dac 	.word	0x20000dac
 8004260:	20000dd4 	.word	0x20000dd4
 8004264:	0800789c 	.word	0x0800789c
 8004268:	0800788f 	.word	0x0800788f
 800426c:	20000dd0 	.word	0x20000dd0
 8004270:	0800789f 	.word	0x0800789f
 8004274:	080078a2 	.word	0x080078a2
 8004278:	20000200 	.word	0x20000200
 800427c:	20000000 	.word	0x20000000
 8004280:	20000d8c 	.word	0x20000d8c
 8004284:	080078a7 	.word	0x080078a7
 8004288:	443a0ccd 	.word	0x443a0ccd
 800428c:	080078b4 	.word	0x080078b4
 8004290:	080078ad 	.word	0x080078ad
 8004294:	20000db0 	.word	0x20000db0

08004298 <HAL_TIM_IC_CaptureCallback>:
#include <WW_Sen.h>
struct ultrasonic x;
struct ultrasonic y;
struct imu accel;
void HAL_TIM_IC_CaptureCallback(TIM_HandleTypeDef *htim){
	if (htim->Instance==TIM5)
 8004298:	6802      	ldr	r2, [r0, #0]
 800429a:	4b18      	ldr	r3, [pc, #96]	; (80042fc <HAL_TIM_IC_CaptureCallback+0x64>)
void HAL_TIM_IC_CaptureCallback(TIM_HandleTypeDef *htim){
 800429c:	b510      	push	{r4, lr}
	if (htim->Instance==TIM5)
 800429e:	429a      	cmp	r2, r3
 80042a0:	d11b      	bne.n	80042da <HAL_TIM_IC_CaptureCallback+0x42>
	{
		if ((htim->Channel)==HAL_TIM_ACTIVE_CHANNEL_3){
 80042a2:	7d03      	ldrb	r3, [r0, #20]
 80042a4:	2b04      	cmp	r3, #4
 80042a6:	d119      	bne.n	80042dc <HAL_TIM_IC_CaptureCallback+0x44>
			y.edge_detect = !(y.edge_detect);
 80042a8:	4a15      	ldr	r2, [pc, #84]	; (8004300 <HAL_TIM_IC_CaptureCallback+0x68>)
 80042aa:	7b11      	ldrb	r1, [r2, #12]
			//__HAL_TIM_SET_CAPTUREPOLARITY()
			if (y.edge_detect){
				y.echo_rising_count = __HAL_TIM_GET_COMPARE(y.IC, TIM_CHANNEL_3);    //read TIM2 channel 1 capture value
 80042ac:	6993      	ldr	r3, [r2, #24]
			y.edge_detect = !(y.edge_detect);
 80042ae:	f081 0101 	eor.w	r1, r1, #1
 80042b2:	7311      	strb	r1, [r2, #12]
			if (y.edge_detect){
 80042b4:	b119      	cbz	r1, 80042be <HAL_TIM_IC_CaptureCallback+0x26>
				y.echo_rising_count = __HAL_TIM_GET_COMPARE(y.IC, TIM_CHANNEL_3);    //read TIM2 channel 1 capture value
 80042b6:	681b      	ldr	r3, [r3, #0]
 80042b8:	6bdb      	ldr	r3, [r3, #60]	; 0x3c
			}
		} else if((htim->Channel)==HAL_TIM_ACTIVE_CHANNEL_4){
			x.edge_detect = !(x.edge_detect);
			//__HAL_TIM_SET_CAPTUREPOLARITY()
			if (x.edge_detect){
				x.echo_rising_count = __HAL_TIM_GET_COMPARE(x.IC, TIM_CHANNEL_4);    //read TIM2 channel 1 capture value
 80042ba:	6013      	str	r3, [r2, #0]
 80042bc:	bd10      	pop	{r4, pc}
				y.echo_falling_count = __HAL_TIM_GET_COMPARE(y.IC, TIM_CHANNEL_3);
 80042be:	681c      	ldr	r4, [r3, #0]
 80042c0:	6be3      	ldr	r3, [r4, #60]	; 0x3c
				//__HAL_TIM_SET_CAPTUREPOLARITY(x.IC,TIM_CHANNEL_3,TIM_INPUTCHANNELPOLARITY_FALLING);
			}
			else {
				x.echo_falling_count = __HAL_TIM_GET_COMPARE(x.IC, TIM_CHANNEL_4);
				if(x.echo_falling_count>x.echo_rising_count){
 80042c2:	6810      	ldr	r0, [r2, #0]
				x.echo_falling_count = __HAL_TIM_GET_COMPARE(x.IC, TIM_CHANNEL_4);
 80042c4:	6053      	str	r3, [r2, #4]
				if(x.echo_falling_count>x.echo_rising_count){
 80042c6:	4283      	cmp	r3, r0
					__HAL_TIM_SetCounter(x.IC, 0);    //reset counter after input capture interrupt occurs
					x.echo_pulse_width_count = x.echo_falling_count - x.echo_rising_count;
				}
				else {
					x.echo_falling_count += 1048575;
 80042c8:	bf9e      	ittt	ls
 80042ca:	f503 237f 	addls.w	r3, r3, #1044480	; 0xff000
 80042ce:	f603 73ff 	addwls	r3, r3, #4095	; 0xfff
 80042d2:	6053      	strls	r3, [r2, #4]
					__HAL_TIM_SetCounter(x.IC, 0);
					x.echo_pulse_width_count = x.echo_falling_count - x.echo_rising_count;
 80042d4:	1a1b      	subs	r3, r3, r0
					__HAL_TIM_SetCounter(x.IC, 0);
 80042d6:	6261      	str	r1, [r4, #36]	; 0x24
					x.echo_pulse_width_count = x.echo_falling_count - x.echo_rising_count;
 80042d8:	6093      	str	r3, [r2, #8]
 80042da:	bd10      	pop	{r4, pc}
		} else if((htim->Channel)==HAL_TIM_ACTIVE_CHANNEL_4){
 80042dc:	2b08      	cmp	r3, #8
 80042de:	d1fc      	bne.n	80042da <HAL_TIM_IC_CaptureCallback+0x42>
			x.edge_detect = !(x.edge_detect);
 80042e0:	4a08      	ldr	r2, [pc, #32]	; (8004304 <HAL_TIM_IC_CaptureCallback+0x6c>)
 80042e2:	7b11      	ldrb	r1, [r2, #12]
				x.echo_rising_count = __HAL_TIM_GET_COMPARE(x.IC, TIM_CHANNEL_4);    //read TIM2 channel 1 capture value
 80042e4:	6993      	ldr	r3, [r2, #24]
			x.edge_detect = !(x.edge_detect);
 80042e6:	f081 0101 	eor.w	r1, r1, #1
 80042ea:	7311      	strb	r1, [r2, #12]
			if (x.edge_detect){
 80042ec:	b111      	cbz	r1, 80042f4 <HAL_TIM_IC_CaptureCallback+0x5c>
				x.echo_rising_count = __HAL_TIM_GET_COMPARE(x.IC, TIM_CHANNEL_4);    //read TIM2 channel 1 capture value
 80042ee:	681b      	ldr	r3, [r3, #0]
 80042f0:	6c1b      	ldr	r3, [r3, #64]	; 0x40
 80042f2:	e7e2      	b.n	80042ba <HAL_TIM_IC_CaptureCallback+0x22>
				x.echo_falling_count = __HAL_TIM_GET_COMPARE(x.IC, TIM_CHANNEL_4);
 80042f4:	681c      	ldr	r4, [r3, #0]
 80042f6:	6c23      	ldr	r3, [r4, #64]	; 0x40
 80042f8:	e7e3      	b.n	80042c2 <HAL_TIM_IC_CaptureCallback+0x2a>
 80042fa:	bf00      	nop
 80042fc:	40000c00 	.word	0x40000c00
 8004300:	20000db4 	.word	0x20000db4
 8004304:	20000d90 	.word	0x20000d90

08004308 <Ping_Ultrasonic>:
				}
			}
		}
	}
}
void Ping_Ultrasonic(GPIO_TypeDef* GPIOx, uint16_t GPIO_Pin){
 8004308:	b538      	push	{r3, r4, r5, lr}
 800430a:	4604      	mov	r4, r0
 800430c:	460d      	mov	r5, r1
	HAL_GPIO_WritePin(GPIOx, GPIO_Pin, GPIO_PIN_SET);
 800430e:	2201      	movs	r2, #1
 8004310:	f7fd f8c6 	bl	80014a0 <HAL_GPIO_WritePin>
	HAL_Delay(1);
 8004314:	2001      	movs	r0, #1
 8004316:	f7fc ff6d 	bl	80011f4 <HAL_Delay>
	HAL_GPIO_WritePin(GPIOx, GPIO_Pin, GPIO_PIN_RESET);
 800431a:	4629      	mov	r1, r5
 800431c:	4620      	mov	r0, r4
	return;
}
 800431e:	e8bd 4038 	ldmia.w	sp!, {r3, r4, r5, lr}
	HAL_GPIO_WritePin(GPIOx, GPIO_Pin, GPIO_PIN_RESET);
 8004322:	2200      	movs	r2, #0
 8004324:	f7fd b8bc 	b.w	80014a0 <HAL_GPIO_WritePin>

08004328 <Get_Ultrasonic_Reading>:
double Get_Ultrasonic_Reading(struct ultrasonic* ult){
 8004328:	b508      	push	{r3, lr}
	double d;
	d = (((ult->echo_pulse_width_count)*(1/SYSCLK))/(1e-6))*(0.034/2);
 800432a:	6880      	ldr	r0, [r0, #8]
 800432c:	f7fc fcd0 	bl	8000cd0 <__aeabi_ui2f>
 8004330:	4915      	ldr	r1, [pc, #84]	; (8004388 <Get_Ultrasonic_Reading+0x60>)
 8004332:	f7fc fd25 	bl	8000d80 <__aeabi_fmul>
 8004336:	f7fc f88f 	bl	8000458 <__aeabi_f2d>
 800433a:	a30b      	add	r3, pc, #44	; (adr r3, 8004368 <Get_Ultrasonic_Reading+0x40>)
 800433c:	e9d3 2300 	ldrd	r2, r3, [r3]
 8004340:	f7fc fa08 	bl	8000754 <__aeabi_ddiv>
 8004344:	a30a      	add	r3, pc, #40	; (adr r3, 8004370 <Get_Ultrasonic_Reading+0x48>)
 8004346:	e9d3 2300 	ldrd	r2, r3, [r3]
 800434a:	f7fc f8d9 	bl	8000500 <__aeabi_dmul>
	d = (0.997889*d)-0.26247;
 800434e:	a30a      	add	r3, pc, #40	; (adr r3, 8004378 <Get_Ultrasonic_Reading+0x50>)
 8004350:	e9d3 2300 	ldrd	r2, r3, [r3]
 8004354:	f7fc f8d4 	bl	8000500 <__aeabi_dmul>
 8004358:	a309      	add	r3, pc, #36	; (adr r3, 8004380 <Get_Ultrasonic_Reading+0x58>)
 800435a:	e9d3 2300 	ldrd	r2, r3, [r3]
 800435e:	f7fb ff1b 	bl	8000198 <__aeabi_dsub>
	return d;
}
 8004362:	bd08      	pop	{r3, pc}
 8004364:	f3af 8000 	nop.w
 8004368:	a0b5ed8d 	.word	0xa0b5ed8d
 800436c:	3eb0c6f7 	.word	0x3eb0c6f7
 8004370:	b020c49c 	.word	0xb020c49c
 8004374:	3f916872 	.word	0x3f916872
 8004378:	e981387a 	.word	0xe981387a
 800437c:	3fefeeb4 	.word	0x3fefeeb4
 8004380:	f88b9778 	.word	0xf88b9778
 8004384:	3fd0cc4e 	.word	0x3fd0cc4e
 8004388:	330637bd 	.word	0x330637bd

0800438c <Get_USY>:
double Get_USX(){
	return Get_Ultrasonic_Reading(&x);
}
double Get_USY(){
	return Get_Ultrasonic_Reading(&y);
 800438c:	4801      	ldr	r0, [pc, #4]	; (8004394 <Get_USY+0x8>)
 800438e:	f7ff bfcb 	b.w	8004328 <Get_Ultrasonic_Reading>
 8004392:	bf00      	nop
 8004394:	20000db4 	.word	0x20000db4

08004398 <initUltrasonics>:
}
void initUltrasonics(TIM_HandleTypeDef* htim){
	x.GPIO_PingBank = GPIOA;
	x.GPIO_PingPin = 9;
 8004398:	2309      	movs	r3, #9
	x.GPIO_PingBank = GPIOA;
 800439a:	4a0a      	ldr	r2, [pc, #40]	; (80043c4 <initUltrasonics+0x2c>)
 800439c:	490a      	ldr	r1, [pc, #40]	; (80043c8 <initUltrasonics+0x30>)
	x.GPIO_PingPin = 9;
 800439e:	8293      	strh	r3, [r2, #20]
	x.echo_falling_count = 0;
 80043a0:	2300      	movs	r3, #0
	x.GPIO_PingBank = GPIOA;
 80043a2:	6111      	str	r1, [r2, #16]
	x.echo_falling_count = 0;
 80043a4:	6053      	str	r3, [r2, #4]
	x.echo_pulse_width_count = 0;
 80043a6:	6093      	str	r3, [r2, #8]
	x.echo_rising_count = 0;
 80043a8:	6013      	str	r3, [r2, #0]
	x.edge_detect = false;
 80043aa:	7313      	strb	r3, [r2, #12]
	x.IC = htim;
 80043ac:	6190      	str	r0, [r2, #24]

	y.GPIO_PingBank = GPIOA;
 80043ae:	4a07      	ldr	r2, [pc, #28]	; (80043cc <initUltrasonics+0x34>)
 80043b0:	6111      	str	r1, [r2, #16]
	y.GPIO_PingPin = 8;
 80043b2:	2108      	movs	r1, #8
	y.echo_falling_count = 0;
 80043b4:	6053      	str	r3, [r2, #4]
	y.GPIO_PingPin = 8;
 80043b6:	8291      	strh	r1, [r2, #20]
	y.echo_pulse_width_count = 0;
 80043b8:	6093      	str	r3, [r2, #8]
	y.echo_rising_count = 0;
 80043ba:	6013      	str	r3, [r2, #0]
	y.edge_detect = false;
 80043bc:	7313      	strb	r3, [r2, #12]
	y.IC = htim;
 80043be:	6190      	str	r0, [r2, #24]
 80043c0:	4770      	bx	lr
 80043c2:	bf00      	nop
 80043c4:	20000d90 	.word	0x20000d90
 80043c8:	40020000 	.word	0x40020000
 80043cc:	20000db4 	.word	0x20000db4

080043d0 <initIMU>:
	return;
}
void initIMU(I2C_HandleTypeDef* hi2c){
	accel.I2C = hi2c;
	accel.address = DEV_ADD;
 80043d0:	2250      	movs	r2, #80	; 0x50
	accel.I2C = hi2c;
 80043d2:	4b02      	ldr	r3, [pc, #8]	; (80043dc <initIMU+0xc>)
 80043d4:	6018      	str	r0, [r3, #0]
	accel.address = DEV_ADD;
 80043d6:	711a      	strb	r2, [r3, #4]
 80043d8:	4770      	bx	lr
 80043da:	bf00      	nop
 80043dc:	20000dd8 	.word	0x20000dd8

080043e0 <read8>:
	return;
}
uint8_t read8(uint8_t regid){
 80043e0:	b530      	push	{r4, r5, lr}
	uint8_t result = 0;
 80043e2:	2300      	movs	r3, #0
	HAL_I2C_Master_Transmit(accel.I2C, DEV_ADD, &regid, 1, 100);
 80043e4:	2564      	movs	r5, #100	; 0x64
 80043e6:	4c0d      	ldr	r4, [pc, #52]	; (800441c <read8+0x3c>)
uint8_t read8(uint8_t regid){
 80043e8:	b087      	sub	sp, #28
 80043ea:	f88d 000f 	strb.w	r0, [sp, #15]
	uint8_t result = 0;
 80043ee:	f88d 3017 	strb.w	r3, [sp, #23]
	HAL_I2C_Master_Transmit(accel.I2C, DEV_ADD, &regid, 1, 100);
 80043f2:	f10d 020f 	add.w	r2, sp, #15
 80043f6:	9500      	str	r5, [sp, #0]
 80043f8:	2301      	movs	r3, #1
 80043fa:	2150      	movs	r1, #80	; 0x50
 80043fc:	6820      	ldr	r0, [r4, #0]
 80043fe:	f7fd f9df 	bl	80017c0 <HAL_I2C_Master_Transmit>
	HAL_I2C_Master_Receive(accel.I2C, DEV_ADD, &result, 1, 100);
 8004402:	9500      	str	r5, [sp, #0]
 8004404:	2301      	movs	r3, #1
 8004406:	f10d 0217 	add.w	r2, sp, #23
 800440a:	2150      	movs	r1, #80	; 0x50
 800440c:	6820      	ldr	r0, [r4, #0]
 800440e:	f7fd faad 	bl	800196c <HAL_I2C_Master_Receive>
	return result;
}
 8004412:	f89d 0017 	ldrb.w	r0, [sp, #23]
 8004416:	b007      	add	sp, #28
 8004418:	bd30      	pop	{r4, r5, pc}
 800441a:	bf00      	nop
 800441c:	20000dd8 	.word	0x20000dd8

08004420 <readLen>:
void readLen(uint8_t regid, uint8_t* buffer, uint8_t len){
 8004420:	b57f      	push	{r0, r1, r2, r3, r4, r5, r6, lr}
	HAL_I2C_Master_Transmit(accel.I2C, DEV_ADD, &regid, 1, 100);
 8004422:	2564      	movs	r5, #100	; 0x64
void readLen(uint8_t regid, uint8_t* buffer, uint8_t len){
 8004424:	460e      	mov	r6, r1
	HAL_I2C_Master_Transmit(accel.I2C, DEV_ADD, &regid, 1, 100);
 8004426:	4c09      	ldr	r4, [pc, #36]	; (800444c <readLen+0x2c>)
void readLen(uint8_t regid, uint8_t* buffer, uint8_t len){
 8004428:	aa04      	add	r2, sp, #16
 800442a:	f802 0d01 	strb.w	r0, [r2, #-1]!
	HAL_I2C_Master_Transmit(accel.I2C, DEV_ADD, &regid, 1, 100);
 800442e:	2301      	movs	r3, #1
 8004430:	9500      	str	r5, [sp, #0]
 8004432:	2150      	movs	r1, #80	; 0x50
 8004434:	6820      	ldr	r0, [r4, #0]
 8004436:	f7fd f9c3 	bl	80017c0 <HAL_I2C_Master_Transmit>
	HAL_I2C_Master_Receive(accel.I2C, DEV_ADD, buffer, 1, 100);
 800443a:	9500      	str	r5, [sp, #0]
 800443c:	2301      	movs	r3, #1
 800443e:	4632      	mov	r2, r6
 8004440:	2150      	movs	r1, #80	; 0x50
 8004442:	6820      	ldr	r0, [r4, #0]
 8004444:	f7fd fa92 	bl	800196c <HAL_I2C_Master_Receive>
	return;
}
 8004448:	b004      	add	sp, #16
 800444a:	bd70      	pop	{r4, r5, r6, pc}
 800444c:	20000dd8 	.word	0x20000dd8

08004450 <write8>:
void write8(uint8_t regid, uint8_t val){
 8004450:	b530      	push	{r4, r5, lr}
	HAL_I2C_Master_Transmit(accel.I2C, DEV_ADD, &regid, 1, 100);
 8004452:	2564      	movs	r5, #100	; 0x64
 8004454:	4c0b      	ldr	r4, [pc, #44]	; (8004484 <write8+0x34>)
void write8(uint8_t regid, uint8_t val){
 8004456:	b085      	sub	sp, #20
 8004458:	f88d 000f 	strb.w	r0, [sp, #15]
 800445c:	f88d 100e 	strb.w	r1, [sp, #14]
	HAL_I2C_Master_Transmit(accel.I2C, DEV_ADD, &regid, 1, 100);
 8004460:	f10d 020f 	add.w	r2, sp, #15
 8004464:	9500      	str	r5, [sp, #0]
 8004466:	2301      	movs	r3, #1
 8004468:	2150      	movs	r1, #80	; 0x50
 800446a:	6820      	ldr	r0, [r4, #0]
 800446c:	f7fd f9a8 	bl	80017c0 <HAL_I2C_Master_Transmit>
	HAL_I2C_Master_Transmit(accel.I2C, DEV_ADD, &val, 1, 100);
 8004470:	9500      	str	r5, [sp, #0]
 8004472:	2301      	movs	r3, #1
 8004474:	f10d 020e 	add.w	r2, sp, #14
 8004478:	2150      	movs	r1, #80	; 0x50
 800447a:	6820      	ldr	r0, [r4, #0]
 800447c:	f7fd f9a0 	bl	80017c0 <HAL_I2C_Master_Transmit>
	return;
}
 8004480:	b005      	add	sp, #20
 8004482:	bd30      	pop	{r4, r5, pc}
 8004484:	20000dd8 	.word	0x20000dd8

08004488 <checkIMUID>:
uint8_t checkIMUID(){
	return read8(REG_CHIP_ID);
 8004488:	2000      	movs	r0, #0
 800448a:	f7ff bfa9 	b.w	80043e0 <read8>

0800448e <getEuler>:
}
void getEuler(float* result){
 800448e:	b573      	push	{r0, r1, r4, r5, r6, lr}
	uint8_t recieved[6];
	int16_t buffer[3];
	readLen(BNO055_EULER_H_LSB_ADDR, recieved, 6);
 8004490:	2206      	movs	r2, #6
void getEuler(float* result){
 8004492:	4606      	mov	r6, r0
	readLen(BNO055_EULER_H_LSB_ADDR, recieved, 6);
 8004494:	4669      	mov	r1, sp
 8004496:	201a      	movs	r0, #26
 8004498:	f7ff ffc2 	bl	8004420 <readLen>
	buffer[0] = ((int16_t)recieved[0]) | (((int16_t)recieved[1]) << 8);
	buffer[1] = ((int16_t)recieved[2]) | (((int16_t)recieved[3]) << 8);
 800449c:	f89d 3003 	ldrb.w	r3, [sp, #3]
 80044a0:	f89d 5002 	ldrb.w	r5, [sp, #2]
	buffer[2] = ((int16_t)recieved[4]) | (((int16_t)recieved[5]) << 8);
 80044a4:	f89d 4004 	ldrb.w	r4, [sp, #4]
	buffer[1] = ((int16_t)recieved[2]) | (((int16_t)recieved[3]) << 8);
 80044a8:	ea45 2503 	orr.w	r5, r5, r3, lsl #8
	buffer[2] = ((int16_t)recieved[4]) | (((int16_t)recieved[5]) << 8);
 80044ac:	f89d 3005 	ldrb.w	r3, [sp, #5]
	buffer[0] = ((int16_t)recieved[0]) | (((int16_t)recieved[1]) << 8);
 80044b0:	f89d 0000 	ldrb.w	r0, [sp]
	buffer[2] = ((int16_t)recieved[4]) | (((int16_t)recieved[5]) << 8);
 80044b4:	ea44 2403 	orr.w	r4, r4, r3, lsl #8
	buffer[0] = ((int16_t)recieved[0]) | (((int16_t)recieved[1]) << 8);
 80044b8:	f89d 3001 	ldrb.w	r3, [sp, #1]
	buffer[1] = ((int16_t)recieved[2]) | (((int16_t)recieved[3]) << 8);
 80044bc:	b22d      	sxth	r5, r5
	buffer[0] = ((int16_t)recieved[0]) | (((int16_t)recieved[1]) << 8);
 80044be:	ea40 2003 	orr.w	r0, r0, r3, lsl #8
	result[0] = (float)(buffer[0])/16.0;
 80044c2:	b200      	sxth	r0, r0
 80044c4:	f7fc fc08 	bl	8000cd8 <__aeabi_i2f>
 80044c8:	f04f 5176 	mov.w	r1, #1031798784	; 0x3d800000
 80044cc:	f7fc fc58 	bl	8000d80 <__aeabi_fmul>
 80044d0:	6030      	str	r0, [r6, #0]
	result[1] = (float)(buffer[1])/16.0;
 80044d2:	4628      	mov	r0, r5
 80044d4:	f7fc fc00 	bl	8000cd8 <__aeabi_i2f>
 80044d8:	f04f 5176 	mov.w	r1, #1031798784	; 0x3d800000
 80044dc:	f7fc fc50 	bl	8000d80 <__aeabi_fmul>
	buffer[2] = ((int16_t)recieved[4]) | (((int16_t)recieved[5]) << 8);
 80044e0:	b224      	sxth	r4, r4
	result[1] = (float)(buffer[1])/16.0;
 80044e2:	6070      	str	r0, [r6, #4]
	result[2] = (float)(buffer[2])/16.0;
 80044e4:	4620      	mov	r0, r4
 80044e6:	f7fc fbf7 	bl	8000cd8 <__aeabi_i2f>
 80044ea:	f04f 5176 	mov.w	r1, #1031798784	; 0x3d800000
 80044ee:	f7fc fc47 	bl	8000d80 <__aeabi_fmul>
 80044f2:	60b0      	str	r0, [r6, #8]
	return;
}
 80044f4:	b002      	add	sp, #8
 80044f6:	bd70      	pop	{r4, r5, r6, pc}

080044f8 <sampleSensors>:
void sampleSensors(){
 80044f8:	b508      	push	{r3, lr}
	Ping_Ultrasonic(y.GPIO_PingBank,y.GPIO_PingPin);
 80044fa:	4b06      	ldr	r3, [pc, #24]	; (8004514 <sampleSensors+0x1c>)
 80044fc:	8a99      	ldrh	r1, [r3, #20]
 80044fe:	6918      	ldr	r0, [r3, #16]
 8004500:	f7ff ff02 	bl	8004308 <Ping_Ultrasonic>
	Ping_Ultrasonic(x.GPIO_PingBank,x.GPIO_PingPin);
 8004504:	4b04      	ldr	r3, [pc, #16]	; (8004518 <sampleSensors+0x20>)
 8004506:	8a99      	ldrh	r1, [r3, #20]
 8004508:	6918      	ldr	r0, [r3, #16]
	return;
}
 800450a:	e8bd 4008 	ldmia.w	sp!, {r3, lr}
	Ping_Ultrasonic(x.GPIO_PingBank,x.GPIO_PingPin);
 800450e:	f7ff befb 	b.w	8004308 <Ping_Ultrasonic>
 8004512:	bf00      	nop
 8004514:	20000db4 	.word	0x20000db4
 8004518:	20000d90 	.word	0x20000d90

0800451c <MX_GPIO_Init>:
{

  GPIO_InitTypeDef GPIO_InitStruct;

  /* GPIO Ports Clock Enable */
  __HAL_RCC_GPIOC_CLK_ENABLE();
 800451c:	4b48      	ldr	r3, [pc, #288]	; (8004640 <MX_GPIO_Init+0x124>)
{
 800451e:	e92d 47f0 	stmdb	sp!, {r4, r5, r6, r7, r8, r9, sl, lr}
  __HAL_RCC_GPIOC_CLK_ENABLE();
 8004522:	69da      	ldr	r2, [r3, #28]
{
 8004524:	b088      	sub	sp, #32
  __HAL_RCC_GPIOC_CLK_ENABLE();
 8004526:	f042 0204 	orr.w	r2, r2, #4
 800452a:	61da      	str	r2, [r3, #28]
 800452c:	69da      	ldr	r2, [r3, #28]
  __HAL_RCC_GPIOA_CLK_ENABLE();
  __HAL_RCC_GPIOB_CLK_ENABLE();

  /*Configure GPIO pin Output Level */
  HAL_GPIO_WritePin(GPIOC, GPIO_PIN_0|GPIO_PIN_1|GPIO_PIN_2|GPIO_PIN_3, GPIO_PIN_RESET);
 800452e:	4f45      	ldr	r7, [pc, #276]	; (8004644 <MX_GPIO_Init+0x128>)
  __HAL_RCC_GPIOC_CLK_ENABLE();
 8004530:	f002 0204 	and.w	r2, r2, #4
 8004534:	9200      	str	r2, [sp, #0]
 8004536:	9a00      	ldr	r2, [sp, #0]
  __HAL_RCC_GPIOA_CLK_ENABLE();
 8004538:	69da      	ldr	r2, [r3, #28]

  /*Configure GPIO pin Output Level */
  HAL_GPIO_WritePin(GPIOA, GPIO_PIN_8|GPIO_PIN_9, GPIO_PIN_RESET);
 800453a:	4d43      	ldr	r5, [pc, #268]	; (8004648 <MX_GPIO_Init+0x12c>)
  __HAL_RCC_GPIOA_CLK_ENABLE();
 800453c:	f042 0201 	orr.w	r2, r2, #1
 8004540:	61da      	str	r2, [r3, #28]
 8004542:	69da      	ldr	r2, [r3, #28]
  HAL_GPIO_WritePin(GPIOC, GPIO_PIN_0|GPIO_PIN_1|GPIO_PIN_2|GPIO_PIN_3, GPIO_PIN_RESET);
 8004544:	4638      	mov	r0, r7
  __HAL_RCC_GPIOA_CLK_ENABLE();
 8004546:	f002 0201 	and.w	r2, r2, #1
 800454a:	9201      	str	r2, [sp, #4]
 800454c:	9a01      	ldr	r2, [sp, #4]
  __HAL_RCC_GPIOB_CLK_ENABLE();
 800454e:	69da      	ldr	r2, [r3, #28]
  HAL_GPIO_WritePin(GPIOC, GPIO_PIN_0|GPIO_PIN_1|GPIO_PIN_2|GPIO_PIN_3, GPIO_PIN_RESET);
 8004550:	210f      	movs	r1, #15
  __HAL_RCC_GPIOB_CLK_ENABLE();
 8004552:	f042 0202 	orr.w	r2, r2, #2
 8004556:	61da      	str	r2, [r3, #28]
 8004558:	69db      	ldr	r3, [r3, #28]
  HAL_GPIO_WritePin(GPIOC, GPIO_PIN_0|GPIO_PIN_1|GPIO_PIN_2|GPIO_PIN_3, GPIO_PIN_RESET);
 800455a:	2200      	movs	r2, #0
  __HAL_RCC_GPIOB_CLK_ENABLE();
 800455c:	f003 0302 	and.w	r3, r3, #2
 8004560:	9302      	str	r3, [sp, #8]
 8004562:	9b02      	ldr	r3, [sp, #8]
  HAL_GPIO_WritePin(GPIOC, GPIO_PIN_0|GPIO_PIN_1|GPIO_PIN_2|GPIO_PIN_3, GPIO_PIN_RESET);
 8004564:	f7fc ff9c 	bl	80014a0 <HAL_GPIO_WritePin>
  HAL_GPIO_WritePin(GPIOA, GPIO_PIN_8|GPIO_PIN_9, GPIO_PIN_RESET);
 8004568:	2200      	movs	r2, #0
 800456a:	4628      	mov	r0, r5
 800456c:	f44f 7140 	mov.w	r1, #768	; 0x300
 8004570:	f7fc ff96 	bl	80014a0 <HAL_GPIO_WritePin>

  /*Configure GPIO pins : PC0 PC1 PC2 PC3 */
  GPIO_InitStruct.Pin = GPIO_PIN_0|GPIO_PIN_1|GPIO_PIN_2|GPIO_PIN_3;
  GPIO_InitStruct.Mode = GPIO_MODE_OUTPUT_PP;
  GPIO_InitStruct.Pull = GPIO_NOPULL;
 8004574:	2400      	movs	r4, #0
  GPIO_InitStruct.Mode = GPIO_MODE_OUTPUT_PP;
 8004576:	f04f 0901 	mov.w	r9, #1
  GPIO_InitStruct.Pin = GPIO_PIN_0|GPIO_PIN_1|GPIO_PIN_2|GPIO_PIN_3;
 800457a:	230f      	movs	r3, #15
  GPIO_InitStruct.Speed = GPIO_SPEED_FREQ_LOW;
  HAL_GPIO_Init(GPIOC, &GPIO_InitStruct);
 800457c:	a903      	add	r1, sp, #12
 800457e:	4638      	mov	r0, r7

  /*Configure GPIO pin : PtPin */
  GPIO_InitStruct.Pin = IDD_Measurement_Pin;
  GPIO_InitStruct.Mode = GPIO_MODE_ANALOG;
 8004580:	2603      	movs	r6, #3
  GPIO_InitStruct.Pin = GPIO_PIN_0|GPIO_PIN_1|GPIO_PIN_2|GPIO_PIN_3;
 8004582:	9303      	str	r3, [sp, #12]
  GPIO_InitStruct.Mode = GPIO_MODE_OUTPUT_PP;
 8004584:	f8cd 9010 	str.w	r9, [sp, #16]
  GPIO_InitStruct.Pull = GPIO_NOPULL;
 8004588:	9405      	str	r4, [sp, #20]
  GPIO_InitStruct.Speed = GPIO_SPEED_FREQ_LOW;
 800458a:	9406      	str	r4, [sp, #24]
  HAL_GPIO_Init(GPIOC, &GPIO_InitStruct);
 800458c:	f7fc feba 	bl	8001304 <HAL_GPIO_Init>
  GPIO_InitStruct.Pin = IDD_Measurement_Pin;
 8004590:	2310      	movs	r3, #16
  GPIO_InitStruct.Pull = GPIO_NOPULL;
  HAL_GPIO_Init(IDD_Measurement_GPIO_Port, &GPIO_InitStruct);
 8004592:	a903      	add	r1, sp, #12
 8004594:	4628      	mov	r0, r5
  GPIO_InitStruct.Pin = IDD_Measurement_Pin;
 8004596:	9303      	str	r3, [sp, #12]
  GPIO_InitStruct.Mode = GPIO_MODE_ANALOG;
 8004598:	9604      	str	r6, [sp, #16]
  GPIO_InitStruct.Pull = GPIO_NOPULL;
 800459a:	9405      	str	r4, [sp, #20]
  HAL_GPIO_Init(IDD_Measurement_GPIO_Port, &GPIO_InitStruct);
 800459c:	f7fc feb2 	bl	8001304 <HAL_GPIO_Init>

  /*Configure GPIO pins : PAPin PAPin */
  GPIO_InitStruct.Pin = GRP2_Sampling_Pin|GRP2_Ground_Pin;
 80045a0:	23c0      	movs	r3, #192	; 0xc0
  GPIO_InitStruct.Mode = GPIO_MODE_ANALOG;
  GPIO_InitStruct.Pull = GPIO_NOPULL;
  HAL_GPIO_Init(GPIOA, &GPIO_InitStruct);
 80045a2:	a903      	add	r1, sp, #12
 80045a4:	4628      	mov	r0, r5
  GPIO_InitStruct.Pin = GRP2_Sampling_Pin|GRP2_Ground_Pin;
 80045a6:	9303      	str	r3, [sp, #12]
  GPIO_InitStruct.Mode = GPIO_MODE_ANALOG;
 80045a8:	9604      	str	r6, [sp, #16]
  GPIO_InitStruct.Pull = GPIO_NOPULL;
 80045aa:	9405      	str	r4, [sp, #20]
  HAL_GPIO_Init(GPIOA, &GPIO_InitStruct);
 80045ac:	f7fc feaa 	bl	8001304 <HAL_GPIO_Init>

  /*Configure GPIO pins : PCPin PCPin */
  GPIO_InitStruct.Pin = GRP9_Sampling_Pin|GRP9_Ground_Pin;
 80045b0:	2330      	movs	r3, #48	; 0x30

  /*Configure GPIO pins : PBPin PBPin */
  GPIO_InitStruct.Pin = GRP3_Sampling_Pin|GRP3_Ground_Pin;
  GPIO_InitStruct.Mode = GPIO_MODE_ANALOG;
  GPIO_InitStruct.Pull = GPIO_NOPULL;
  HAL_GPIO_Init(GPIOB, &GPIO_InitStruct);
 80045b2:	f8df a098 	ldr.w	sl, [pc, #152]	; 800464c <MX_GPIO_Init+0x130>
  HAL_GPIO_Init(GPIOC, &GPIO_InitStruct);
 80045b6:	a903      	add	r1, sp, #12
 80045b8:	4638      	mov	r0, r7
  GPIO_InitStruct.Pin = GRP9_Sampling_Pin|GRP9_Ground_Pin;
 80045ba:	9303      	str	r3, [sp, #12]
  GPIO_InitStruct.Mode = GPIO_MODE_ANALOG;
 80045bc:	9604      	str	r6, [sp, #16]
  GPIO_InitStruct.Pull = GPIO_NOPULL;
 80045be:	9405      	str	r4, [sp, #20]
  HAL_GPIO_Init(GPIOC, &GPIO_InitStruct);
 80045c0:	f7fc fea0 	bl	8001304 <HAL_GPIO_Init>
  HAL_GPIO_Init(GPIOB, &GPIO_InitStruct);
 80045c4:	a903      	add	r1, sp, #12
 80045c6:	4650      	mov	r0, sl

  /*Configure GPIO pins : PBPin PBPin PBPin */
  GPIO_InitStruct.Pin = SEG8_Pin|SEG11_Pin|SEG5_Pin;
  GPIO_InitStruct.Mode = GPIO_MODE_AF_PP;
 80045c8:	f04f 0802 	mov.w	r8, #2
  GPIO_InitStruct.Pin = GRP3_Sampling_Pin|GRP3_Ground_Pin;
 80045cc:	9603      	str	r6, [sp, #12]
  GPIO_InitStruct.Mode = GPIO_MODE_ANALOG;
 80045ce:	9604      	str	r6, [sp, #16]
  GPIO_InitStruct.Pull = GPIO_NOPULL;
 80045d0:	9405      	str	r4, [sp, #20]
  GPIO_InitStruct.Pull = GPIO_NOPULL;
  GPIO_InitStruct.Speed = GPIO_SPEED_FREQ_LOW;
  GPIO_InitStruct.Alternate = GPIO_AF11_LCD;
 80045d2:	260b      	movs	r6, #11
  HAL_GPIO_Init(GPIOB, &GPIO_InitStruct);
 80045d4:	f7fc fe96 	bl	8001304 <HAL_GPIO_Init>
  GPIO_InitStruct.Pin = SEG8_Pin|SEG11_Pin|SEG5_Pin;
 80045d8:	f249 0320 	movw	r3, #36896	; 0x9020
  HAL_GPIO_Init(GPIOB, &GPIO_InitStruct);
 80045dc:	a903      	add	r1, sp, #12
 80045de:	4650      	mov	r0, sl
  GPIO_InitStruct.Pin = SEG8_Pin|SEG11_Pin|SEG5_Pin;
 80045e0:	9303      	str	r3, [sp, #12]
  GPIO_InitStruct.Mode = GPIO_MODE_AF_PP;
 80045e2:	f8cd 8010 	str.w	r8, [sp, #16]
  GPIO_InitStruct.Pull = GPIO_NOPULL;
 80045e6:	9405      	str	r4, [sp, #20]
  GPIO_InitStruct.Speed = GPIO_SPEED_FREQ_LOW;
 80045e8:	9406      	str	r4, [sp, #24]
  GPIO_InitStruct.Alternate = GPIO_AF11_LCD;
 80045ea:	9607      	str	r6, [sp, #28]
  HAL_GPIO_Init(GPIOB, &GPIO_InitStruct);
 80045ec:	f7fc fe8a 	bl	8001304 <HAL_GPIO_Init>

  /*Configure GPIO pins : PCPin PCPin PCPin PCPin */
  GPIO_InitStruct.Pin = SEG20_Pin|SEG21_Pin|SEG22_Pin|SEG23_Pin;
 80045f0:	f44f 6370 	mov.w	r3, #3840	; 0xf00
  GPIO_InitStruct.Mode = GPIO_MODE_AF_PP;
  GPIO_InitStruct.Pull = GPIO_NOPULL;
  GPIO_InitStruct.Speed = GPIO_SPEED_FREQ_LOW;
  GPIO_InitStruct.Alternate = GPIO_AF11_LCD;
  HAL_GPIO_Init(GPIOC, &GPIO_InitStruct);
 80045f4:	a903      	add	r1, sp, #12
 80045f6:	4638      	mov	r0, r7
  GPIO_InitStruct.Pin = SEG20_Pin|SEG21_Pin|SEG22_Pin|SEG23_Pin;
 80045f8:	9303      	str	r3, [sp, #12]
  GPIO_InitStruct.Mode = GPIO_MODE_AF_PP;
 80045fa:	f8cd 8010 	str.w	r8, [sp, #16]
  GPIO_InitStruct.Pull = GPIO_NOPULL;
 80045fe:	9405      	str	r4, [sp, #20]
  GPIO_InitStruct.Speed = GPIO_SPEED_FREQ_LOW;
 8004600:	9406      	str	r4, [sp, #24]
  GPIO_InitStruct.Alternate = GPIO_AF11_LCD;
 8004602:	9607      	str	r6, [sp, #28]
  HAL_GPIO_Init(GPIOC, &GPIO_InitStruct);
 8004604:	f7fc fe7e 	bl	8001304 <HAL_GPIO_Init>

  /*Configure GPIO pins : PA8 PA9 */
  GPIO_InitStruct.Pin = GPIO_PIN_8|GPIO_PIN_9;
 8004608:	f44f 7340 	mov.w	r3, #768	; 0x300
  GPIO_InitStruct.Mode = GPIO_MODE_OUTPUT_PP;
  GPIO_InitStruct.Pull = GPIO_NOPULL;
  GPIO_InitStruct.Speed = GPIO_SPEED_FREQ_MEDIUM;
  HAL_GPIO_Init(GPIOA, &GPIO_InitStruct);
 800460c:	a903      	add	r1, sp, #12
 800460e:	4628      	mov	r0, r5
  GPIO_InitStruct.Pin = GPIO_PIN_8|GPIO_PIN_9;
 8004610:	9303      	str	r3, [sp, #12]
  GPIO_InitStruct.Mode = GPIO_MODE_OUTPUT_PP;
 8004612:	f8cd 9010 	str.w	r9, [sp, #16]
  GPIO_InitStruct.Pull = GPIO_NOPULL;
 8004616:	9405      	str	r4, [sp, #20]
  GPIO_InitStruct.Speed = GPIO_SPEED_FREQ_MEDIUM;
 8004618:	f8cd 9018 	str.w	r9, [sp, #24]
  HAL_GPIO_Init(GPIOA, &GPIO_InitStruct);
 800461c:	f7fc fe72 	bl	8001304 <HAL_GPIO_Init>

  /*Configure GPIO pin : PtPin */
  GPIO_InitStruct.Pin = COM2_Pin;
 8004620:	f44f 6380 	mov.w	r3, #1024	; 0x400
  GPIO_InitStruct.Mode = GPIO_MODE_AF_PP;
  GPIO_InitStruct.Pull = GPIO_NOPULL;
  GPIO_InitStruct.Speed = GPIO_SPEED_FREQ_LOW;
  GPIO_InitStruct.Alternate = GPIO_AF11_LCD;
  HAL_GPIO_Init(COM2_GPIO_Port, &GPIO_InitStruct);
 8004624:	a903      	add	r1, sp, #12
 8004626:	4628      	mov	r0, r5
  GPIO_InitStruct.Pin = COM2_Pin;
 8004628:	9303      	str	r3, [sp, #12]
  GPIO_InitStruct.Mode = GPIO_MODE_AF_PP;
 800462a:	f8cd 8010 	str.w	r8, [sp, #16]
  GPIO_InitStruct.Pull = GPIO_NOPULL;
 800462e:	9405      	str	r4, [sp, #20]
  GPIO_InitStruct.Speed = GPIO_SPEED_FREQ_LOW;
 8004630:	9406      	str	r4, [sp, #24]
  GPIO_InitStruct.Alternate = GPIO_AF11_LCD;
 8004632:	9607      	str	r6, [sp, #28]
  HAL_GPIO_Init(COM2_GPIO_Port, &GPIO_InitStruct);
 8004634:	f7fc fe66 	bl	8001304 <HAL_GPIO_Init>

}
 8004638:	b008      	add	sp, #32
 800463a:	e8bd 87f0 	ldmia.w	sp!, {r4, r5, r6, r7, r8, r9, sl, pc}
 800463e:	bf00      	nop
 8004640:	40023800 	.word	0x40023800
 8004644:	40020800 	.word	0x40020800
 8004648:	40020000 	.word	0x40020000
 800464c:	40020400 	.word	0x40020400

08004650 <MX_I2C2_Init>:

I2C_HandleTypeDef hi2c2;

/* I2C2 init function */
void MX_I2C2_Init(void)
{
 8004650:	b508      	push	{r3, lr}

  hi2c2.Instance = I2C2;
 8004652:	480d      	ldr	r0, [pc, #52]	; (8004688 <MX_I2C2_Init+0x38>)
  hi2c2.Init.ClockSpeed = 100000;
 8004654:	4b0d      	ldr	r3, [pc, #52]	; (800468c <MX_I2C2_Init+0x3c>)
 8004656:	f8df e03c 	ldr.w	lr, [pc, #60]	; 8004694 <MX_I2C2_Init+0x44>
  hi2c2.Init.DutyCycle = I2C_DUTYCYCLE_2;
  hi2c2.Init.OwnAddress1 = 0;
  hi2c2.Init.AddressingMode = I2C_ADDRESSINGMODE_7BIT;
 800465a:	f44f 4280 	mov.w	r2, #16384	; 0x4000
  hi2c2.Init.ClockSpeed = 100000;
 800465e:	e880 4008 	stmia.w	r0, {r3, lr}
  hi2c2.Init.DutyCycle = I2C_DUTYCYCLE_2;
 8004662:	2300      	movs	r3, #0
  hi2c2.Init.AddressingMode = I2C_ADDRESSINGMODE_7BIT;
 8004664:	6102      	str	r2, [r0, #16]
  hi2c2.Init.DutyCycle = I2C_DUTYCYCLE_2;
 8004666:	6083      	str	r3, [r0, #8]
  hi2c2.Init.OwnAddress1 = 0;
 8004668:	60c3      	str	r3, [r0, #12]
  hi2c2.Init.DualAddressMode = I2C_DUALADDRESS_DISABLE;
 800466a:	6143      	str	r3, [r0, #20]
  hi2c2.Init.OwnAddress2 = 0;
 800466c:	6183      	str	r3, [r0, #24]
  hi2c2.Init.GeneralCallMode = I2C_GENERALCALL_DISABLE;
 800466e:	61c3      	str	r3, [r0, #28]
  hi2c2.Init.NoStretchMode = I2C_NOSTRETCH_DISABLE;
 8004670:	6203      	str	r3, [r0, #32]
  if (HAL_I2C_Init(&hi2c2) != HAL_OK)
 8004672:	f7fd f817 	bl	80016a4 <HAL_I2C_Init>
 8004676:	b128      	cbz	r0, 8004684 <MX_I2C2_Init+0x34>
  {
    _Error_Handler(__FILE__, __LINE__);
  }

}
 8004678:	e8bd 4008 	ldmia.w	sp!, {r3, lr}
    _Error_Handler(__FILE__, __LINE__);
 800467c:	2142      	movs	r1, #66	; 0x42
 800467e:	4804      	ldr	r0, [pc, #16]	; (8004690 <MX_I2C2_Init+0x40>)
 8004680:	f000 b904 	b.w	800488c <_Error_Handler>
 8004684:	bd08      	pop	{r3, pc}
 8004686:	bf00      	nop
 8004688:	20000de0 	.word	0x20000de0
 800468c:	40005800 	.word	0x40005800
 8004690:	080078ba 	.word	0x080078ba
 8004694:	000186a0 	.word	0x000186a0

08004698 <HAL_I2C_MspInit>:

void HAL_I2C_MspInit(I2C_HandleTypeDef* i2cHandle)
{
 8004698:	b57f      	push	{r0, r1, r2, r3, r4, r5, r6, lr}

  GPIO_InitTypeDef GPIO_InitStruct;
  if(i2cHandle->Instance==I2C2)
 800469a:	6802      	ldr	r2, [r0, #0]
 800469c:	4b0f      	ldr	r3, [pc, #60]	; (80046dc <HAL_I2C_MspInit+0x44>)
 800469e:	429a      	cmp	r2, r3
 80046a0:	d119      	bne.n	80046d6 <HAL_I2C_MspInit+0x3e>
  
    /**I2C2 GPIO Configuration    
    PB10     ------> I2C2_SCL
    PB11     ------> I2C2_SDA 
    */
    GPIO_InitStruct.Pin = GPIO_PIN_10|GPIO_PIN_11;
 80046a2:	f44f 6340 	mov.w	r3, #3072	; 0xc00
 80046a6:	9301      	str	r3, [sp, #4]
    GPIO_InitStruct.Mode = GPIO_MODE_AF_OD;
 80046a8:	2312      	movs	r3, #18
 80046aa:	9302      	str	r3, [sp, #8]
    GPIO_InitStruct.Pull = GPIO_PULLUP;
 80046ac:	2301      	movs	r3, #1
 80046ae:	9303      	str	r3, [sp, #12]
    GPIO_InitStruct.Speed = GPIO_SPEED_FREQ_VERY_HIGH;
 80046b0:	2303      	movs	r3, #3
 80046b2:	9304      	str	r3, [sp, #16]
    GPIO_InitStruct.Alternate = GPIO_AF4_I2C2;
 80046b4:	2304      	movs	r3, #4
    HAL_GPIO_Init(GPIOB, &GPIO_InitStruct);
 80046b6:	480a      	ldr	r0, [pc, #40]	; (80046e0 <HAL_I2C_MspInit+0x48>)
 80046b8:	eb0d 0103 	add.w	r1, sp, r3
    GPIO_InitStruct.Alternate = GPIO_AF4_I2C2;
 80046bc:	9305      	str	r3, [sp, #20]
    HAL_GPIO_Init(GPIOB, &GPIO_InitStruct);
 80046be:	f7fc fe21 	bl	8001304 <HAL_GPIO_Init>

    /* I2C2 clock enable */
    __HAL_RCC_I2C2_CLK_ENABLE();
 80046c2:	4b08      	ldr	r3, [pc, #32]	; (80046e4 <HAL_I2C_MspInit+0x4c>)
 80046c4:	6a5a      	ldr	r2, [r3, #36]	; 0x24
 80046c6:	f442 0280 	orr.w	r2, r2, #4194304	; 0x400000
 80046ca:	625a      	str	r2, [r3, #36]	; 0x24
 80046cc:	6a5b      	ldr	r3, [r3, #36]	; 0x24
 80046ce:	f403 0380 	and.w	r3, r3, #4194304	; 0x400000
 80046d2:	9300      	str	r3, [sp, #0]
 80046d4:	9b00      	ldr	r3, [sp, #0]
  /* USER CODE BEGIN I2C2_MspInit 1 */

  /* USER CODE END I2C2_MspInit 1 */
  }
}
 80046d6:	b007      	add	sp, #28
 80046d8:	f85d fb04 	ldr.w	pc, [sp], #4
 80046dc:	40005800 	.word	0x40005800
 80046e0:	40020400 	.word	0x40020400
 80046e4:	40023800 	.word	0x40023800

080046e8 <SystemClock_Config>:
  RCC_OscInitTypeDef RCC_OscInitStruct;
  RCC_ClkInitTypeDef RCC_ClkInitStruct;

    /**Configure the main internal regulator output voltage 
    */
  __HAL_PWR_VOLTAGESCALING_CONFIG(PWR_REGULATOR_VOLTAGE_SCALE1);
 80046e8:	4a1e      	ldr	r2, [pc, #120]	; (8004764 <SystemClock_Config+0x7c>)
{
 80046ea:	b510      	push	{r4, lr}
  __HAL_PWR_VOLTAGESCALING_CONFIG(PWR_REGULATOR_VOLTAGE_SCALE1);
 80046ec:	6813      	ldr	r3, [r2, #0]
{
 80046ee:	b092      	sub	sp, #72	; 0x48
  __HAL_PWR_VOLTAGESCALING_CONFIG(PWR_REGULATOR_VOLTAGE_SCALE1);
 80046f0:	f423 53c0 	bic.w	r3, r3, #6144	; 0x1800
 80046f4:	f443 6300 	orr.w	r3, r3, #2048	; 0x800
 80046f8:	6013      	str	r3, [r2, #0]

    /**Initializes the CPU, AHB and APB busses clocks 
    */
  RCC_OscInitStruct.OscillatorType = RCC_OSCILLATORTYPE_HSI;
 80046fa:	2302      	movs	r3, #2
 80046fc:	9305      	str	r3, [sp, #20]
  RCC_OscInitStruct.HSIState = RCC_HSI_ON;
  RCC_OscInitStruct.HSICalibrationValue = 16;
  RCC_OscInitStruct.PLL.PLLState = RCC_PLL_ON;
 80046fe:	930e      	str	r3, [sp, #56]	; 0x38
  RCC_OscInitStruct.PLL.PLLSource = RCC_PLLSOURCE_HSI;
 8004700:	2300      	movs	r3, #0
 8004702:	930f      	str	r3, [sp, #60]	; 0x3c
  RCC_OscInitStruct.PLL.PLLMUL = RCC_PLL_MUL6;
 8004704:	f44f 2300 	mov.w	r3, #524288	; 0x80000
  RCC_OscInitStruct.HSIState = RCC_HSI_ON;
 8004708:	2401      	movs	r4, #1
  RCC_OscInitStruct.HSICalibrationValue = 16;
 800470a:	2210      	movs	r2, #16
  RCC_OscInitStruct.PLL.PLLMUL = RCC_PLL_MUL6;
 800470c:	9310      	str	r3, [sp, #64]	; 0x40
  RCC_OscInitStruct.PLL.PLLDIV = RCC_PLL_DIV3;
 800470e:	f44f 0300 	mov.w	r3, #8388608	; 0x800000
  if (HAL_RCC_OscConfig(&RCC_OscInitStruct) != HAL_OK)
 8004712:	a805      	add	r0, sp, #20
  RCC_OscInitStruct.HSIState = RCC_HSI_ON;
 8004714:	9408      	str	r4, [sp, #32]
  RCC_OscInitStruct.HSICalibrationValue = 16;
 8004716:	9209      	str	r2, [sp, #36]	; 0x24
  RCC_OscInitStruct.PLL.PLLDIV = RCC_PLL_DIV3;
 8004718:	9311      	str	r3, [sp, #68]	; 0x44
  if (HAL_RCC_OscConfig(&RCC_OscInitStruct) != HAL_OK)
 800471a:	f7fd fadf 	bl	8001cdc <HAL_RCC_OscConfig>
 800471e:	b100      	cbz	r0, 8004722 <SystemClock_Config+0x3a>
 8004720:	e7fe      	b.n	8004720 <SystemClock_Config+0x38>

    /**Initializes the CPU, AHB and APB busses clocks 
    */
  RCC_ClkInitStruct.ClockType = RCC_CLOCKTYPE_HCLK|RCC_CLOCKTYPE_SYSCLK
                              |RCC_CLOCKTYPE_PCLK1|RCC_CLOCKTYPE_PCLK2;
  RCC_ClkInitStruct.SYSCLKSource = RCC_SYSCLKSOURCE_PLLCLK;
 8004722:	220f      	movs	r2, #15
 8004724:	2303      	movs	r3, #3
  RCC_ClkInitStruct.AHBCLKDivider = RCC_SYSCLK_DIV1;
 8004726:	9002      	str	r0, [sp, #8]
  RCC_ClkInitStruct.APB1CLKDivider = RCC_HCLK_DIV1;
 8004728:	9003      	str	r0, [sp, #12]
  RCC_ClkInitStruct.APB2CLKDivider = RCC_HCLK_DIV1;
 800472a:	9004      	str	r0, [sp, #16]

  if (HAL_RCC_ClockConfig(&RCC_ClkInitStruct, FLASH_LATENCY_1) != HAL_OK)
 800472c:	4621      	mov	r1, r4
 800472e:	4668      	mov	r0, sp
  RCC_ClkInitStruct.SYSCLKSource = RCC_SYSCLKSOURCE_PLLCLK;
 8004730:	e88d 000c 	stmia.w	sp, {r2, r3}
  if (HAL_RCC_ClockConfig(&RCC_ClkInitStruct, FLASH_LATENCY_1) != HAL_OK)
 8004734:	f7fd fe6c 	bl	8002410 <HAL_RCC_ClockConfig>
 8004738:	4604      	mov	r4, r0
 800473a:	b100      	cbz	r0, 800473e <SystemClock_Config+0x56>
 800473c:	e7fe      	b.n	800473c <SystemClock_Config+0x54>
    _Error_Handler(__FILE__, __LINE__);
  }

    /**Configure the Systick interrupt time 
    */
  HAL_SYSTICK_Config(HAL_RCC_GetHCLKFreq()/1000);
 800473e:	f7fd ff45 	bl	80025cc <HAL_RCC_GetHCLKFreq>
 8004742:	f44f 737a 	mov.w	r3, #1000	; 0x3e8
 8004746:	fbb0 f0f3 	udiv	r0, r0, r3
 800474a:	f7fc fdb3 	bl	80012b4 <HAL_SYSTICK_Config>

    /**Configure the Systick 
    */
  HAL_SYSTICK_CLKSourceConfig(SYSTICK_CLKSOURCE_HCLK);
 800474e:	2004      	movs	r0, #4
 8004750:	f7fc fdc6 	bl	80012e0 <HAL_SYSTICK_CLKSourceConfig>

  /* SysTick_IRQn interrupt configuration */
  HAL_NVIC_SetPriority(SysTick_IRQn, 0, 0);
 8004754:	4622      	mov	r2, r4
 8004756:	4621      	mov	r1, r4
 8004758:	f04f 30ff 	mov.w	r0, #4294967295
 800475c:	f7fc fd6a 	bl	8001234 <HAL_NVIC_SetPriority>
}
 8004760:	b012      	add	sp, #72	; 0x48
 8004762:	bd10      	pop	{r4, pc}
 8004764:	40007000 	.word	0x40007000

08004768 <setup>:

/* USER CODE BEGIN 4 */
void setup(){
 8004768:	e92d 41f0 	stmdb	sp!, {r4, r5, r6, r7, r8, lr}
	//start code initiation
	char buffer[25];
	uint8_t len=sprintf(buffer,"Init\r\n"); //sprintf will return the length of 'buffer'
	HAL_UART_Transmit(&huart1, (unsigned char*)buffer, len, 1000);
 800476c:	4d25      	ldr	r5, [pc, #148]	; (8004804 <setup+0x9c>)
void setup(){
 800476e:	b088      	sub	sp, #32
	//start PWM clocks
	HAL_TIM_PWM_Start(&htim9, TIM_CHANNEL_1);
 8004770:	4c25      	ldr	r4, [pc, #148]	; (8004808 <setup+0xa0>)
	uint8_t len=sprintf(buffer,"Init\r\n"); //sprintf will return the length of 'buffer'
 8004772:	4926      	ldr	r1, [pc, #152]	; (800480c <setup+0xa4>)
 8004774:	a801      	add	r0, sp, #4
 8004776:	f000 fe74 	bl	8005462 <strcpy>
	HAL_UART_Transmit(&huart1, (unsigned char*)buffer, len, 1000);
 800477a:	f44f 737a 	mov.w	r3, #1000	; 0x3e8
 800477e:	2206      	movs	r2, #6
 8004780:	a901      	add	r1, sp, #4
 8004782:	4628      	mov	r0, r5
 8004784:	f7fe fcf6 	bl	8003174 <HAL_UART_Transmit>
	HAL_TIM_PWM_Start(&htim9, TIM_CHANNEL_2);
	HAL_TIM_PWM_Start(&htim10, TIM_CHANNEL_1);
 8004788:	f8df 809c 	ldr.w	r8, [pc, #156]	; 8004828 <setup+0xc0>
	HAL_TIM_PWM_Start(&htim9, TIM_CHANNEL_1);
 800478c:	2100      	movs	r1, #0
 800478e:	4620      	mov	r0, r4
 8004790:	f7fe f864 	bl	800285c <HAL_TIM_PWM_Start>
	HAL_TIM_PWM_Start(&htim11, TIM_CHANNEL_1);
 8004794:	4f1e      	ldr	r7, [pc, #120]	; (8004810 <setup+0xa8>)
	HAL_TIM_PWM_Start(&htim9, TIM_CHANNEL_2);
 8004796:	2104      	movs	r1, #4
 8004798:	4620      	mov	r0, r4
 800479a:	f7fe f85f 	bl	800285c <HAL_TIM_PWM_Start>
	//init motor data structures
	initMot(&htim3, &htim2, &htim11, &htim10);
 800479e:	4e1d      	ldr	r6, [pc, #116]	; (8004814 <setup+0xac>)
 80047a0:	4c1d      	ldr	r4, [pc, #116]	; (8004818 <setup+0xb0>)
	HAL_TIM_PWM_Start(&htim10, TIM_CHANNEL_1);
 80047a2:	2100      	movs	r1, #0
 80047a4:	4640      	mov	r0, r8
 80047a6:	f7fe f859 	bl	800285c <HAL_TIM_PWM_Start>
	HAL_TIM_PWM_Start(&htim11, TIM_CHANNEL_1);
 80047aa:	2100      	movs	r1, #0
 80047ac:	4638      	mov	r0, r7
 80047ae:	f7fe f855 	bl	800285c <HAL_TIM_PWM_Start>
	initMot(&htim3, &htim2, &htim11, &htim10);
 80047b2:	4643      	mov	r3, r8
 80047b4:	463a      	mov	r2, r7
 80047b6:	4631      	mov	r1, r6
 80047b8:	4620      	mov	r0, r4
 80047ba:	f7ff f86b 	bl	8003894 <initMot>
	//init command queue data structure
	initCOM();
 80047be:	f7fe ffe9 	bl	8003794 <initCOM>
	//init IMU data Structure
	initIMU(&hi2c2);
 80047c2:	4816      	ldr	r0, [pc, #88]	; (800481c <setup+0xb4>)
 80047c4:	f7ff fe04 	bl	80043d0 <initIMU>
	//start millis() timer clock interrupt
	HAL_TIM_Base_Start_IT(&htim6);
 80047c8:	4815      	ldr	r0, [pc, #84]	; (8004820 <setup+0xb8>)
 80047ca:	f7fd fff9 	bl	80027c0 <HAL_TIM_Base_Start_IT>
	//start encoder tracking
	HAL_TIM_Encoder_Start(&htim2,TIM_CHANNEL_ALL);
 80047ce:	2118      	movs	r1, #24
 80047d0:	4630      	mov	r0, r6
 80047d2:	f7fe f8ba 	bl	800294a <HAL_TIM_Encoder_Start>
	HAL_TIM_Encoder_Start(&htim3,TIM_CHANNEL_ALL);
 80047d6:	4620      	mov	r0, r4
	//Init Ultrasonic Data Structures
	initUltrasonics(&htim5);
 80047d8:	4c12      	ldr	r4, [pc, #72]	; (8004824 <setup+0xbc>)
	HAL_TIM_Encoder_Start(&htim3,TIM_CHANNEL_ALL);
 80047da:	2118      	movs	r1, #24
 80047dc:	f7fe f8b5 	bl	800294a <HAL_TIM_Encoder_Start>
	initUltrasonics(&htim5);
 80047e0:	4620      	mov	r0, r4
 80047e2:	f7ff fdd9 	bl	8004398 <initUltrasonics>
	HAL_TIM_IC_Start_IT(&htim5,TIM_CHANNEL_3);
 80047e6:	2108      	movs	r1, #8
 80047e8:	4620      	mov	r0, r4
 80047ea:	f7fe f839 	bl	8002860 <HAL_TIM_IC_Start_IT>
	HAL_TIM_IC_Start_IT(&htim5,TIM_CHANNEL_4);
 80047ee:	210c      	movs	r1, #12
 80047f0:	4620      	mov	r0, r4
 80047f2:	f7fe f835 	bl	8002860 <HAL_TIM_IC_Start_IT>
	//start UART receive interrupt
	UART_ReadStart(&huart1);
 80047f6:	4628      	mov	r0, r5
 80047f8:	f7fe ff86 	bl	8003708 <UART_ReadStart>
	return;
}
 80047fc:	b008      	add	sp, #32
 80047fe:	e8bd 81f0 	ldmia.w	sp!, {r4, r5, r6, r7, r8, pc}
 8004802:	bf00      	nop
 8004804:	20000fbc 	.word	0x20000fbc
 8004808:	20000f4c 	.word	0x20000f4c
 800480c:	080078c7 	.word	0x080078c7
 8004810:	20000edc 	.word	0x20000edc
 8004814:	20000f84 	.word	0x20000f84
 8004818:	20000ea4 	.word	0x20000ea4
 800481c:	20000de0 	.word	0x20000de0
 8004820:	20000f14 	.word	0x20000f14
 8004824:	20000e6c 	.word	0x20000e6c
 8004828:	20000e34 	.word	0x20000e34

0800482c <main>:
{
 800482c:	b570      	push	{r4, r5, r6, lr}
  HAL_Init();
 800482e:	f7fc fcc7 	bl	80011c0 <HAL_Init>
  SystemClock_Config();
 8004832:	f7ff ff59 	bl	80046e8 <SystemClock_Config>
  MX_GPIO_Init();
 8004836:	f7ff fe71 	bl	800451c <MX_GPIO_Init>
  MX_USART1_UART_Init();
 800483a:	f000 fc3b 	bl	80050b4 <MX_USART1_UART_Init>
  MX_TIM9_Init();
 800483e:	f000 fb4f 	bl	8004ee0 <MX_TIM9_Init>
  MX_TIM10_Init();
 8004842:	f000 fba7 	bl	8004f94 <MX_TIM10_Init>
  MX_TIM11_Init();
 8004846:	f000 fbed 	bl	8005024 <MX_TIM11_Init>
  MX_TIM3_Init();
 800484a:	f000 f9bd 	bl	8004bc8 <MX_TIM3_Init>
  MX_TIM2_Init();
 800484e:	f000 f989 	bl	8004b64 <MX_TIM2_Init>
  MX_TIM6_Init();
 8004852:	f000 fa45 	bl	8004ce0 <MX_TIM6_Init>
  MX_TIM5_Init();
 8004856:	f000 f9e9 	bl	8004c2c <MX_TIM5_Init>
  MX_I2C2_Init();
 800485a:	f7ff fef9 	bl	8004650 <MX_I2C2_Init>
  setup();
 800485e:	f7ff ff83 	bl	8004768 <setup>
	  Parse_CMD(&htim9, &huart1);
 8004862:	4c07      	ldr	r4, [pc, #28]	; (8004880 <main+0x54>)
 8004864:	4e07      	ldr	r6, [pc, #28]	; (8004884 <main+0x58>)
	  RunMotionPlanning(End_of_Window_Threshold);
 8004866:	4d08      	ldr	r5, [pc, #32]	; (8004888 <main+0x5c>)
	  Parse_CMD(&htim9, &huart1);
 8004868:	4621      	mov	r1, r4
 800486a:	4630      	mov	r0, r6
 800486c:	f7fe ff52 	bl	8003714 <Parse_CMD>
	  RunMotionPlanning(End_of_Window_Threshold);
 8004870:	4628      	mov	r0, r5
 8004872:	f7ff fba5 	bl	8003fc0 <RunMotionPlanning>
	  Run_PID(&huart1);
 8004876:	4620      	mov	r0, r4
 8004878:	f7ff fa0e 	bl	8003c98 <Run_PID>
 800487c:	e7f4      	b.n	8004868 <main+0x3c>
 800487e:	bf00      	nop
 8004880:	20000fbc 	.word	0x20000fbc
 8004884:	20000f4c 	.word	0x20000f4c
 8004888:	44b82666 	.word	0x44b82666

0800488c <_Error_Handler>:
  * @param  file: The file name as string.
  * @param  line: The line in file as a number.
  * @retval None
  */
void _Error_Handler(char *file, int line)
{
 800488c:	e7fe      	b.n	800488c <_Error_Handler>

0800488e <PIDCompute>:
    PIDTuningsSet(pid, kp, ki, kd);
}
        
bool
PIDCompute(PIDControl *pid) 
{
 800488e:	e92d 43f8 	stmdb	sp!, {r3, r4, r5, r6, r7, r8, r9, lr}
 8004892:	4604      	mov	r4, r0
    float error, dInput;

    if(pid->mode == MANUAL)
 8004894:	f890 0039 	ldrb.w	r0, [r0, #57]	; 0x39
 8004898:	2800      	cmp	r0, #0
 800489a:	d03d      	beq.n	8004918 <PIDCompute+0x8a>
    {
        return false;
    }
    
    // The classic PID error term
    error = (pid->setpoint) - (pid->input);
 800489c:	6827      	ldr	r7, [r4, #0]
 800489e:	6b60      	ldr	r0, [r4, #52]	; 0x34
 80048a0:	4639      	mov	r1, r7
 80048a2:	f7fc f963 	bl	8000b6c <__aeabi_fsub>
    
    // Compute the integral term separately ahead of time
    pid->iTerm += (pid->alteredKi) * error;
 80048a6:	69e1      	ldr	r1, [r4, #28]
    error = (pid->setpoint) - (pid->input);
 80048a8:	4681      	mov	r9, r0
    pid->iTerm += (pid->alteredKi) * error;
 80048aa:	f7fc fa69 	bl	8000d80 <__aeabi_fmul>
 80048ae:	6a61      	ldr	r1, [r4, #36]	; 0x24
 80048b0:	f7fc f95e 	bl	8000b70 <__addsf3>
    
    // Constrain the integrator to make sure it does not exceed output bounds
    pid->iTerm = CONSTRAIN( (pid->iTerm), (pid->outMin), (pid->outMax) );
 80048b4:	6ae5      	ldr	r5, [r4, #44]	; 0x2c
    pid->iTerm += (pid->alteredKi) * error;
 80048b6:	4680      	mov	r8, r0
    pid->iTerm = CONSTRAIN( (pid->iTerm), (pid->outMin), (pid->outMax) );
 80048b8:	4629      	mov	r1, r5
 80048ba:	f7fc fbff 	bl	80010bc <__aeabi_fcmplt>
 80048be:	2800      	cmp	r0, #0
 80048c0:	d12c      	bne.n	800491c <PIDCompute+0x8e>
 80048c2:	6b26      	ldr	r6, [r4, #48]	; 0x30
 80048c4:	4640      	mov	r0, r8
 80048c6:	4631      	mov	r1, r6
 80048c8:	f7fc fc16 	bl	80010f8 <__aeabi_fcmpgt>
 80048cc:	b900      	cbnz	r0, 80048d0 <PIDCompute+0x42>
 80048ce:	4646      	mov	r6, r8
 80048d0:	6266      	str	r6, [r4, #36]	; 0x24
    
    // Take the "derivative on measurement" instead of "derivative on error"
    dInput = (pid->input) - (pid->lastInput);
    
    // Run all the terms together to get the overall output
    pid->output = (pid->alteredKp) * error + (pid->iTerm) - (pid->alteredKd) * dInput;
 80048d2:	69a1      	ldr	r1, [r4, #24]
 80048d4:	4648      	mov	r0, r9
 80048d6:	f7fc fa53 	bl	8000d80 <__aeabi_fmul>
 80048da:	4631      	mov	r1, r6
 80048dc:	f7fc f948 	bl	8000b70 <__addsf3>
    dInput = (pid->input) - (pid->lastInput);
 80048e0:	6861      	ldr	r1, [r4, #4]
    pid->output = (pid->alteredKp) * error + (pid->iTerm) - (pid->alteredKd) * dInput;
 80048e2:	4606      	mov	r6, r0
    dInput = (pid->input) - (pid->lastInput);
 80048e4:	4638      	mov	r0, r7
 80048e6:	f7fc f941 	bl	8000b6c <__aeabi_fsub>
    pid->output = (pid->alteredKp) * error + (pid->iTerm) - (pid->alteredKd) * dInput;
 80048ea:	6a21      	ldr	r1, [r4, #32]
 80048ec:	f7fc fa48 	bl	8000d80 <__aeabi_fmul>
 80048f0:	4601      	mov	r1, r0
 80048f2:	4630      	mov	r0, r6
 80048f4:	f7fc f93a 	bl	8000b6c <__aeabi_fsub>
 80048f8:	4606      	mov	r6, r0
    
    // Bound the output
    pid->output = CONSTRAIN( (pid->output), (pid->outMin), (pid->outMax) );
 80048fa:	4601      	mov	r1, r0
 80048fc:	4628      	mov	r0, r5
 80048fe:	f7fc fbfb 	bl	80010f8 <__aeabi_fcmpgt>
 8004902:	b930      	cbnz	r0, 8004912 <PIDCompute+0x84>
 8004904:	6b25      	ldr	r5, [r4, #48]	; 0x30
 8004906:	4630      	mov	r0, r6
 8004908:	4629      	mov	r1, r5
 800490a:	f7fc fbf5 	bl	80010f8 <__aeabi_fcmpgt>
 800490e:	b900      	cbnz	r0, 8004912 <PIDCompute+0x84>
 8004910:	4635      	mov	r5, r6
    
    // Make the current input the former input
    pid->lastInput = pid->input;
    
    return true;
 8004912:	2001      	movs	r0, #1
    pid->output = CONSTRAIN( (pid->output), (pid->outMin), (pid->outMax) );
 8004914:	60a5      	str	r5, [r4, #8]
    pid->lastInput = pid->input;
 8004916:	6067      	str	r7, [r4, #4]
}
 8004918:	e8bd 83f8 	ldmia.w	sp!, {r3, r4, r5, r6, r7, r8, r9, pc}
    pid->iTerm = CONSTRAIN( (pid->iTerm), (pid->outMin), (pid->outMax) );
 800491c:	462e      	mov	r6, r5
 800491e:	e7d7      	b.n	80048d0 <PIDCompute+0x42>

08004920 <PIDOutputLimitsSet>:
    pid->mode = mode;
}

void 
PIDOutputLimitsSet(PIDControl *pid, float min, float max) 							  							  
{
 8004920:	b5f8      	push	{r3, r4, r5, r6, r7, lr}
 8004922:	460c      	mov	r4, r1
 8004924:	4605      	mov	r5, r0
    // Check if the parameters are valid
    if(min >= max)
 8004926:	4611      	mov	r1, r2
 8004928:	4620      	mov	r0, r4
{
 800492a:	4616      	mov	r6, r2
    if(min >= max)
 800492c:	f7fc fbda 	bl	80010e4 <__aeabi_fcmpge>
 8004930:	b9f0      	cbnz	r0, 8004970 <PIDOutputLimitsSet+0x50>
    // Save the parameters
    pid->outMin = min;
    pid->outMax = max;
    
    // If in automatic, apply the new constraints
    if(pid->mode == AUTOMATIC)
 8004932:	f895 3039 	ldrb.w	r3, [r5, #57]	; 0x39
    pid->outMin = min;
 8004936:	62ec      	str	r4, [r5, #44]	; 0x2c
    if(pid->mode == AUTOMATIC)
 8004938:	2b01      	cmp	r3, #1
    pid->outMax = max;
 800493a:	632e      	str	r6, [r5, #48]	; 0x30
    if(pid->mode == AUTOMATIC)
 800493c:	d118      	bne.n	8004970 <PIDOutputLimitsSet+0x50>
    {
        pid->output = CONSTRAIN(pid->output, min, max);
 800493e:	68af      	ldr	r7, [r5, #8]
 8004940:	4620      	mov	r0, r4
 8004942:	4639      	mov	r1, r7
 8004944:	f7fc fbd8 	bl	80010f8 <__aeabi_fcmpgt>
 8004948:	b998      	cbnz	r0, 8004972 <PIDOutputLimitsSet+0x52>
 800494a:	4639      	mov	r1, r7
 800494c:	4630      	mov	r0, r6
 800494e:	f7fc fbb5 	bl	80010bc <__aeabi_fcmplt>
 8004952:	b980      	cbnz	r0, 8004976 <PIDOutputLimitsSet+0x56>
 8004954:	60af      	str	r7, [r5, #8]
        pid->iTerm  = CONSTRAIN(pid->iTerm,  min, max);
 8004956:	6a6f      	ldr	r7, [r5, #36]	; 0x24
 8004958:	4620      	mov	r0, r4
 800495a:	4639      	mov	r1, r7
 800495c:	f7fc fbcc 	bl	80010f8 <__aeabi_fcmpgt>
 8004960:	b928      	cbnz	r0, 800496e <PIDOutputLimitsSet+0x4e>
 8004962:	4639      	mov	r1, r7
 8004964:	4630      	mov	r0, r6
 8004966:	f7fc fba9 	bl	80010bc <__aeabi_fcmplt>
 800496a:	b930      	cbnz	r0, 800497a <PIDOutputLimitsSet+0x5a>
 800496c:	463c      	mov	r4, r7
 800496e:	626c      	str	r4, [r5, #36]	; 0x24
 8004970:	bdf8      	pop	{r3, r4, r5, r6, r7, pc}
        pid->output = CONSTRAIN(pid->output, min, max);
 8004972:	4627      	mov	r7, r4
 8004974:	e7ee      	b.n	8004954 <PIDOutputLimitsSet+0x34>
 8004976:	4637      	mov	r7, r6
 8004978:	e7ec      	b.n	8004954 <PIDOutputLimitsSet+0x34>
        pid->iTerm  = CONSTRAIN(pid->iTerm,  min, max);
 800497a:	4634      	mov	r4, r6
 800497c:	e7f7      	b.n	800496e <PIDOutputLimitsSet+0x4e>

0800497e <PIDTuningsSet>:
    }
}

void 
PIDTuningsSet(PIDControl *pid, float kp, float ki, float kd)         	                                         
{
 800497e:	e92d 41f0 	stmdb	sp!, {r4, r5, r6, r7, r8, lr}
 8004982:	460d      	mov	r5, r1
 8004984:	4604      	mov	r4, r0
    // Check if the parameters are valid
    if(kp < 0.0f || ki < 0.0f || kd < 0.0f)
 8004986:	2100      	movs	r1, #0
 8004988:	4628      	mov	r0, r5
{
 800498a:	4616      	mov	r6, r2
 800498c:	461f      	mov	r7, r3
    if(kp < 0.0f || ki < 0.0f || kd < 0.0f)
 800498e:	f7fc fb95 	bl	80010bc <__aeabi_fcmplt>
 8004992:	bb38      	cbnz	r0, 80049e4 <PIDTuningsSet+0x66>
 8004994:	2100      	movs	r1, #0
 8004996:	4630      	mov	r0, r6
 8004998:	f7fc fb90 	bl	80010bc <__aeabi_fcmplt>
 800499c:	bb10      	cbnz	r0, 80049e4 <PIDTuningsSet+0x66>
 800499e:	2100      	movs	r1, #0
 80049a0:	4638      	mov	r0, r7
 80049a2:	f7fc fb8b 	bl	80010bc <__aeabi_fcmplt>
 80049a6:	b9e8      	cbnz	r0, 80049e4 <PIDTuningsSet+0x66>
    pid->dispKi = ki;
    pid->dispKd = kd;
    
    // Alter the parameters for PID
    pid->alteredKp = kp;
    pid->alteredKi = ki * pid->sampleTime;
 80049a8:	f8d4 8028 	ldr.w	r8, [r4, #40]	; 0x28
    pid->dispKi = ki;
 80049ac:	6126      	str	r6, [r4, #16]
    pid->alteredKi = ki * pid->sampleTime;
 80049ae:	4641      	mov	r1, r8
 80049b0:	4630      	mov	r0, r6
    pid->dispKp = kp;
 80049b2:	60e5      	str	r5, [r4, #12]
    pid->dispKd = kd;
 80049b4:	6167      	str	r7, [r4, #20]
    pid->alteredKp = kp;
 80049b6:	61a5      	str	r5, [r4, #24]
    pid->alteredKi = ki * pid->sampleTime;
 80049b8:	f7fc f9e2 	bl	8000d80 <__aeabi_fmul>
    pid->alteredKd = kd / pid->sampleTime;
 80049bc:	4641      	mov	r1, r8
    pid->alteredKi = ki * pid->sampleTime;
 80049be:	61e0      	str	r0, [r4, #28]
 80049c0:	4606      	mov	r6, r0
    pid->alteredKd = kd / pid->sampleTime;
 80049c2:	4638      	mov	r0, r7
 80049c4:	f7fc fa90 	bl	8000ee8 <__aeabi_fdiv>
    
    // Apply reverse direction to the altered values if necessary
    if(pid->controllerDirection == REVERSE)
 80049c8:	f894 3038 	ldrb.w	r3, [r4, #56]	; 0x38
    pid->alteredKd = kd / pid->sampleTime;
 80049cc:	6220      	str	r0, [r4, #32]
    if(pid->controllerDirection == REVERSE)
 80049ce:	2b01      	cmp	r3, #1
 80049d0:	d108      	bne.n	80049e4 <PIDTuningsSet+0x66>
    {
        pid->alteredKp = -(pid->alteredKp);
 80049d2:	f105 4500 	add.w	r5, r5, #2147483648	; 0x80000000
        pid->alteredKi = -(pid->alteredKi);
 80049d6:	f106 4600 	add.w	r6, r6, #2147483648	; 0x80000000
        pid->alteredKd = -(pid->alteredKd);
 80049da:	f100 4000 	add.w	r0, r0, #2147483648	; 0x80000000
        pid->alteredKp = -(pid->alteredKp);
 80049de:	61a5      	str	r5, [r4, #24]
        pid->alteredKi = -(pid->alteredKi);
 80049e0:	61e6      	str	r6, [r4, #28]
        pid->alteredKd = -(pid->alteredKd);
 80049e2:	6220      	str	r0, [r4, #32]
 80049e4:	e8bd 81f0 	ldmia.w	sp!, {r4, r5, r6, r7, r8, pc}

080049e8 <PIDInit>:
{
 80049e8:	e92d 47f0 	stmdb	sp!, {r4, r5, r6, r7, r8, r9, sl, lr}
 80049ec:	460e      	mov	r6, r1
    pid->iTerm = 0.0f;
 80049ee:	2100      	movs	r1, #0
{
 80049f0:	4617      	mov	r7, r2
 80049f2:	4698      	mov	r8, r3
 80049f4:	9d08      	ldr	r5, [sp, #32]
 80049f6:	f89d 302c 	ldrb.w	r3, [sp, #44]	; 0x2c
 80049fa:	f89d 2030 	ldrb.w	r2, [sp, #48]	; 0x30
 80049fe:	4604      	mov	r4, r0
    pid->controllerDirection = controllerDirection;
 8004a00:	f880 2038 	strb.w	r2, [r0, #56]	; 0x38
    pid->mode = mode;
 8004a04:	f880 3039 	strb.w	r3, [r0, #57]	; 0x39
    pid->iTerm = 0.0f;
 8004a08:	6241      	str	r1, [r0, #36]	; 0x24
    pid->input = 0.0f;
 8004a0a:	6001      	str	r1, [r0, #0]
    pid->lastInput = 0.0f;
 8004a0c:	6041      	str	r1, [r0, #4]
    pid->output = 0.0f;
 8004a0e:	6081      	str	r1, [r0, #8]
    pid->setpoint = 0.0f;
 8004a10:	6341      	str	r1, [r0, #52]	; 0x34
    if(sampleTimeSeconds > 0.0f)
 8004a12:	4628      	mov	r0, r5
{
 8004a14:	f8dd 9024 	ldr.w	r9, [sp, #36]	; 0x24
 8004a18:	f8dd a028 	ldr.w	sl, [sp, #40]	; 0x28
    if(sampleTimeSeconds > 0.0f)
 8004a1c:	f7fc fb6c 	bl	80010f8 <__aeabi_fcmpgt>
 8004a20:	b168      	cbz	r0, 8004a3e <PIDInit+0x56>
        pid->sampleTime = sampleTimeSeconds;
 8004a22:	62a5      	str	r5, [r4, #40]	; 0x28
    PIDOutputLimitsSet(pid, minOutput, maxOutput);
 8004a24:	4652      	mov	r2, sl
 8004a26:	4649      	mov	r1, r9
 8004a28:	4620      	mov	r0, r4
 8004a2a:	f7ff ff79 	bl	8004920 <PIDOutputLimitsSet>
    PIDTuningsSet(pid, kp, ki, kd);
 8004a2e:	4643      	mov	r3, r8
 8004a30:	463a      	mov	r2, r7
 8004a32:	4631      	mov	r1, r6
 8004a34:	4620      	mov	r0, r4
}
 8004a36:	e8bd 47f0 	ldmia.w	sp!, {r4, r5, r6, r7, r8, r9, sl, lr}
    PIDTuningsSet(pid, kp, ki, kd);
 8004a3a:	f7ff bfa0 	b.w	800497e <PIDTuningsSet>
        pid->sampleTime = 1.0f;
 8004a3e:	f04f 537e 	mov.w	r3, #1065353216	; 0x3f800000
 8004a42:	62a3      	str	r3, [r4, #40]	; 0x28
 8004a44:	e7ee      	b.n	8004a24 <PIDInit+0x3c>
	...

08004a48 <HAL_MspInit>:
/* USER CODE END 0 */
/**
  * Initializes the Global MSP.
  */
void HAL_MspInit(void)
{
 8004a48:	b51f      	push	{r0, r1, r2, r3, r4, lr}
  /* USER CODE BEGIN MspInit 0 */

  /* USER CODE END MspInit 0 */

  __HAL_RCC_COMP_CLK_ENABLE();
 8004a4a:	4b28      	ldr	r3, [pc, #160]	; (8004aec <HAL_MspInit+0xa4>)
  __HAL_RCC_SYSCFG_CLK_ENABLE();
  __HAL_RCC_PWR_CLK_ENABLE();

  HAL_NVIC_SetPriorityGrouping(NVIC_PRIORITYGROUP_0);
 8004a4c:	2007      	movs	r0, #7
  __HAL_RCC_COMP_CLK_ENABLE();
 8004a4e:	6a5a      	ldr	r2, [r3, #36]	; 0x24
 8004a50:	f042 4200 	orr.w	r2, r2, #2147483648	; 0x80000000
 8004a54:	625a      	str	r2, [r3, #36]	; 0x24
 8004a56:	6a5a      	ldr	r2, [r3, #36]	; 0x24
 8004a58:	f002 4200 	and.w	r2, r2, #2147483648	; 0x80000000
 8004a5c:	9201      	str	r2, [sp, #4]
 8004a5e:	9a01      	ldr	r2, [sp, #4]
  __HAL_RCC_SYSCFG_CLK_ENABLE();
 8004a60:	6a1a      	ldr	r2, [r3, #32]
 8004a62:	f042 0201 	orr.w	r2, r2, #1
 8004a66:	621a      	str	r2, [r3, #32]
 8004a68:	6a1a      	ldr	r2, [r3, #32]
 8004a6a:	f002 0201 	and.w	r2, r2, #1
 8004a6e:	9202      	str	r2, [sp, #8]
 8004a70:	9a02      	ldr	r2, [sp, #8]
  __HAL_RCC_PWR_CLK_ENABLE();
 8004a72:	6a5a      	ldr	r2, [r3, #36]	; 0x24
 8004a74:	f042 5280 	orr.w	r2, r2, #268435456	; 0x10000000
 8004a78:	625a      	str	r2, [r3, #36]	; 0x24
 8004a7a:	6a5b      	ldr	r3, [r3, #36]	; 0x24
 8004a7c:	f003 5380 	and.w	r3, r3, #268435456	; 0x10000000
 8004a80:	9303      	str	r3, [sp, #12]
 8004a82:	9b03      	ldr	r3, [sp, #12]
  HAL_NVIC_SetPriorityGrouping(NVIC_PRIORITYGROUP_0);
 8004a84:	f7fc fbc4 	bl	8001210 <HAL_NVIC_SetPriorityGrouping>

  /* System interrupt init*/
  /* MemoryManagement_IRQn interrupt configuration */
  HAL_NVIC_SetPriority(MemoryManagement_IRQn, 0, 0);
 8004a88:	2200      	movs	r2, #0
 8004a8a:	f06f 000b 	mvn.w	r0, #11
 8004a8e:	4611      	mov	r1, r2
 8004a90:	f7fc fbd0 	bl	8001234 <HAL_NVIC_SetPriority>
  /* BusFault_IRQn interrupt configuration */
  HAL_NVIC_SetPriority(BusFault_IRQn, 0, 0);
 8004a94:	2200      	movs	r2, #0
 8004a96:	f06f 000a 	mvn.w	r0, #10
 8004a9a:	4611      	mov	r1, r2
 8004a9c:	f7fc fbca 	bl	8001234 <HAL_NVIC_SetPriority>
  /* UsageFault_IRQn interrupt configuration */
  HAL_NVIC_SetPriority(UsageFault_IRQn, 0, 0);
 8004aa0:	2200      	movs	r2, #0
 8004aa2:	f06f 0009 	mvn.w	r0, #9
 8004aa6:	4611      	mov	r1, r2
 8004aa8:	f7fc fbc4 	bl	8001234 <HAL_NVIC_SetPriority>
  /* SVC_IRQn interrupt configuration */
  HAL_NVIC_SetPriority(SVC_IRQn, 0, 0);
 8004aac:	2200      	movs	r2, #0
 8004aae:	f06f 0004 	mvn.w	r0, #4
 8004ab2:	4611      	mov	r1, r2
 8004ab4:	f7fc fbbe 	bl	8001234 <HAL_NVIC_SetPriority>
  /* DebugMonitor_IRQn interrupt configuration */
  HAL_NVIC_SetPriority(DebugMonitor_IRQn, 0, 0);
 8004ab8:	2200      	movs	r2, #0
 8004aba:	f06f 0003 	mvn.w	r0, #3
 8004abe:	4611      	mov	r1, r2
 8004ac0:	f7fc fbb8 	bl	8001234 <HAL_NVIC_SetPriority>
  /* PendSV_IRQn interrupt configuration */
  HAL_NVIC_SetPriority(PendSV_IRQn, 0, 0);
 8004ac4:	2200      	movs	r2, #0
 8004ac6:	f06f 0001 	mvn.w	r0, #1
 8004aca:	4611      	mov	r1, r2
 8004acc:	f7fc fbb2 	bl	8001234 <HAL_NVIC_SetPriority>
  /* SysTick_IRQn interrupt configuration */
  HAL_NVIC_SetPriority(SysTick_IRQn, 0, 0);
 8004ad0:	2200      	movs	r2, #0
 8004ad2:	f04f 30ff 	mov.w	r0, #4294967295
 8004ad6:	4611      	mov	r1, r2
 8004ad8:	f7fc fbac 	bl	8001234 <HAL_NVIC_SetPriority>

    /**Enables the output of internal reference voltage 
    */
  __HAL_SYSCFG_VREFINT_OUT_ENABLE();
 8004adc:	4a04      	ldr	r2, [pc, #16]	; (8004af0 <HAL_MspInit+0xa8>)
 8004ade:	6813      	ldr	r3, [r2, #0]
 8004ae0:	f443 3380 	orr.w	r3, r3, #65536	; 0x10000
 8004ae4:	6013      	str	r3, [r2, #0]

  /* USER CODE BEGIN MspInit 1 */

  /* USER CODE END MspInit 1 */
}
 8004ae6:	b005      	add	sp, #20
 8004ae8:	f85d fb04 	ldr.w	pc, [sp], #4
 8004aec:	40023800 	.word	0x40023800
 8004af0:	40007c00 	.word	0x40007c00

08004af4 <SysTick_Handler>:

/**
* @brief This function handles System tick timer.
*/
void SysTick_Handler(void)
{
 8004af4:	b508      	push	{r3, lr}
  /* USER CODE BEGIN SysTick_IRQn 0 */

  /* USER CODE END SysTick_IRQn 0 */
  HAL_IncTick();
 8004af6:	f7fc fb6f 	bl	80011d8 <HAL_IncTick>
  HAL_SYSTICK_IRQHandler();
  /* USER CODE BEGIN SysTick_IRQn 1 */

  /* USER CODE END SysTick_IRQn 1 */
}
 8004afa:	e8bd 4008 	ldmia.w	sp!, {r3, lr}
  HAL_SYSTICK_IRQHandler();
 8004afe:	f7fc bbfc 	b.w	80012fa <HAL_SYSTICK_IRQHandler>
	...

08004b04 <USART1_IRQHandler>:
void USART1_IRQHandler(void)
{
  /* USER CODE BEGIN USART1_IRQn 0 */

  /* USER CODE END USART1_IRQn 0 */
  HAL_UART_IRQHandler(&huart1);
 8004b04:	4801      	ldr	r0, [pc, #4]	; (8004b0c <USART1_IRQHandler+0x8>)
 8004b06:	f7fe bbc4 	b.w	8003292 <HAL_UART_IRQHandler>
 8004b0a:	bf00      	nop
 8004b0c:	20000fbc 	.word	0x20000fbc

08004b10 <TIM6_IRQHandler>:
void TIM6_IRQHandler(void)
{
  /* USER CODE BEGIN TIM6_IRQn 0 */

  /* USER CODE END TIM6_IRQn 0 */
  HAL_TIM_IRQHandler(&htim6);
 8004b10:	4801      	ldr	r0, [pc, #4]	; (8004b18 <TIM6_IRQHandler+0x8>)
 8004b12:	f7fe b909 	b.w	8002d28 <HAL_TIM_IRQHandler>
 8004b16:	bf00      	nop
 8004b18:	20000f14 	.word	0x20000f14

08004b1c <SystemInit>:
  * @retval None
  */
void SystemInit (void)
{
  /*!< Set MSION bit */
  RCC->CR |= (uint32_t)0x00000100;
 8004b1c:	4b0e      	ldr	r3, [pc, #56]	; (8004b58 <SystemInit+0x3c>)
 8004b1e:	681a      	ldr	r2, [r3, #0]
 8004b20:	f442 7280 	orr.w	r2, r2, #256	; 0x100
 8004b24:	601a      	str	r2, [r3, #0]

  /*!< Reset SW[1:0], HPRE[3:0], PPRE1[2:0], PPRE2[2:0], MCOSEL[2:0] and MCOPRE[2:0] bits */
  RCC->CFGR &= (uint32_t)0x88FFC00C;
 8004b26:	6899      	ldr	r1, [r3, #8]
 8004b28:	4a0c      	ldr	r2, [pc, #48]	; (8004b5c <SystemInit+0x40>)
 8004b2a:	400a      	ands	r2, r1
 8004b2c:	609a      	str	r2, [r3, #8]
  
  /*!< Reset HSION, HSEON, CSSON and PLLON bits */
  RCC->CR &= (uint32_t)0xEEFEFFFE;
 8004b2e:	681a      	ldr	r2, [r3, #0]
 8004b30:	f022 5288 	bic.w	r2, r2, #285212672	; 0x11000000
 8004b34:	f022 1201 	bic.w	r2, r2, #65537	; 0x10001
 8004b38:	601a      	str	r2, [r3, #0]

  /*!< Reset HSEBYP bit */
  RCC->CR &= (uint32_t)0xFFFBFFFF;
 8004b3a:	681a      	ldr	r2, [r3, #0]
 8004b3c:	f422 2280 	bic.w	r2, r2, #262144	; 0x40000
 8004b40:	601a      	str	r2, [r3, #0]

  /*!< Reset PLLSRC, PLLMUL[3:0] and PLLDIV[1:0] bits */
  RCC->CFGR &= (uint32_t)0xFF02FFFF;
 8004b42:	689a      	ldr	r2, [r3, #8]
 8004b44:	f422 027d 	bic.w	r2, r2, #16580608	; 0xfd0000
 8004b48:	609a      	str	r2, [r3, #8]

  /*!< Disable all interrupts */
  RCC->CIR = 0x00000000;
 8004b4a:	2200      	movs	r2, #0
 8004b4c:	60da      	str	r2, [r3, #12]
#endif /* DATA_IN_ExtSRAM */
    
#ifdef VECT_TAB_SRAM
  SCB->VTOR = SRAM_BASE | VECT_TAB_OFFSET; /* Vector Table Relocation in Internal SRAM. */
#else
  SCB->VTOR = FLASH_BASE | VECT_TAB_OFFSET; /* Vector Table Relocation in Internal FLASH. */
 8004b4e:	f04f 6200 	mov.w	r2, #134217728	; 0x8000000
 8004b52:	4b03      	ldr	r3, [pc, #12]	; (8004b60 <SystemInit+0x44>)
 8004b54:	609a      	str	r2, [r3, #8]
 8004b56:	4770      	bx	lr
 8004b58:	40023800 	.word	0x40023800
 8004b5c:	88ffc00c 	.word	0x88ffc00c
 8004b60:	e000ed00 	.word	0xe000ed00

08004b64 <MX_TIM2_Init>:
TIM_HandleTypeDef htim10;
TIM_HandleTypeDef htim11;

/* TIM2 init function */
void MX_TIM2_Init(void)
{
 8004b64:	b510      	push	{r4, lr}
  TIM_Encoder_InitTypeDef sConfig;
  TIM_MasterConfigTypeDef sMasterConfig;

  htim2.Instance = TIM2;
  htim2.Init.Prescaler = 0;
 8004b66:	f04f 4380 	mov.w	r3, #1073741824	; 0x40000000
 8004b6a:	2400      	movs	r4, #0
  htim2.Instance = TIM2;
 8004b6c:	4814      	ldr	r0, [pc, #80]	; (8004bc0 <MX_TIM2_Init+0x5c>)
{
 8004b6e:	b08c      	sub	sp, #48	; 0x30
  htim2.Init.Prescaler = 0;
 8004b70:	e880 0018 	stmia.w	r0, {r3, r4}
  htim2.Init.CounterMode = TIM_COUNTERMODE_UP;
  htim2.Init.Period = 65535;
 8004b74:	f64f 73ff 	movw	r3, #65535	; 0xffff
 8004b78:	60c3      	str	r3, [r0, #12]
  htim2.Init.ClockDivision = TIM_CLOCKDIVISION_DIV1;
  sConfig.EncoderMode = TIM_ENCODERMODE_TI12;
 8004b7a:	2303      	movs	r3, #3
 8004b7c:	9303      	str	r3, [sp, #12]
  sConfig.IC1Polarity = TIM_ICPOLARITY_RISING;
  sConfig.IC1Selection = TIM_ICSELECTION_DIRECTTI;
 8004b7e:	2301      	movs	r3, #1
  sConfig.IC1Filter = 0;
  sConfig.IC2Polarity = TIM_ICPOLARITY_RISING;
  sConfig.IC2Selection = TIM_ICSELECTION_DIRECTTI;
  sConfig.IC2Prescaler = TIM_ICPSC_DIV1;
  sConfig.IC2Filter = 0;
  if (HAL_TIM_Encoder_Init(&htim2, &sConfig) != HAL_OK)
 8004b80:	a903      	add	r1, sp, #12
  htim2.Init.CounterMode = TIM_COUNTERMODE_UP;
 8004b82:	6084      	str	r4, [r0, #8]
  htim2.Init.ClockDivision = TIM_CLOCKDIVISION_DIV1;
 8004b84:	6104      	str	r4, [r0, #16]
  sConfig.IC1Polarity = TIM_ICPOLARITY_RISING;
 8004b86:	9404      	str	r4, [sp, #16]
  sConfig.IC1Selection = TIM_ICSELECTION_DIRECTTI;
 8004b88:	9305      	str	r3, [sp, #20]
  sConfig.IC1Prescaler = TIM_ICPSC_DIV1;
 8004b8a:	9406      	str	r4, [sp, #24]
  sConfig.IC1Filter = 0;
 8004b8c:	9407      	str	r4, [sp, #28]
  sConfig.IC2Polarity = TIM_ICPOLARITY_RISING;
 8004b8e:	9408      	str	r4, [sp, #32]
  sConfig.IC2Selection = TIM_ICSELECTION_DIRECTTI;
 8004b90:	9309      	str	r3, [sp, #36]	; 0x24
  sConfig.IC2Prescaler = TIM_ICPSC_DIV1;
 8004b92:	940a      	str	r4, [sp, #40]	; 0x28
  sConfig.IC2Filter = 0;
 8004b94:	940b      	str	r4, [sp, #44]	; 0x2c
  if (HAL_TIM_Encoder_Init(&htim2, &sConfig) != HAL_OK)
 8004b96:	f7fd fe8f 	bl	80028b8 <HAL_TIM_Encoder_Init>
 8004b9a:	b118      	cbz	r0, 8004ba4 <MX_TIM2_Init+0x40>
  {
    _Error_Handler(__FILE__, __LINE__);
 8004b9c:	214f      	movs	r1, #79	; 0x4f
 8004b9e:	4809      	ldr	r0, [pc, #36]	; (8004bc4 <MX_TIM2_Init+0x60>)
 8004ba0:	f7ff fe74 	bl	800488c <_Error_Handler>
  }

  sMasterConfig.MasterOutputTrigger = TIM_TRGO_RESET;
  sMasterConfig.MasterSlaveMode = TIM_MASTERSLAVEMODE_DISABLE;
  if (HAL_TIMEx_MasterConfigSynchronization(&htim2, &sMasterConfig) != HAL_OK)
 8004ba4:	a901      	add	r1, sp, #4
 8004ba6:	4806      	ldr	r0, [pc, #24]	; (8004bc0 <MX_TIM2_Init+0x5c>)
  sMasterConfig.MasterOutputTrigger = TIM_TRGO_RESET;
 8004ba8:	9401      	str	r4, [sp, #4]
  sMasterConfig.MasterSlaveMode = TIM_MASTERSLAVEMODE_DISABLE;
 8004baa:	9402      	str	r4, [sp, #8]
  if (HAL_TIMEx_MasterConfigSynchronization(&htim2, &sMasterConfig) != HAL_OK)
 8004bac:	f7fe f942 	bl	8002e34 <HAL_TIMEx_MasterConfigSynchronization>
 8004bb0:	b118      	cbz	r0, 8004bba <MX_TIM2_Init+0x56>
  {
    _Error_Handler(__FILE__, __LINE__);
 8004bb2:	2156      	movs	r1, #86	; 0x56
 8004bb4:	4803      	ldr	r0, [pc, #12]	; (8004bc4 <MX_TIM2_Init+0x60>)
 8004bb6:	f7ff fe69 	bl	800488c <_Error_Handler>
  }

}
 8004bba:	b00c      	add	sp, #48	; 0x30
 8004bbc:	bd10      	pop	{r4, pc}
 8004bbe:	bf00      	nop
 8004bc0:	20000f84 	.word	0x20000f84
 8004bc4:	080078ef 	.word	0x080078ef

08004bc8 <MX_TIM3_Init>:
/* TIM3 init function */
void MX_TIM3_Init(void)
{
 8004bc8:	b510      	push	{r4, lr}
  TIM_Encoder_InitTypeDef sConfig;
  TIM_MasterConfigTypeDef sMasterConfig;

  htim3.Instance = TIM3;
  htim3.Init.Prescaler = 0;
 8004bca:	2400      	movs	r4, #0
  htim3.Instance = TIM3;
 8004bcc:	4814      	ldr	r0, [pc, #80]	; (8004c20 <MX_TIM3_Init+0x58>)
  htim3.Init.Prescaler = 0;
 8004bce:	4b15      	ldr	r3, [pc, #84]	; (8004c24 <MX_TIM3_Init+0x5c>)
{
 8004bd0:	b08c      	sub	sp, #48	; 0x30
  htim3.Init.Prescaler = 0;
 8004bd2:	e880 0018 	stmia.w	r0, {r3, r4}
  htim3.Init.CounterMode = TIM_COUNTERMODE_UP;
  htim3.Init.Period = 65535;
 8004bd6:	f64f 73ff 	movw	r3, #65535	; 0xffff
 8004bda:	60c3      	str	r3, [r0, #12]
  htim3.Init.ClockDivision = TIM_CLOCKDIVISION_DIV1;
  sConfig.EncoderMode = TIM_ENCODERMODE_TI12;
 8004bdc:	2303      	movs	r3, #3
 8004bde:	9303      	str	r3, [sp, #12]
  sConfig.IC1Polarity = TIM_ICPOLARITY_RISING;
  sConfig.IC1Selection = TIM_ICSELECTION_DIRECTTI;
 8004be0:	2301      	movs	r3, #1
  sConfig.IC1Filter = 0;
  sConfig.IC2Polarity = TIM_ICPOLARITY_RISING;
  sConfig.IC2Selection = TIM_ICSELECTION_DIRECTTI;
  sConfig.IC2Prescaler = TIM_ICPSC_DIV1;
  sConfig.IC2Filter = 0;
  if (HAL_TIM_Encoder_Init(&htim3, &sConfig) != HAL_OK)
 8004be2:	a903      	add	r1, sp, #12
  htim3.Init.CounterMode = TIM_COUNTERMODE_UP;
 8004be4:	6084      	str	r4, [r0, #8]
  htim3.Init.ClockDivision = TIM_CLOCKDIVISION_DIV1;
 8004be6:	6104      	str	r4, [r0, #16]
  sConfig.IC1Polarity = TIM_ICPOLARITY_RISING;
 8004be8:	9404      	str	r4, [sp, #16]
  sConfig.IC1Selection = TIM_ICSELECTION_DIRECTTI;
 8004bea:	9305      	str	r3, [sp, #20]
  sConfig.IC1Prescaler = TIM_ICPSC_DIV1;
 8004bec:	9406      	str	r4, [sp, #24]
  sConfig.IC1Filter = 0;
 8004bee:	9407      	str	r4, [sp, #28]
  sConfig.IC2Polarity = TIM_ICPOLARITY_RISING;
 8004bf0:	9408      	str	r4, [sp, #32]
  sConfig.IC2Selection = TIM_ICSELECTION_DIRECTTI;
 8004bf2:	9309      	str	r3, [sp, #36]	; 0x24
  sConfig.IC2Prescaler = TIM_ICPSC_DIV1;
 8004bf4:	940a      	str	r4, [sp, #40]	; 0x28
  sConfig.IC2Filter = 0;
 8004bf6:	940b      	str	r4, [sp, #44]	; 0x2c
  if (HAL_TIM_Encoder_Init(&htim3, &sConfig) != HAL_OK)
 8004bf8:	f7fd fe5e 	bl	80028b8 <HAL_TIM_Encoder_Init>
 8004bfc:	b118      	cbz	r0, 8004c06 <MX_TIM3_Init+0x3e>
  {
    _Error_Handler(__FILE__, __LINE__);
 8004bfe:	2170      	movs	r1, #112	; 0x70
 8004c00:	4809      	ldr	r0, [pc, #36]	; (8004c28 <MX_TIM3_Init+0x60>)
 8004c02:	f7ff fe43 	bl	800488c <_Error_Handler>
  }

  sMasterConfig.MasterOutputTrigger = TIM_TRGO_RESET;
  sMasterConfig.MasterSlaveMode = TIM_MASTERSLAVEMODE_DISABLE;
  if (HAL_TIMEx_MasterConfigSynchronization(&htim3, &sMasterConfig) != HAL_OK)
 8004c06:	a901      	add	r1, sp, #4
 8004c08:	4805      	ldr	r0, [pc, #20]	; (8004c20 <MX_TIM3_Init+0x58>)
  sMasterConfig.MasterOutputTrigger = TIM_TRGO_RESET;
 8004c0a:	9401      	str	r4, [sp, #4]
  sMasterConfig.MasterSlaveMode = TIM_MASTERSLAVEMODE_DISABLE;
 8004c0c:	9402      	str	r4, [sp, #8]
  if (HAL_TIMEx_MasterConfigSynchronization(&htim3, &sMasterConfig) != HAL_OK)
 8004c0e:	f7fe f911 	bl	8002e34 <HAL_TIMEx_MasterConfigSynchronization>
 8004c12:	b118      	cbz	r0, 8004c1c <MX_TIM3_Init+0x54>
  {
    _Error_Handler(__FILE__, __LINE__);
 8004c14:	2177      	movs	r1, #119	; 0x77
 8004c16:	4804      	ldr	r0, [pc, #16]	; (8004c28 <MX_TIM3_Init+0x60>)
 8004c18:	f7ff fe38 	bl	800488c <_Error_Handler>
  }

}
 8004c1c:	b00c      	add	sp, #48	; 0x30
 8004c1e:	bd10      	pop	{r4, pc}
 8004c20:	20000ea4 	.word	0x20000ea4
 8004c24:	40000400 	.word	0x40000400
 8004c28:	080078ef 	.word	0x080078ef

08004c2c <MX_TIM5_Init>:
{
  TIM_ClockConfigTypeDef sClockSourceConfig;
  TIM_MasterConfigTypeDef sMasterConfig;
  TIM_IC_InitTypeDef sConfigIC;

  htim5.Instance = TIM5;
 8004c2c:	4828      	ldr	r0, [pc, #160]	; (8004cd0 <MX_TIM5_Init+0xa4>)
 8004c2e:	4b29      	ldr	r3, [pc, #164]	; (8004cd4 <MX_TIM5_Init+0xa8>)
{
 8004c30:	b500      	push	{lr}
  htim5.Instance = TIM5;
 8004c32:	6003      	str	r3, [r0, #0]
  htim5.Init.Prescaler = 0;
 8004c34:	2300      	movs	r3, #0
  htim5.Init.CounterMode = TIM_COUNTERMODE_UP;
  htim5.Init.Period = 1048575;
 8004c36:	4a28      	ldr	r2, [pc, #160]	; (8004cd8 <MX_TIM5_Init+0xac>)
{
 8004c38:	b08b      	sub	sp, #44	; 0x2c
  htim5.Init.Prescaler = 0;
 8004c3a:	6043      	str	r3, [r0, #4]
  htim5.Init.CounterMode = TIM_COUNTERMODE_UP;
 8004c3c:	6083      	str	r3, [r0, #8]
  htim5.Init.Period = 1048575;
 8004c3e:	60c2      	str	r2, [r0, #12]
  htim5.Init.ClockDivision = TIM_CLOCKDIVISION_DIV1;
 8004c40:	6103      	str	r3, [r0, #16]
  if (HAL_TIM_Base_Init(&htim5) != HAL_OK)
 8004c42:	f7fd fda3 	bl	800278c <HAL_TIM_Base_Init>
 8004c46:	b118      	cbz	r0, 8004c50 <MX_TIM5_Init+0x24>
  {
    _Error_Handler(__FILE__, __LINE__);
 8004c48:	2189      	movs	r1, #137	; 0x89
 8004c4a:	4824      	ldr	r0, [pc, #144]	; (8004cdc <MX_TIM5_Init+0xb0>)
 8004c4c:	f7ff fe1e 	bl	800488c <_Error_Handler>
  }

  sClockSourceConfig.ClockSource = TIM_CLOCKSOURCE_INTERNAL;
 8004c50:	f44f 5380 	mov.w	r3, #4096	; 0x1000
 8004c54:	a90a      	add	r1, sp, #40	; 0x28
 8004c56:	f841 3d20 	str.w	r3, [r1, #-32]!
  if (HAL_TIM_ConfigClockSource(&htim5, &sClockSourceConfig) != HAL_OK)
 8004c5a:	481d      	ldr	r0, [pc, #116]	; (8004cd0 <MX_TIM5_Init+0xa4>)
 8004c5c:	f7fd ffa7 	bl	8002bae <HAL_TIM_ConfigClockSource>
 8004c60:	b118      	cbz	r0, 8004c6a <MX_TIM5_Init+0x3e>
  {
    _Error_Handler(__FILE__, __LINE__);
 8004c62:	218f      	movs	r1, #143	; 0x8f
 8004c64:	481d      	ldr	r0, [pc, #116]	; (8004cdc <MX_TIM5_Init+0xb0>)
 8004c66:	f7ff fe11 	bl	800488c <_Error_Handler>
  }

  if (HAL_TIM_IC_Init(&htim5) != HAL_OK)
 8004c6a:	4819      	ldr	r0, [pc, #100]	; (8004cd0 <MX_TIM5_Init+0xa4>)
 8004c6c:	f7fd fdcf 	bl	800280e <HAL_TIM_IC_Init>
 8004c70:	b118      	cbz	r0, 8004c7a <MX_TIM5_Init+0x4e>
  {
    _Error_Handler(__FILE__, __LINE__);
 8004c72:	2194      	movs	r1, #148	; 0x94
 8004c74:	4819      	ldr	r0, [pc, #100]	; (8004cdc <MX_TIM5_Init+0xb0>)
 8004c76:	f7ff fe09 	bl	800488c <_Error_Handler>
  }

  sMasterConfig.MasterOutputTrigger = TIM_TRGO_RESET;
 8004c7a:	2300      	movs	r3, #0
  sMasterConfig.MasterSlaveMode = TIM_MASTERSLAVEMODE_DISABLE;
  if (HAL_TIMEx_MasterConfigSynchronization(&htim5, &sMasterConfig) != HAL_OK)
 8004c7c:	4669      	mov	r1, sp
 8004c7e:	4814      	ldr	r0, [pc, #80]	; (8004cd0 <MX_TIM5_Init+0xa4>)
  sMasterConfig.MasterOutputTrigger = TIM_TRGO_RESET;
 8004c80:	9300      	str	r3, [sp, #0]
  sMasterConfig.MasterSlaveMode = TIM_MASTERSLAVEMODE_DISABLE;
 8004c82:	9301      	str	r3, [sp, #4]
  if (HAL_TIMEx_MasterConfigSynchronization(&htim5, &sMasterConfig) != HAL_OK)
 8004c84:	f7fe f8d6 	bl	8002e34 <HAL_TIMEx_MasterConfigSynchronization>
 8004c88:	b118      	cbz	r0, 8004c92 <MX_TIM5_Init+0x66>
  {
    _Error_Handler(__FILE__, __LINE__);
 8004c8a:	219b      	movs	r1, #155	; 0x9b
 8004c8c:	4813      	ldr	r0, [pc, #76]	; (8004cdc <MX_TIM5_Init+0xb0>)
 8004c8e:	f7ff fdfd 	bl	800488c <_Error_Handler>
  }

  sConfigIC.ICPolarity = TIM_INPUTCHANNELPOLARITY_BOTHEDGE;
 8004c92:	230a      	movs	r3, #10
 8004c94:	9306      	str	r3, [sp, #24]
  sConfigIC.ICSelection = TIM_ICSELECTION_DIRECTTI;
 8004c96:	2301      	movs	r3, #1
 8004c98:	9307      	str	r3, [sp, #28]
  sConfigIC.ICPrescaler = TIM_ICPSC_DIV1;
 8004c9a:	2300      	movs	r3, #0
  sConfigIC.ICFilter = 0;
  if (HAL_TIM_IC_ConfigChannel(&htim5, &sConfigIC, TIM_CHANNEL_3) != HAL_OK)
 8004c9c:	2208      	movs	r2, #8
 8004c9e:	a906      	add	r1, sp, #24
 8004ca0:	480b      	ldr	r0, [pc, #44]	; (8004cd0 <MX_TIM5_Init+0xa4>)
  sConfigIC.ICPrescaler = TIM_ICPSC_DIV1;
 8004ca2:	9308      	str	r3, [sp, #32]
  sConfigIC.ICFilter = 0;
 8004ca4:	9309      	str	r3, [sp, #36]	; 0x24
  if (HAL_TIM_IC_ConfigChannel(&htim5, &sConfigIC, TIM_CHANNEL_3) != HAL_OK)
 8004ca6:	f7fd fe72 	bl	800298e <HAL_TIM_IC_ConfigChannel>
 8004caa:	b118      	cbz	r0, 8004cb4 <MX_TIM5_Init+0x88>
  {
    _Error_Handler(__FILE__, __LINE__);
 8004cac:	21a4      	movs	r1, #164	; 0xa4
 8004cae:	480b      	ldr	r0, [pc, #44]	; (8004cdc <MX_TIM5_Init+0xb0>)
 8004cb0:	f7ff fdec 	bl	800488c <_Error_Handler>
  }

  if (HAL_TIM_IC_ConfigChannel(&htim5, &sConfigIC, TIM_CHANNEL_4) != HAL_OK)
 8004cb4:	220c      	movs	r2, #12
 8004cb6:	a906      	add	r1, sp, #24
 8004cb8:	4805      	ldr	r0, [pc, #20]	; (8004cd0 <MX_TIM5_Init+0xa4>)
 8004cba:	f7fd fe68 	bl	800298e <HAL_TIM_IC_ConfigChannel>
 8004cbe:	b118      	cbz	r0, 8004cc8 <MX_TIM5_Init+0x9c>
  {
    _Error_Handler(__FILE__, __LINE__);
 8004cc0:	21a9      	movs	r1, #169	; 0xa9
 8004cc2:	4806      	ldr	r0, [pc, #24]	; (8004cdc <MX_TIM5_Init+0xb0>)
 8004cc4:	f7ff fde2 	bl	800488c <_Error_Handler>
  }

}
 8004cc8:	b00b      	add	sp, #44	; 0x2c
 8004cca:	f85d fb04 	ldr.w	pc, [sp], #4
 8004cce:	bf00      	nop
 8004cd0:	20000e6c 	.word	0x20000e6c
 8004cd4:	40000c00 	.word	0x40000c00
 8004cd8:	000fffff 	.word	0x000fffff
 8004cdc:	080078ef 	.word	0x080078ef

08004ce0 <MX_TIM6_Init>:
void MX_TIM6_Init(void)
{
  TIM_MasterConfigTypeDef sMasterConfig;

  htim6.Instance = TIM6;
  htim6.Init.Prescaler = 31999;
 8004ce0:	f647 4cff 	movw	ip, #31999	; 0x7cff
{
 8004ce4:	b513      	push	{r0, r1, r4, lr}
  htim6.Init.Prescaler = 31999;
 8004ce6:	4b0e      	ldr	r3, [pc, #56]	; (8004d20 <MX_TIM6_Init+0x40>)
  htim6.Instance = TIM6;
 8004ce8:	480e      	ldr	r0, [pc, #56]	; (8004d24 <MX_TIM6_Init+0x44>)
  htim6.Init.CounterMode = TIM_COUNTERMODE_UP;
 8004cea:	2400      	movs	r4, #0
  htim6.Init.Prescaler = 31999;
 8004cec:	e880 1008 	stmia.w	r0, {r3, ip}
  htim6.Init.Period = 1;
 8004cf0:	2301      	movs	r3, #1
  htim6.Init.CounterMode = TIM_COUNTERMODE_UP;
 8004cf2:	6084      	str	r4, [r0, #8]
  htim6.Init.Period = 1;
 8004cf4:	60c3      	str	r3, [r0, #12]
  if (HAL_TIM_Base_Init(&htim6) != HAL_OK)
 8004cf6:	f7fd fd49 	bl	800278c <HAL_TIM_Base_Init>
 8004cfa:	b118      	cbz	r0, 8004d04 <MX_TIM6_Init+0x24>
  {
    _Error_Handler(__FILE__, __LINE__);
 8004cfc:	21b8      	movs	r1, #184	; 0xb8
 8004cfe:	480a      	ldr	r0, [pc, #40]	; (8004d28 <MX_TIM6_Init+0x48>)
 8004d00:	f7ff fdc4 	bl	800488c <_Error_Handler>
  }

  sMasterConfig.MasterOutputTrigger = TIM_TRGO_RESET;
  sMasterConfig.MasterSlaveMode = TIM_MASTERSLAVEMODE_DISABLE;
  if (HAL_TIMEx_MasterConfigSynchronization(&htim6, &sMasterConfig) != HAL_OK)
 8004d04:	4669      	mov	r1, sp
 8004d06:	4807      	ldr	r0, [pc, #28]	; (8004d24 <MX_TIM6_Init+0x44>)
  sMasterConfig.MasterOutputTrigger = TIM_TRGO_RESET;
 8004d08:	9400      	str	r4, [sp, #0]
  sMasterConfig.MasterSlaveMode = TIM_MASTERSLAVEMODE_DISABLE;
 8004d0a:	9401      	str	r4, [sp, #4]
  if (HAL_TIMEx_MasterConfigSynchronization(&htim6, &sMasterConfig) != HAL_OK)
 8004d0c:	f7fe f892 	bl	8002e34 <HAL_TIMEx_MasterConfigSynchronization>
 8004d10:	b118      	cbz	r0, 8004d1a <MX_TIM6_Init+0x3a>
  {
    _Error_Handler(__FILE__, __LINE__);
 8004d12:	21bf      	movs	r1, #191	; 0xbf
 8004d14:	4804      	ldr	r0, [pc, #16]	; (8004d28 <MX_TIM6_Init+0x48>)
 8004d16:	f7ff fdb9 	bl	800488c <_Error_Handler>
  }

}
 8004d1a:	b002      	add	sp, #8
 8004d1c:	bd10      	pop	{r4, pc}
 8004d1e:	bf00      	nop
 8004d20:	40001000 	.word	0x40001000
 8004d24:	20000f14 	.word	0x20000f14
 8004d28:	080078ef 	.word	0x080078ef

08004d2c <HAL_TIM_Encoder_MspInit>:
  HAL_TIM_MspPostInit(&htim11);

}

void HAL_TIM_Encoder_MspInit(TIM_HandleTypeDef* tim_encoderHandle)
{
 8004d2c:	b500      	push	{lr}

  GPIO_InitTypeDef GPIO_InitStruct;
  if(tim_encoderHandle->Instance==TIM2)
 8004d2e:	6803      	ldr	r3, [r0, #0]
{
 8004d30:	b089      	sub	sp, #36	; 0x24
  if(tim_encoderHandle->Instance==TIM2)
 8004d32:	f1b3 4f80 	cmp.w	r3, #1073741824	; 0x40000000
 8004d36:	d11a      	bne.n	8004d6e <HAL_TIM_Encoder_MspInit+0x42>
  {
  /* USER CODE BEGIN TIM2_MspInit 0 */

  /* USER CODE END TIM2_MspInit 0 */
    /* TIM2 clock enable */
    __HAL_RCC_TIM2_CLK_ENABLE();
 8004d38:	f503 330e 	add.w	r3, r3, #145408	; 0x23800
 8004d3c:	6a5a      	ldr	r2, [r3, #36]	; 0x24
    GPIO_InitStruct.Pin = GPIO_PIN_1|GPIO_PIN_5;
    GPIO_InitStruct.Mode = GPIO_MODE_AF_PP;
    GPIO_InitStruct.Pull = GPIO_NOPULL;
    GPIO_InitStruct.Speed = GPIO_SPEED_FREQ_LOW;
    GPIO_InitStruct.Alternate = GPIO_AF1_TIM2;
    HAL_GPIO_Init(GPIOA, &GPIO_InitStruct);
 8004d3e:	4818      	ldr	r0, [pc, #96]	; (8004da0 <HAL_TIM_Encoder_MspInit+0x74>)
    __HAL_RCC_TIM2_CLK_ENABLE();
 8004d40:	f042 0201 	orr.w	r2, r2, #1
 8004d44:	625a      	str	r2, [r3, #36]	; 0x24
 8004d46:	6a5b      	ldr	r3, [r3, #36]	; 0x24
    HAL_GPIO_Init(GPIOA, &GPIO_InitStruct);
 8004d48:	a903      	add	r1, sp, #12
    __HAL_RCC_TIM2_CLK_ENABLE();
 8004d4a:	f003 0301 	and.w	r3, r3, #1
 8004d4e:	9301      	str	r3, [sp, #4]
 8004d50:	9b01      	ldr	r3, [sp, #4]
    GPIO_InitStruct.Pin = GPIO_PIN_1|GPIO_PIN_5;
 8004d52:	2322      	movs	r3, #34	; 0x22
 8004d54:	9303      	str	r3, [sp, #12]
    GPIO_InitStruct.Mode = GPIO_MODE_AF_PP;
 8004d56:	2302      	movs	r3, #2
 8004d58:	9304      	str	r3, [sp, #16]
    GPIO_InitStruct.Pull = GPIO_NOPULL;
 8004d5a:	2300      	movs	r3, #0
 8004d5c:	9305      	str	r3, [sp, #20]
    GPIO_InitStruct.Speed = GPIO_SPEED_FREQ_LOW;
 8004d5e:	9306      	str	r3, [sp, #24]
    GPIO_InitStruct.Alternate = GPIO_AF1_TIM2;
 8004d60:	2301      	movs	r3, #1
 8004d62:	9307      	str	r3, [sp, #28]
    GPIO_InitStruct.Pin = GPIO_PIN_6|GPIO_PIN_7;
    GPIO_InitStruct.Mode = GPIO_MODE_AF_PP;
    GPIO_InitStruct.Pull = GPIO_NOPULL;
    GPIO_InitStruct.Speed = GPIO_SPEED_FREQ_LOW;
    GPIO_InitStruct.Alternate = GPIO_AF2_TIM3;
    HAL_GPIO_Init(GPIOC, &GPIO_InitStruct);
 8004d64:	f7fc face 	bl	8001304 <HAL_GPIO_Init>

  /* USER CODE BEGIN TIM3_MspInit 1 */

  /* USER CODE END TIM3_MspInit 1 */
  }
}
 8004d68:	b009      	add	sp, #36	; 0x24
 8004d6a:	f85d fb04 	ldr.w	pc, [sp], #4
  else if(tim_encoderHandle->Instance==TIM3)
 8004d6e:	4a0d      	ldr	r2, [pc, #52]	; (8004da4 <HAL_TIM_Encoder_MspInit+0x78>)
 8004d70:	4293      	cmp	r3, r2
 8004d72:	d1f9      	bne.n	8004d68 <HAL_TIM_Encoder_MspInit+0x3c>
    __HAL_RCC_TIM3_CLK_ENABLE();
 8004d74:	4b0c      	ldr	r3, [pc, #48]	; (8004da8 <HAL_TIM_Encoder_MspInit+0x7c>)
    HAL_GPIO_Init(GPIOC, &GPIO_InitStruct);
 8004d76:	a903      	add	r1, sp, #12
    __HAL_RCC_TIM3_CLK_ENABLE();
 8004d78:	6a5a      	ldr	r2, [r3, #36]	; 0x24
    HAL_GPIO_Init(GPIOC, &GPIO_InitStruct);
 8004d7a:	480c      	ldr	r0, [pc, #48]	; (8004dac <HAL_TIM_Encoder_MspInit+0x80>)
    __HAL_RCC_TIM3_CLK_ENABLE();
 8004d7c:	f042 0202 	orr.w	r2, r2, #2
 8004d80:	625a      	str	r2, [r3, #36]	; 0x24
 8004d82:	6a5b      	ldr	r3, [r3, #36]	; 0x24
    GPIO_InitStruct.Pull = GPIO_NOPULL;
 8004d84:	2200      	movs	r2, #0
    __HAL_RCC_TIM3_CLK_ENABLE();
 8004d86:	f003 0302 	and.w	r3, r3, #2
 8004d8a:	9302      	str	r3, [sp, #8]
 8004d8c:	9b02      	ldr	r3, [sp, #8]
    GPIO_InitStruct.Pin = GPIO_PIN_6|GPIO_PIN_7;
 8004d8e:	23c0      	movs	r3, #192	; 0xc0
 8004d90:	9303      	str	r3, [sp, #12]
    GPIO_InitStruct.Mode = GPIO_MODE_AF_PP;
 8004d92:	2302      	movs	r3, #2
    GPIO_InitStruct.Pull = GPIO_NOPULL;
 8004d94:	9205      	str	r2, [sp, #20]
    GPIO_InitStruct.Mode = GPIO_MODE_AF_PP;
 8004d96:	9304      	str	r3, [sp, #16]
    GPIO_InitStruct.Speed = GPIO_SPEED_FREQ_LOW;
 8004d98:	9206      	str	r2, [sp, #24]
    GPIO_InitStruct.Alternate = GPIO_AF2_TIM3;
 8004d9a:	9307      	str	r3, [sp, #28]
 8004d9c:	e7e2      	b.n	8004d64 <HAL_TIM_Encoder_MspInit+0x38>
 8004d9e:	bf00      	nop
 8004da0:	40020000 	.word	0x40020000
 8004da4:	40000400 	.word	0x40000400
 8004da8:	40023800 	.word	0x40023800
 8004dac:	40020800 	.word	0x40020800

08004db0 <HAL_TIM_Base_MspInit>:

void HAL_TIM_Base_MspInit(TIM_HandleTypeDef* tim_baseHandle)
{
 8004db0:	b500      	push	{lr}

  GPIO_InitTypeDef GPIO_InitStruct;
  if(tim_baseHandle->Instance==TIM5)
 8004db2:	6803      	ldr	r3, [r0, #0]
 8004db4:	4a2e      	ldr	r2, [pc, #184]	; (8004e70 <HAL_TIM_Base_MspInit+0xc0>)
{
 8004db6:	b08b      	sub	sp, #44	; 0x2c
  if(tim_baseHandle->Instance==TIM5)
 8004db8:	4293      	cmp	r3, r2
 8004dba:	d118      	bne.n	8004dee <HAL_TIM_Base_MspInit+0x3e>
  {
  /* USER CODE BEGIN TIM5_MspInit 0 */

  /* USER CODE END TIM5_MspInit 0 */
    /* TIM5 clock enable */
    __HAL_RCC_TIM5_CLK_ENABLE();
 8004dbc:	4b2d      	ldr	r3, [pc, #180]	; (8004e74 <HAL_TIM_Base_MspInit+0xc4>)
    GPIO_InitStruct.Pin = GPIO_PIN_2|GPIO_PIN_3;
    GPIO_InitStruct.Mode = GPIO_MODE_AF_PP;
    GPIO_InitStruct.Pull = GPIO_NOPULL;
    GPIO_InitStruct.Speed = GPIO_SPEED_FREQ_LOW;
    GPIO_InitStruct.Alternate = GPIO_AF2_TIM5;
    HAL_GPIO_Init(GPIOA, &GPIO_InitStruct);
 8004dbe:	a905      	add	r1, sp, #20
    __HAL_RCC_TIM5_CLK_ENABLE();
 8004dc0:	6a5a      	ldr	r2, [r3, #36]	; 0x24
    HAL_GPIO_Init(GPIOA, &GPIO_InitStruct);
 8004dc2:	482d      	ldr	r0, [pc, #180]	; (8004e78 <HAL_TIM_Base_MspInit+0xc8>)
    __HAL_RCC_TIM5_CLK_ENABLE();
 8004dc4:	f042 0208 	orr.w	r2, r2, #8
 8004dc8:	625a      	str	r2, [r3, #36]	; 0x24
 8004dca:	6a5b      	ldr	r3, [r3, #36]	; 0x24
    GPIO_InitStruct.Pull = GPIO_NOPULL;
 8004dcc:	2200      	movs	r2, #0
    __HAL_RCC_TIM5_CLK_ENABLE();
 8004dce:	f003 0308 	and.w	r3, r3, #8
 8004dd2:	9301      	str	r3, [sp, #4]
 8004dd4:	9b01      	ldr	r3, [sp, #4]
    GPIO_InitStruct.Pin = GPIO_PIN_2|GPIO_PIN_3;
 8004dd6:	230c      	movs	r3, #12
 8004dd8:	9305      	str	r3, [sp, #20]
    GPIO_InitStruct.Mode = GPIO_MODE_AF_PP;
 8004dda:	2302      	movs	r3, #2
    GPIO_InitStruct.Pull = GPIO_NOPULL;
 8004ddc:	9207      	str	r2, [sp, #28]
    GPIO_InitStruct.Mode = GPIO_MODE_AF_PP;
 8004dde:	9306      	str	r3, [sp, #24]
    GPIO_InitStruct.Speed = GPIO_SPEED_FREQ_LOW;
 8004de0:	9208      	str	r2, [sp, #32]
    GPIO_InitStruct.Alternate = GPIO_AF2_TIM5;
 8004de2:	9309      	str	r3, [sp, #36]	; 0x24
    HAL_GPIO_Init(GPIOA, &GPIO_InitStruct);
 8004de4:	f7fc fa8e 	bl	8001304 <HAL_GPIO_Init>
    __HAL_RCC_TIM11_CLK_ENABLE();
  /* USER CODE BEGIN TIM11_MspInit 1 */

  /* USER CODE END TIM11_MspInit 1 */
  }
}
 8004de8:	b00b      	add	sp, #44	; 0x2c
 8004dea:	f85d fb04 	ldr.w	pc, [sp], #4
  else if(tim_baseHandle->Instance==TIM6)
 8004dee:	4a23      	ldr	r2, [pc, #140]	; (8004e7c <HAL_TIM_Base_MspInit+0xcc>)
 8004df0:	4293      	cmp	r3, r2
 8004df2:	d112      	bne.n	8004e1a <HAL_TIM_Base_MspInit+0x6a>
    __HAL_RCC_TIM6_CLK_ENABLE();
 8004df4:	4b1f      	ldr	r3, [pc, #124]	; (8004e74 <HAL_TIM_Base_MspInit+0xc4>)
    HAL_NVIC_SetPriority(TIM6_IRQn, 0, 0);
 8004df6:	202b      	movs	r0, #43	; 0x2b
    __HAL_RCC_TIM6_CLK_ENABLE();
 8004df8:	6a5a      	ldr	r2, [r3, #36]	; 0x24
 8004dfa:	f042 0210 	orr.w	r2, r2, #16
 8004dfe:	625a      	str	r2, [r3, #36]	; 0x24
    HAL_NVIC_SetPriority(TIM6_IRQn, 0, 0);
 8004e00:	2200      	movs	r2, #0
    __HAL_RCC_TIM6_CLK_ENABLE();
 8004e02:	6a5b      	ldr	r3, [r3, #36]	; 0x24
    HAL_NVIC_SetPriority(TIM6_IRQn, 0, 0);
 8004e04:	4611      	mov	r1, r2
    __HAL_RCC_TIM6_CLK_ENABLE();
 8004e06:	f003 0310 	and.w	r3, r3, #16
 8004e0a:	9302      	str	r3, [sp, #8]
 8004e0c:	9b02      	ldr	r3, [sp, #8]
    HAL_NVIC_SetPriority(TIM6_IRQn, 0, 0);
 8004e0e:	f7fc fa11 	bl	8001234 <HAL_NVIC_SetPriority>
    HAL_NVIC_EnableIRQ(TIM6_IRQn);
 8004e12:	202b      	movs	r0, #43	; 0x2b
 8004e14:	f7fc fa42 	bl	800129c <HAL_NVIC_EnableIRQ>
 8004e18:	e7e6      	b.n	8004de8 <HAL_TIM_Base_MspInit+0x38>
  else if(tim_baseHandle->Instance==TIM9)
 8004e1a:	4a19      	ldr	r2, [pc, #100]	; (8004e80 <HAL_TIM_Base_MspInit+0xd0>)
 8004e1c:	4293      	cmp	r3, r2
 8004e1e:	d10a      	bne.n	8004e36 <HAL_TIM_Base_MspInit+0x86>
    __HAL_RCC_TIM9_CLK_ENABLE();
 8004e20:	4b14      	ldr	r3, [pc, #80]	; (8004e74 <HAL_TIM_Base_MspInit+0xc4>)
 8004e22:	6a1a      	ldr	r2, [r3, #32]
 8004e24:	f042 0204 	orr.w	r2, r2, #4
 8004e28:	621a      	str	r2, [r3, #32]
 8004e2a:	6a1b      	ldr	r3, [r3, #32]
 8004e2c:	f003 0304 	and.w	r3, r3, #4
 8004e30:	9303      	str	r3, [sp, #12]
 8004e32:	9b03      	ldr	r3, [sp, #12]
 8004e34:	e7d8      	b.n	8004de8 <HAL_TIM_Base_MspInit+0x38>
  else if(tim_baseHandle->Instance==TIM10)
 8004e36:	4a13      	ldr	r2, [pc, #76]	; (8004e84 <HAL_TIM_Base_MspInit+0xd4>)
 8004e38:	4293      	cmp	r3, r2
 8004e3a:	d10a      	bne.n	8004e52 <HAL_TIM_Base_MspInit+0xa2>
    __HAL_RCC_TIM10_CLK_ENABLE();
 8004e3c:	4b0d      	ldr	r3, [pc, #52]	; (8004e74 <HAL_TIM_Base_MspInit+0xc4>)
 8004e3e:	6a1a      	ldr	r2, [r3, #32]
 8004e40:	f042 0208 	orr.w	r2, r2, #8
 8004e44:	621a      	str	r2, [r3, #32]
 8004e46:	6a1b      	ldr	r3, [r3, #32]
 8004e48:	f003 0308 	and.w	r3, r3, #8
 8004e4c:	9304      	str	r3, [sp, #16]
 8004e4e:	9b04      	ldr	r3, [sp, #16]
 8004e50:	e7ca      	b.n	8004de8 <HAL_TIM_Base_MspInit+0x38>
  else if(tim_baseHandle->Instance==TIM11)
 8004e52:	4a0d      	ldr	r2, [pc, #52]	; (8004e88 <HAL_TIM_Base_MspInit+0xd8>)
 8004e54:	4293      	cmp	r3, r2
 8004e56:	d1c7      	bne.n	8004de8 <HAL_TIM_Base_MspInit+0x38>
    __HAL_RCC_TIM11_CLK_ENABLE();
 8004e58:	4b06      	ldr	r3, [pc, #24]	; (8004e74 <HAL_TIM_Base_MspInit+0xc4>)
 8004e5a:	6a1a      	ldr	r2, [r3, #32]
 8004e5c:	f042 0210 	orr.w	r2, r2, #16
 8004e60:	621a      	str	r2, [r3, #32]
 8004e62:	6a1b      	ldr	r3, [r3, #32]
 8004e64:	f003 0310 	and.w	r3, r3, #16
 8004e68:	9305      	str	r3, [sp, #20]
 8004e6a:	9b05      	ldr	r3, [sp, #20]
}
 8004e6c:	e7bc      	b.n	8004de8 <HAL_TIM_Base_MspInit+0x38>
 8004e6e:	bf00      	nop
 8004e70:	40000c00 	.word	0x40000c00
 8004e74:	40023800 	.word	0x40023800
 8004e78:	40020000 	.word	0x40020000
 8004e7c:	40001000 	.word	0x40001000
 8004e80:	40010800 	.word	0x40010800
 8004e84:	40010c00 	.word	0x40010c00
 8004e88:	40011000 	.word	0x40011000

08004e8c <HAL_TIM_MspPostInit>:
void HAL_TIM_MspPostInit(TIM_HandleTypeDef* timHandle)
{
 8004e8c:	b57f      	push	{r0, r1, r2, r3, r4, r5, r6, lr}

  GPIO_InitTypeDef GPIO_InitStruct;
  if(timHandle->Instance==TIM9)
 8004e8e:	6803      	ldr	r3, [r0, #0]
 8004e90:	4a0f      	ldr	r2, [pc, #60]	; (8004ed0 <HAL_TIM_MspPostInit+0x44>)
 8004e92:	4293      	cmp	r3, r2
 8004e94:	d110      	bne.n	8004eb8 <HAL_TIM_MspPostInit+0x2c>
  /* USER CODE END TIM9_MspPostInit 0 */
    /**TIM9 GPIO Configuration    
    PB13     ------> TIM9_CH1
    PB14     ------> TIM9_CH2 
    */
    GPIO_InitStruct.Pin = GPIO_PIN_13|GPIO_PIN_14;
 8004e96:	f44f 43c0 	mov.w	r3, #24576	; 0x6000
  /* USER CODE END TIM11_MspPostInit 0 */
  
    /**TIM11 GPIO Configuration    
    PB9     ------> TIM11_CH1 
    */
    GPIO_InitStruct.Pin = GPIO_PIN_9;
 8004e9a:	9301      	str	r3, [sp, #4]
    GPIO_InitStruct.Mode = GPIO_MODE_AF_PP;
 8004e9c:	2302      	movs	r3, #2
 8004e9e:	9302      	str	r3, [sp, #8]
    GPIO_InitStruct.Pull = GPIO_NOPULL;
 8004ea0:	2300      	movs	r3, #0
 8004ea2:	9303      	str	r3, [sp, #12]
    GPIO_InitStruct.Speed = GPIO_SPEED_FREQ_LOW;
 8004ea4:	9304      	str	r3, [sp, #16]
    GPIO_InitStruct.Alternate = GPIO_AF3_TIM11;
 8004ea6:	2303      	movs	r3, #3
    HAL_GPIO_Init(GPIOB, &GPIO_InitStruct);
 8004ea8:	a901      	add	r1, sp, #4
 8004eaa:	480a      	ldr	r0, [pc, #40]	; (8004ed4 <HAL_TIM_MspPostInit+0x48>)
    GPIO_InitStruct.Alternate = GPIO_AF3_TIM11;
 8004eac:	9305      	str	r3, [sp, #20]
    HAL_GPIO_Init(GPIOB, &GPIO_InitStruct);
 8004eae:	f7fc fa29 	bl	8001304 <HAL_GPIO_Init>
  /* USER CODE BEGIN TIM11_MspPostInit 1 */

  /* USER CODE END TIM11_MspPostInit 1 */
  }

}
 8004eb2:	b007      	add	sp, #28
 8004eb4:	f85d fb04 	ldr.w	pc, [sp], #4
  else if(timHandle->Instance==TIM10)
 8004eb8:	4a07      	ldr	r2, [pc, #28]	; (8004ed8 <HAL_TIM_MspPostInit+0x4c>)
 8004eba:	4293      	cmp	r3, r2
 8004ebc:	d102      	bne.n	8004ec4 <HAL_TIM_MspPostInit+0x38>
    GPIO_InitStruct.Pin = GPIO_PIN_8;
 8004ebe:	f44f 7380 	mov.w	r3, #256	; 0x100
 8004ec2:	e7ea      	b.n	8004e9a <HAL_TIM_MspPostInit+0xe>
  else if(timHandle->Instance==TIM11)
 8004ec4:	4a05      	ldr	r2, [pc, #20]	; (8004edc <HAL_TIM_MspPostInit+0x50>)
 8004ec6:	4293      	cmp	r3, r2
 8004ec8:	d1f3      	bne.n	8004eb2 <HAL_TIM_MspPostInit+0x26>
    GPIO_InitStruct.Pin = GPIO_PIN_9;
 8004eca:	f44f 7300 	mov.w	r3, #512	; 0x200
 8004ece:	e7e4      	b.n	8004e9a <HAL_TIM_MspPostInit+0xe>
 8004ed0:	40010800 	.word	0x40010800
 8004ed4:	40020400 	.word	0x40020400
 8004ed8:	40010c00 	.word	0x40010c00
 8004edc:	40011000 	.word	0x40011000

08004ee0 <MX_TIM9_Init>:
  htim9.Init.Prescaler = 125;
 8004ee0:	237d      	movs	r3, #125	; 0x7d
  htim9.Instance = TIM9;
 8004ee2:	4829      	ldr	r0, [pc, #164]	; (8004f88 <MX_TIM9_Init+0xa8>)
  htim9.Init.Prescaler = 125;
 8004ee4:	4929      	ldr	r1, [pc, #164]	; (8004f8c <MX_TIM9_Init+0xac>)
{
 8004ee6:	b500      	push	{lr}
  htim9.Init.Period = 1024;
 8004ee8:	f44f 6280 	mov.w	r2, #1024	; 0x400
  htim9.Init.Prescaler = 125;
 8004eec:	e880 000a 	stmia.w	r0, {r1, r3}
  htim9.Init.CounterMode = TIM_COUNTERMODE_UP;
 8004ef0:	2300      	movs	r3, #0
{
 8004ef2:	b08d      	sub	sp, #52	; 0x34
  htim9.Init.CounterMode = TIM_COUNTERMODE_UP;
 8004ef4:	6083      	str	r3, [r0, #8]
  htim9.Init.Period = 1024;
 8004ef6:	60c2      	str	r2, [r0, #12]
  htim9.Init.ClockDivision = TIM_CLOCKDIVISION_DIV1;
 8004ef8:	6103      	str	r3, [r0, #16]
  if (HAL_TIM_Base_Init(&htim9) != HAL_OK)
 8004efa:	f7fd fc47 	bl	800278c <HAL_TIM_Base_Init>
 8004efe:	b118      	cbz	r0, 8004f08 <MX_TIM9_Init+0x28>
    _Error_Handler(__FILE__, __LINE__);
 8004f00:	21d1      	movs	r1, #209	; 0xd1
 8004f02:	4823      	ldr	r0, [pc, #140]	; (8004f90 <MX_TIM9_Init+0xb0>)
 8004f04:	f7ff fcc2 	bl	800488c <_Error_Handler>
  sClockSourceConfig.ClockSource = TIM_CLOCKSOURCE_INTERNAL;
 8004f08:	f44f 5380 	mov.w	r3, #4096	; 0x1000
 8004f0c:	a90c      	add	r1, sp, #48	; 0x30
 8004f0e:	f841 3d24 	str.w	r3, [r1, #-36]!
  if (HAL_TIM_ConfigClockSource(&htim9, &sClockSourceConfig) != HAL_OK)
 8004f12:	481d      	ldr	r0, [pc, #116]	; (8004f88 <MX_TIM9_Init+0xa8>)
 8004f14:	f7fd fe4b 	bl	8002bae <HAL_TIM_ConfigClockSource>
 8004f18:	b118      	cbz	r0, 8004f22 <MX_TIM9_Init+0x42>
    _Error_Handler(__FILE__, __LINE__);
 8004f1a:	21d7      	movs	r1, #215	; 0xd7
 8004f1c:	481c      	ldr	r0, [pc, #112]	; (8004f90 <MX_TIM9_Init+0xb0>)
 8004f1e:	f7ff fcb5 	bl	800488c <_Error_Handler>
  if (HAL_TIM_PWM_Init(&htim9) != HAL_OK)
 8004f22:	4819      	ldr	r0, [pc, #100]	; (8004f88 <MX_TIM9_Init+0xa8>)
 8004f24:	f7fd fc58 	bl	80027d8 <HAL_TIM_PWM_Init>
 8004f28:	b118      	cbz	r0, 8004f32 <MX_TIM9_Init+0x52>
    _Error_Handler(__FILE__, __LINE__);
 8004f2a:	21dc      	movs	r1, #220	; 0xdc
 8004f2c:	4818      	ldr	r0, [pc, #96]	; (8004f90 <MX_TIM9_Init+0xb0>)
 8004f2e:	f7ff fcad 	bl	800488c <_Error_Handler>
  sMasterConfig.MasterOutputTrigger = TIM_TRGO_RESET;
 8004f32:	2300      	movs	r3, #0
  if (HAL_TIMEx_MasterConfigSynchronization(&htim9, &sMasterConfig) != HAL_OK)
 8004f34:	a901      	add	r1, sp, #4
 8004f36:	4814      	ldr	r0, [pc, #80]	; (8004f88 <MX_TIM9_Init+0xa8>)
  sMasterConfig.MasterOutputTrigger = TIM_TRGO_RESET;
 8004f38:	9301      	str	r3, [sp, #4]
  sMasterConfig.MasterSlaveMode = TIM_MASTERSLAVEMODE_DISABLE;
 8004f3a:	9302      	str	r3, [sp, #8]
  if (HAL_TIMEx_MasterConfigSynchronization(&htim9, &sMasterConfig) != HAL_OK)
 8004f3c:	f7fd ff7a 	bl	8002e34 <HAL_TIMEx_MasterConfigSynchronization>
 8004f40:	b118      	cbz	r0, 8004f4a <MX_TIM9_Init+0x6a>
    _Error_Handler(__FILE__, __LINE__);
 8004f42:	21e3      	movs	r1, #227	; 0xe3
 8004f44:	4812      	ldr	r0, [pc, #72]	; (8004f90 <MX_TIM9_Init+0xb0>)
 8004f46:	f7ff fca1 	bl	800488c <_Error_Handler>
  sConfigOC.Pulse = 0;
 8004f4a:	2200      	movs	r2, #0
  sConfigOC.OCMode = TIM_OCMODE_PWM1;
 8004f4c:	2360      	movs	r3, #96	; 0x60
  if (HAL_TIM_PWM_ConfigChannel(&htim9, &sConfigOC, TIM_CHANNEL_1) != HAL_OK)
 8004f4e:	a907      	add	r1, sp, #28
 8004f50:	480d      	ldr	r0, [pc, #52]	; (8004f88 <MX_TIM9_Init+0xa8>)
  sConfigOC.OCMode = TIM_OCMODE_PWM1;
 8004f52:	9307      	str	r3, [sp, #28]
  sConfigOC.Pulse = 0;
 8004f54:	9208      	str	r2, [sp, #32]
  sConfigOC.OCPolarity = TIM_OCPOLARITY_HIGH;
 8004f56:	9209      	str	r2, [sp, #36]	; 0x24
  sConfigOC.OCFastMode = TIM_OCFAST_DISABLE;
 8004f58:	920a      	str	r2, [sp, #40]	; 0x28
  if (HAL_TIM_PWM_ConfigChannel(&htim9, &sConfigOC, TIM_CHANNEL_1) != HAL_OK)
 8004f5a:	f7fd fda0 	bl	8002a9e <HAL_TIM_PWM_ConfigChannel>
 8004f5e:	b118      	cbz	r0, 8004f68 <MX_TIM9_Init+0x88>
    _Error_Handler(__FILE__, __LINE__);
 8004f60:	21ec      	movs	r1, #236	; 0xec
 8004f62:	480b      	ldr	r0, [pc, #44]	; (8004f90 <MX_TIM9_Init+0xb0>)
 8004f64:	f7ff fc92 	bl	800488c <_Error_Handler>
  if (HAL_TIM_PWM_ConfigChannel(&htim9, &sConfigOC, TIM_CHANNEL_2) != HAL_OK)
 8004f68:	2204      	movs	r2, #4
 8004f6a:	a907      	add	r1, sp, #28
 8004f6c:	4806      	ldr	r0, [pc, #24]	; (8004f88 <MX_TIM9_Init+0xa8>)
 8004f6e:	f7fd fd96 	bl	8002a9e <HAL_TIM_PWM_ConfigChannel>
 8004f72:	b118      	cbz	r0, 8004f7c <MX_TIM9_Init+0x9c>
    _Error_Handler(__FILE__, __LINE__);
 8004f74:	21f1      	movs	r1, #241	; 0xf1
 8004f76:	4806      	ldr	r0, [pc, #24]	; (8004f90 <MX_TIM9_Init+0xb0>)
 8004f78:	f7ff fc88 	bl	800488c <_Error_Handler>
  HAL_TIM_MspPostInit(&htim9);
 8004f7c:	4802      	ldr	r0, [pc, #8]	; (8004f88 <MX_TIM9_Init+0xa8>)
 8004f7e:	f7ff ff85 	bl	8004e8c <HAL_TIM_MspPostInit>
}
 8004f82:	b00d      	add	sp, #52	; 0x34
 8004f84:	f85d fb04 	ldr.w	pc, [sp], #4
 8004f88:	20000f4c 	.word	0x20000f4c
 8004f8c:	40010800 	.word	0x40010800
 8004f90:	080078ef 	.word	0x080078ef

08004f94 <MX_TIM10_Init>:
  htim10.Init.Prescaler = 16;
 8004f94:	2310      	movs	r3, #16
  htim10.Instance = TIM10;
 8004f96:	4820      	ldr	r0, [pc, #128]	; (8005018 <MX_TIM10_Init+0x84>)
  htim10.Init.Prescaler = 16;
 8004f98:	4920      	ldr	r1, [pc, #128]	; (800501c <MX_TIM10_Init+0x88>)
{
 8004f9a:	b500      	push	{lr}
  htim10.Init.Period = 2000;
 8004f9c:	f44f 62fa 	mov.w	r2, #2000	; 0x7d0
  htim10.Init.Prescaler = 16;
 8004fa0:	e880 000a 	stmia.w	r0, {r1, r3}
  htim10.Init.CounterMode = TIM_COUNTERMODE_UP;
 8004fa4:	2300      	movs	r3, #0
{
 8004fa6:	b08b      	sub	sp, #44	; 0x2c
  htim10.Init.CounterMode = TIM_COUNTERMODE_UP;
 8004fa8:	6083      	str	r3, [r0, #8]
  htim10.Init.Period = 2000;
 8004faa:	60c2      	str	r2, [r0, #12]
  htim10.Init.ClockDivision = TIM_CLOCKDIVISION_DIV1;
 8004fac:	6103      	str	r3, [r0, #16]
  if (HAL_TIM_Base_Init(&htim10) != HAL_OK)
 8004fae:	f7fd fbed 	bl	800278c <HAL_TIM_Base_Init>
 8004fb2:	b120      	cbz	r0, 8004fbe <MX_TIM10_Init+0x2a>
    _Error_Handler(__FILE__, __LINE__);
 8004fb4:	f44f 7182 	mov.w	r1, #260	; 0x104
 8004fb8:	4819      	ldr	r0, [pc, #100]	; (8005020 <MX_TIM10_Init+0x8c>)
 8004fba:	f7ff fc67 	bl	800488c <_Error_Handler>
  sClockSourceConfig.ClockSource = TIM_CLOCKSOURCE_INTERNAL;
 8004fbe:	f44f 5380 	mov.w	r3, #4096	; 0x1000
 8004fc2:	a90a      	add	r1, sp, #40	; 0x28
 8004fc4:	f841 3d24 	str.w	r3, [r1, #-36]!
  if (HAL_TIM_ConfigClockSource(&htim10, &sClockSourceConfig) != HAL_OK)
 8004fc8:	4813      	ldr	r0, [pc, #76]	; (8005018 <MX_TIM10_Init+0x84>)
 8004fca:	f7fd fdf0 	bl	8002bae <HAL_TIM_ConfigClockSource>
 8004fce:	b120      	cbz	r0, 8004fda <MX_TIM10_Init+0x46>
    _Error_Handler(__FILE__, __LINE__);
 8004fd0:	f44f 7185 	mov.w	r1, #266	; 0x10a
 8004fd4:	4812      	ldr	r0, [pc, #72]	; (8005020 <MX_TIM10_Init+0x8c>)
 8004fd6:	f7ff fc59 	bl	800488c <_Error_Handler>
  if (HAL_TIM_PWM_Init(&htim10) != HAL_OK)
 8004fda:	480f      	ldr	r0, [pc, #60]	; (8005018 <MX_TIM10_Init+0x84>)
 8004fdc:	f7fd fbfc 	bl	80027d8 <HAL_TIM_PWM_Init>
 8004fe0:	b120      	cbz	r0, 8004fec <MX_TIM10_Init+0x58>
    _Error_Handler(__FILE__, __LINE__);
 8004fe2:	f240 110f 	movw	r1, #271	; 0x10f
 8004fe6:	480e      	ldr	r0, [pc, #56]	; (8005020 <MX_TIM10_Init+0x8c>)
 8004fe8:	f7ff fc50 	bl	800488c <_Error_Handler>
  sConfigOC.Pulse = 0;
 8004fec:	2200      	movs	r2, #0
  sConfigOC.OCMode = TIM_OCMODE_PWM1;
 8004fee:	2360      	movs	r3, #96	; 0x60
  if (HAL_TIM_PWM_ConfigChannel(&htim10, &sConfigOC, TIM_CHANNEL_1) != HAL_OK)
 8004ff0:	a905      	add	r1, sp, #20
 8004ff2:	4809      	ldr	r0, [pc, #36]	; (8005018 <MX_TIM10_Init+0x84>)
  sConfigOC.OCMode = TIM_OCMODE_PWM1;
 8004ff4:	9305      	str	r3, [sp, #20]
  sConfigOC.Pulse = 0;
 8004ff6:	9206      	str	r2, [sp, #24]
  sConfigOC.OCPolarity = TIM_OCPOLARITY_HIGH;
 8004ff8:	9207      	str	r2, [sp, #28]
  sConfigOC.OCFastMode = TIM_OCFAST_DISABLE;
 8004ffa:	9208      	str	r2, [sp, #32]
  if (HAL_TIM_PWM_ConfigChannel(&htim10, &sConfigOC, TIM_CHANNEL_1) != HAL_OK)
 8004ffc:	f7fd fd4f 	bl	8002a9e <HAL_TIM_PWM_ConfigChannel>
 8005000:	b120      	cbz	r0, 800500c <MX_TIM10_Init+0x78>
    _Error_Handler(__FILE__, __LINE__);
 8005002:	f44f 718c 	mov.w	r1, #280	; 0x118
 8005006:	4806      	ldr	r0, [pc, #24]	; (8005020 <MX_TIM10_Init+0x8c>)
 8005008:	f7ff fc40 	bl	800488c <_Error_Handler>
  HAL_TIM_MspPostInit(&htim10);
 800500c:	4802      	ldr	r0, [pc, #8]	; (8005018 <MX_TIM10_Init+0x84>)
 800500e:	f7ff ff3d 	bl	8004e8c <HAL_TIM_MspPostInit>
}
 8005012:	b00b      	add	sp, #44	; 0x2c
 8005014:	f85d fb04 	ldr.w	pc, [sp], #4
 8005018:	20000e34 	.word	0x20000e34
 800501c:	40010c00 	.word	0x40010c00
 8005020:	080078ef 	.word	0x080078ef

08005024 <MX_TIM11_Init>:
  htim11.Init.Prescaler = 16;
 8005024:	2310      	movs	r3, #16
  htim11.Instance = TIM11;
 8005026:	4820      	ldr	r0, [pc, #128]	; (80050a8 <MX_TIM11_Init+0x84>)
  htim11.Init.Prescaler = 16;
 8005028:	4920      	ldr	r1, [pc, #128]	; (80050ac <MX_TIM11_Init+0x88>)
{
 800502a:	b500      	push	{lr}
  htim11.Init.Period = 2000;
 800502c:	f44f 62fa 	mov.w	r2, #2000	; 0x7d0
  htim11.Init.Prescaler = 16;
 8005030:	e880 000a 	stmia.w	r0, {r1, r3}
  htim11.Init.CounterMode = TIM_COUNTERMODE_UP;
 8005034:	2300      	movs	r3, #0
{
 8005036:	b08b      	sub	sp, #44	; 0x2c
  htim11.Init.CounterMode = TIM_COUNTERMODE_UP;
 8005038:	6083      	str	r3, [r0, #8]
  htim11.Init.Period = 2000;
 800503a:	60c2      	str	r2, [r0, #12]
  htim11.Init.ClockDivision = TIM_CLOCKDIVISION_DIV1;
 800503c:	6103      	str	r3, [r0, #16]
  if (HAL_TIM_Base_Init(&htim11) != HAL_OK)
 800503e:	f7fd fba5 	bl	800278c <HAL_TIM_Base_Init>
 8005042:	b120      	cbz	r0, 800504e <MX_TIM11_Init+0x2a>
    _Error_Handler(__FILE__, __LINE__);
 8005044:	f240 112b 	movw	r1, #299	; 0x12b
 8005048:	4819      	ldr	r0, [pc, #100]	; (80050b0 <MX_TIM11_Init+0x8c>)
 800504a:	f7ff fc1f 	bl	800488c <_Error_Handler>
  sClockSourceConfig.ClockSource = TIM_CLOCKSOURCE_INTERNAL;
 800504e:	f44f 5380 	mov.w	r3, #4096	; 0x1000
 8005052:	a90a      	add	r1, sp, #40	; 0x28
 8005054:	f841 3d24 	str.w	r3, [r1, #-36]!
  if (HAL_TIM_ConfigClockSource(&htim11, &sClockSourceConfig) != HAL_OK)
 8005058:	4813      	ldr	r0, [pc, #76]	; (80050a8 <MX_TIM11_Init+0x84>)
 800505a:	f7fd fda8 	bl	8002bae <HAL_TIM_ConfigClockSource>
 800505e:	b120      	cbz	r0, 800506a <MX_TIM11_Init+0x46>
    _Error_Handler(__FILE__, __LINE__);
 8005060:	f240 1131 	movw	r1, #305	; 0x131
 8005064:	4812      	ldr	r0, [pc, #72]	; (80050b0 <MX_TIM11_Init+0x8c>)
 8005066:	f7ff fc11 	bl	800488c <_Error_Handler>
  if (HAL_TIM_PWM_Init(&htim11) != HAL_OK)
 800506a:	480f      	ldr	r0, [pc, #60]	; (80050a8 <MX_TIM11_Init+0x84>)
 800506c:	f7fd fbb4 	bl	80027d8 <HAL_TIM_PWM_Init>
 8005070:	b120      	cbz	r0, 800507c <MX_TIM11_Init+0x58>
    _Error_Handler(__FILE__, __LINE__);
 8005072:	f44f 719b 	mov.w	r1, #310	; 0x136
 8005076:	480e      	ldr	r0, [pc, #56]	; (80050b0 <MX_TIM11_Init+0x8c>)
 8005078:	f7ff fc08 	bl	800488c <_Error_Handler>
  sConfigOC.Pulse = 0;
 800507c:	2200      	movs	r2, #0
  sConfigOC.OCMode = TIM_OCMODE_PWM1;
 800507e:	2360      	movs	r3, #96	; 0x60
  if (HAL_TIM_PWM_ConfigChannel(&htim11, &sConfigOC, TIM_CHANNEL_1) != HAL_OK)
 8005080:	a905      	add	r1, sp, #20
 8005082:	4809      	ldr	r0, [pc, #36]	; (80050a8 <MX_TIM11_Init+0x84>)
  sConfigOC.OCMode = TIM_OCMODE_PWM1;
 8005084:	9305      	str	r3, [sp, #20]
  sConfigOC.Pulse = 0;
 8005086:	9206      	str	r2, [sp, #24]
  sConfigOC.OCPolarity = TIM_OCPOLARITY_HIGH;
 8005088:	9207      	str	r2, [sp, #28]
  sConfigOC.OCFastMode = TIM_OCFAST_DISABLE;
 800508a:	9208      	str	r2, [sp, #32]
  if (HAL_TIM_PWM_ConfigChannel(&htim11, &sConfigOC, TIM_CHANNEL_1) != HAL_OK)
 800508c:	f7fd fd07 	bl	8002a9e <HAL_TIM_PWM_ConfigChannel>
 8005090:	b120      	cbz	r0, 800509c <MX_TIM11_Init+0x78>
    _Error_Handler(__FILE__, __LINE__);
 8005092:	f240 113f 	movw	r1, #319	; 0x13f
 8005096:	4806      	ldr	r0, [pc, #24]	; (80050b0 <MX_TIM11_Init+0x8c>)
 8005098:	f7ff fbf8 	bl	800488c <_Error_Handler>
  HAL_TIM_MspPostInit(&htim11);
 800509c:	4802      	ldr	r0, [pc, #8]	; (80050a8 <MX_TIM11_Init+0x84>)
 800509e:	f7ff fef5 	bl	8004e8c <HAL_TIM_MspPostInit>
}
 80050a2:	b00b      	add	sp, #44	; 0x2c
 80050a4:	f85d fb04 	ldr.w	pc, [sp], #4
 80050a8:	20000edc 	.word	0x20000edc
 80050ac:	40011000 	.word	0x40011000
 80050b0:	080078ef 	.word	0x080078ef

080050b4 <MX_USART1_UART_Init>:
UART_HandleTypeDef huart1;

/* USART1 init function */

void MX_USART1_UART_Init(void)
{
 80050b4:	b508      	push	{r3, lr}

  huart1.Instance = USART1;
  huart1.Init.BaudRate = 9600;
 80050b6:	f44f 5e16 	mov.w	lr, #9600	; 0x2580
  huart1.Instance = USART1;
 80050ba:	480b      	ldr	r0, [pc, #44]	; (80050e8 <MX_USART1_UART_Init+0x34>)
  huart1.Init.BaudRate = 9600;
 80050bc:	4b0b      	ldr	r3, [pc, #44]	; (80050ec <MX_USART1_UART_Init+0x38>)
  huart1.Init.WordLength = UART_WORDLENGTH_8B;
  huart1.Init.StopBits = UART_STOPBITS_1;
  huart1.Init.Parity = UART_PARITY_NONE;
  huart1.Init.Mode = UART_MODE_TX_RX;
 80050be:	220c      	movs	r2, #12
  huart1.Init.BaudRate = 9600;
 80050c0:	e880 4008 	stmia.w	r0, {r3, lr}
  huart1.Init.WordLength = UART_WORDLENGTH_8B;
 80050c4:	2300      	movs	r3, #0
  huart1.Init.Mode = UART_MODE_TX_RX;
 80050c6:	6142      	str	r2, [r0, #20]
  huart1.Init.WordLength = UART_WORDLENGTH_8B;
 80050c8:	6083      	str	r3, [r0, #8]
  huart1.Init.StopBits = UART_STOPBITS_1;
 80050ca:	60c3      	str	r3, [r0, #12]
  huart1.Init.Parity = UART_PARITY_NONE;
 80050cc:	6103      	str	r3, [r0, #16]
  huart1.Init.HwFlowCtl = UART_HWCONTROL_NONE;
 80050ce:	6183      	str	r3, [r0, #24]
  huart1.Init.OverSampling = UART_OVERSAMPLING_16;
 80050d0:	61c3      	str	r3, [r0, #28]
  if (HAL_UART_Init(&huart1) != HAL_OK)
 80050d2:	f7fe f823 	bl	800311c <HAL_UART_Init>
 80050d6:	b128      	cbz	r0, 80050e4 <MX_USART1_UART_Init+0x30>
  {
    _Error_Handler(__FILE__, __LINE__);
  }

}
 80050d8:	e8bd 4008 	ldmia.w	sp!, {r3, lr}
    _Error_Handler(__FILE__, __LINE__);
 80050dc:	2142      	movs	r1, #66	; 0x42
 80050de:	4804      	ldr	r0, [pc, #16]	; (80050f0 <MX_USART1_UART_Init+0x3c>)
 80050e0:	f7ff bbd4 	b.w	800488c <_Error_Handler>
 80050e4:	bd08      	pop	{r3, pc}
 80050e6:	bf00      	nop
 80050e8:	20000fbc 	.word	0x20000fbc
 80050ec:	40013800 	.word	0x40013800
 80050f0:	080078fc 	.word	0x080078fc

080050f4 <HAL_UART_MspInit>:

void HAL_UART_MspInit(UART_HandleTypeDef* uartHandle)
{
 80050f4:	b57f      	push	{r0, r1, r2, r3, r4, r5, r6, lr}

  GPIO_InitTypeDef GPIO_InitStruct;
  if(uartHandle->Instance==USART1)
 80050f6:	6802      	ldr	r2, [r0, #0]
 80050f8:	4b13      	ldr	r3, [pc, #76]	; (8005148 <HAL_UART_MspInit+0x54>)
 80050fa:	429a      	cmp	r2, r3
 80050fc:	d120      	bne.n	8005140 <HAL_UART_MspInit+0x4c>
  {
  /* USER CODE BEGIN USART1_MspInit 0 */

  /* USER CODE END USART1_MspInit 0 */
    /* USART1 clock enable */
    __HAL_RCC_USART1_CLK_ENABLE();
 80050fe:	f503 3380 	add.w	r3, r3, #65536	; 0x10000
 8005102:	6a1a      	ldr	r2, [r3, #32]
    GPIO_InitStruct.Pin = GPIO_PIN_6|GPIO_PIN_7;
    GPIO_InitStruct.Mode = GPIO_MODE_AF_PP;
    GPIO_InitStruct.Pull = GPIO_PULLUP;
    GPIO_InitStruct.Speed = GPIO_SPEED_FREQ_VERY_HIGH;
    GPIO_InitStruct.Alternate = GPIO_AF7_USART1;
    HAL_GPIO_Init(GPIOB, &GPIO_InitStruct);
 8005104:	a901      	add	r1, sp, #4
    __HAL_RCC_USART1_CLK_ENABLE();
 8005106:	f442 4280 	orr.w	r2, r2, #16384	; 0x4000
 800510a:	621a      	str	r2, [r3, #32]
 800510c:	6a1b      	ldr	r3, [r3, #32]
    HAL_GPIO_Init(GPIOB, &GPIO_InitStruct);
 800510e:	480f      	ldr	r0, [pc, #60]	; (800514c <HAL_UART_MspInit+0x58>)
    __HAL_RCC_USART1_CLK_ENABLE();
 8005110:	f403 4380 	and.w	r3, r3, #16384	; 0x4000
 8005114:	9300      	str	r3, [sp, #0]
 8005116:	9b00      	ldr	r3, [sp, #0]
    GPIO_InitStruct.Pin = GPIO_PIN_6|GPIO_PIN_7;
 8005118:	23c0      	movs	r3, #192	; 0xc0
 800511a:	9301      	str	r3, [sp, #4]
    GPIO_InitStruct.Mode = GPIO_MODE_AF_PP;
 800511c:	2302      	movs	r3, #2
 800511e:	9302      	str	r3, [sp, #8]
    GPIO_InitStruct.Pull = GPIO_PULLUP;
 8005120:	2301      	movs	r3, #1
 8005122:	9303      	str	r3, [sp, #12]
    GPIO_InitStruct.Speed = GPIO_SPEED_FREQ_VERY_HIGH;
 8005124:	2303      	movs	r3, #3
 8005126:	9304      	str	r3, [sp, #16]
    GPIO_InitStruct.Alternate = GPIO_AF7_USART1;
 8005128:	2307      	movs	r3, #7
 800512a:	9305      	str	r3, [sp, #20]
    HAL_GPIO_Init(GPIOB, &GPIO_InitStruct);
 800512c:	f7fc f8ea 	bl	8001304 <HAL_GPIO_Init>

    /* USART1 interrupt Init */
    HAL_NVIC_SetPriority(USART1_IRQn, 0, 0);
 8005130:	2200      	movs	r2, #0
 8005132:	2025      	movs	r0, #37	; 0x25
 8005134:	4611      	mov	r1, r2
 8005136:	f7fc f87d 	bl	8001234 <HAL_NVIC_SetPriority>
    HAL_NVIC_EnableIRQ(USART1_IRQn);
 800513a:	2025      	movs	r0, #37	; 0x25
 800513c:	f7fc f8ae 	bl	800129c <HAL_NVIC_EnableIRQ>
  /* USER CODE BEGIN USART1_MspInit 1 */

  /* USER CODE END USART1_MspInit 1 */
  }
}
 8005140:	b007      	add	sp, #28
 8005142:	f85d fb04 	ldr.w	pc, [sp], #4
 8005146:	bf00      	nop
 8005148:	40013800 	.word	0x40013800
 800514c:	40020400 	.word	0x40020400

08005150 <Reset_Handler>:
  .weak Reset_Handler
  .type Reset_Handler, %function
Reset_Handler:

/* Copy the data segment initializers from flash to SRAM */
  movs r1, #0
 8005150:	2100      	movs	r1, #0
  b LoopCopyDataInit
 8005152:	e003      	b.n	800515c <LoopCopyDataInit>

08005154 <CopyDataInit>:

CopyDataInit:
  ldr r3, =_sidata
 8005154:	4b0b      	ldr	r3, [pc, #44]	; (8005184 <LoopFillZerobss+0x14>)
  ldr r3, [r3, r1]
 8005156:	585b      	ldr	r3, [r3, r1]
  str r3, [r0, r1]
 8005158:	5043      	str	r3, [r0, r1]
  adds r1, r1, #4
 800515a:	3104      	adds	r1, #4

0800515c <LoopCopyDataInit>:

LoopCopyDataInit:
  ldr r0, =_sdata
 800515c:	480a      	ldr	r0, [pc, #40]	; (8005188 <LoopFillZerobss+0x18>)
  ldr r3, =_edata
 800515e:	4b0b      	ldr	r3, [pc, #44]	; (800518c <LoopFillZerobss+0x1c>)
  adds r2, r0, r1
 8005160:	1842      	adds	r2, r0, r1
  cmp r2, r3
 8005162:	429a      	cmp	r2, r3
  bcc CopyDataInit
 8005164:	d3f6      	bcc.n	8005154 <CopyDataInit>
  ldr r2, =_sbss
 8005166:	4a0a      	ldr	r2, [pc, #40]	; (8005190 <LoopFillZerobss+0x20>)
  b LoopFillZerobss
 8005168:	e002      	b.n	8005170 <LoopFillZerobss>

0800516a <FillZerobss>:
/* Zero fill the bss segment. */
FillZerobss:
  movs r3, #0
 800516a:	2300      	movs	r3, #0
  str r3, [r2], #4
 800516c:	f842 3b04 	str.w	r3, [r2], #4

08005170 <LoopFillZerobss>:

LoopFillZerobss:
  ldr r3, = _ebss
 8005170:	4b08      	ldr	r3, [pc, #32]	; (8005194 <LoopFillZerobss+0x24>)
  cmp r2, r3
 8005172:	429a      	cmp	r2, r3
  bcc FillZerobss
 8005174:	d3f9      	bcc.n	800516a <FillZerobss>

/* Call the clock system intitialization function.*/
    bl  SystemInit
 8005176:	f7ff fcd1 	bl	8004b1c <SystemInit>
/* Call static constructors */
    bl __libc_init_array
 800517a:	f000 f815 	bl	80051a8 <__libc_init_array>
/* Call the application's entry point.*/
  bl main
 800517e:	f7ff fb55 	bl	800482c <main>
  bx lr
 8005182:	4770      	bx	lr
  ldr r3, =_sidata
 8005184:	08007bb0 	.word	0x08007bb0
  ldr r0, =_sdata
 8005188:	20000000 	.word	0x20000000
  ldr r3, =_edata
 800518c:	200001d8 	.word	0x200001d8
  ldr r2, =_sbss
 8005190:	200001d8 	.word	0x200001d8
  ldr r3, = _ebss
 8005194:	20001000 	.word	0x20001000

08005198 <ADC1_IRQHandler>:
 * @retval : None
*/
    .section .text.Default_Handler,"ax",%progbits
Default_Handler:
Infinite_Loop:
  b Infinite_Loop
 8005198:	e7fe      	b.n	8005198 <ADC1_IRQHandler>

0800519a <atof>:
 800519a:	2100      	movs	r1, #0
 800519c:	f000 bf94 	b.w	80060c8 <strtod>

080051a0 <atoi>:
 80051a0:	220a      	movs	r2, #10
 80051a2:	2100      	movs	r1, #0
 80051a4:	f001 b876 	b.w	8006294 <strtol>

080051a8 <__libc_init_array>:
 80051a8:	b570      	push	{r4, r5, r6, lr}
 80051aa:	2500      	movs	r5, #0
 80051ac:	4e0c      	ldr	r6, [pc, #48]	; (80051e0 <__libc_init_array+0x38>)
 80051ae:	4c0d      	ldr	r4, [pc, #52]	; (80051e4 <__libc_init_array+0x3c>)
 80051b0:	1ba4      	subs	r4, r4, r6
 80051b2:	10a4      	asrs	r4, r4, #2
 80051b4:	42a5      	cmp	r5, r4
 80051b6:	d109      	bne.n	80051cc <__libc_init_array+0x24>
 80051b8:	f002 fb14 	bl	80077e4 <_init>
 80051bc:	2500      	movs	r5, #0
 80051be:	4e0a      	ldr	r6, [pc, #40]	; (80051e8 <__libc_init_array+0x40>)
 80051c0:	4c0a      	ldr	r4, [pc, #40]	; (80051ec <__libc_init_array+0x44>)
 80051c2:	1ba4      	subs	r4, r4, r6
 80051c4:	10a4      	asrs	r4, r4, #2
 80051c6:	42a5      	cmp	r5, r4
 80051c8:	d105      	bne.n	80051d6 <__libc_init_array+0x2e>
 80051ca:	bd70      	pop	{r4, r5, r6, pc}
 80051cc:	f856 3025 	ldr.w	r3, [r6, r5, lsl #2]
 80051d0:	4798      	blx	r3
 80051d2:	3501      	adds	r5, #1
 80051d4:	e7ee      	b.n	80051b4 <__libc_init_array+0xc>
 80051d6:	f856 3025 	ldr.w	r3, [r6, r5, lsl #2]
 80051da:	4798      	blx	r3
 80051dc:	3501      	adds	r5, #1
 80051de:	e7f2      	b.n	80051c6 <__libc_init_array+0x1e>
 80051e0:	08007ba8 	.word	0x08007ba8
 80051e4:	08007ba8 	.word	0x08007ba8
 80051e8:	08007ba8 	.word	0x08007ba8
 80051ec:	08007bac 	.word	0x08007bac

080051f0 <malloc>:
 80051f0:	4b02      	ldr	r3, [pc, #8]	; (80051fc <malloc+0xc>)
 80051f2:	4601      	mov	r1, r0
 80051f4:	6818      	ldr	r0, [r3, #0]
 80051f6:	f000 b85f 	b.w	80052b8 <_malloc_r>
 80051fa:	bf00      	nop
 80051fc:	20000008 	.word	0x20000008

08005200 <free>:
 8005200:	4b02      	ldr	r3, [pc, #8]	; (800520c <free+0xc>)
 8005202:	4601      	mov	r1, r0
 8005204:	6818      	ldr	r0, [r3, #0]
 8005206:	f000 b80b 	b.w	8005220 <_free_r>
 800520a:	bf00      	nop
 800520c:	20000008 	.word	0x20000008

08005210 <memset>:
 8005210:	4603      	mov	r3, r0
 8005212:	4402      	add	r2, r0
 8005214:	4293      	cmp	r3, r2
 8005216:	d100      	bne.n	800521a <memset+0xa>
 8005218:	4770      	bx	lr
 800521a:	f803 1b01 	strb.w	r1, [r3], #1
 800521e:	e7f9      	b.n	8005214 <memset+0x4>

08005220 <_free_r>:
 8005220:	b538      	push	{r3, r4, r5, lr}
 8005222:	4605      	mov	r5, r0
 8005224:	2900      	cmp	r1, #0
 8005226:	d043      	beq.n	80052b0 <_free_r+0x90>
 8005228:	f851 3c04 	ldr.w	r3, [r1, #-4]
 800522c:	1f0c      	subs	r4, r1, #4
 800522e:	2b00      	cmp	r3, #0
 8005230:	bfb8      	it	lt
 8005232:	18e4      	addlt	r4, r4, r3
 8005234:	f001 fb84 	bl	8006940 <__malloc_lock>
 8005238:	4a1e      	ldr	r2, [pc, #120]	; (80052b4 <_free_r+0x94>)
 800523a:	6813      	ldr	r3, [r2, #0]
 800523c:	4610      	mov	r0, r2
 800523e:	b933      	cbnz	r3, 800524e <_free_r+0x2e>
 8005240:	6063      	str	r3, [r4, #4]
 8005242:	6014      	str	r4, [r2, #0]
 8005244:	4628      	mov	r0, r5
 8005246:	e8bd 4038 	ldmia.w	sp!, {r3, r4, r5, lr}
 800524a:	f001 bb7a 	b.w	8006942 <__malloc_unlock>
 800524e:	42a3      	cmp	r3, r4
 8005250:	d90b      	bls.n	800526a <_free_r+0x4a>
 8005252:	6821      	ldr	r1, [r4, #0]
 8005254:	1862      	adds	r2, r4, r1
 8005256:	4293      	cmp	r3, r2
 8005258:	bf01      	itttt	eq
 800525a:	681a      	ldreq	r2, [r3, #0]
 800525c:	685b      	ldreq	r3, [r3, #4]
 800525e:	1852      	addeq	r2, r2, r1
 8005260:	6022      	streq	r2, [r4, #0]
 8005262:	6063      	str	r3, [r4, #4]
 8005264:	6004      	str	r4, [r0, #0]
 8005266:	e7ed      	b.n	8005244 <_free_r+0x24>
 8005268:	4613      	mov	r3, r2
 800526a:	685a      	ldr	r2, [r3, #4]
 800526c:	b10a      	cbz	r2, 8005272 <_free_r+0x52>
 800526e:	42a2      	cmp	r2, r4
 8005270:	d9fa      	bls.n	8005268 <_free_r+0x48>
 8005272:	6819      	ldr	r1, [r3, #0]
 8005274:	1858      	adds	r0, r3, r1
 8005276:	42a0      	cmp	r0, r4
 8005278:	d10b      	bne.n	8005292 <_free_r+0x72>
 800527a:	6820      	ldr	r0, [r4, #0]
 800527c:	4401      	add	r1, r0
 800527e:	1858      	adds	r0, r3, r1
 8005280:	4282      	cmp	r2, r0
 8005282:	6019      	str	r1, [r3, #0]
 8005284:	d1de      	bne.n	8005244 <_free_r+0x24>
 8005286:	6810      	ldr	r0, [r2, #0]
 8005288:	6852      	ldr	r2, [r2, #4]
 800528a:	4401      	add	r1, r0
 800528c:	6019      	str	r1, [r3, #0]
 800528e:	605a      	str	r2, [r3, #4]
 8005290:	e7d8      	b.n	8005244 <_free_r+0x24>
 8005292:	d902      	bls.n	800529a <_free_r+0x7a>
 8005294:	230c      	movs	r3, #12
 8005296:	602b      	str	r3, [r5, #0]
 8005298:	e7d4      	b.n	8005244 <_free_r+0x24>
 800529a:	6820      	ldr	r0, [r4, #0]
 800529c:	1821      	adds	r1, r4, r0
 800529e:	428a      	cmp	r2, r1
 80052a0:	bf01      	itttt	eq
 80052a2:	6811      	ldreq	r1, [r2, #0]
 80052a4:	6852      	ldreq	r2, [r2, #4]
 80052a6:	1809      	addeq	r1, r1, r0
 80052a8:	6021      	streq	r1, [r4, #0]
 80052aa:	6062      	str	r2, [r4, #4]
 80052ac:	605c      	str	r4, [r3, #4]
 80052ae:	e7c9      	b.n	8005244 <_free_r+0x24>
 80052b0:	bd38      	pop	{r3, r4, r5, pc}
 80052b2:	bf00      	nop
 80052b4:	20000204 	.word	0x20000204

080052b8 <_malloc_r>:
 80052b8:	b570      	push	{r4, r5, r6, lr}
 80052ba:	1ccd      	adds	r5, r1, #3
 80052bc:	f025 0503 	bic.w	r5, r5, #3
 80052c0:	3508      	adds	r5, #8
 80052c2:	2d0c      	cmp	r5, #12
 80052c4:	bf38      	it	cc
 80052c6:	250c      	movcc	r5, #12
 80052c8:	2d00      	cmp	r5, #0
 80052ca:	4606      	mov	r6, r0
 80052cc:	db01      	blt.n	80052d2 <_malloc_r+0x1a>
 80052ce:	42a9      	cmp	r1, r5
 80052d0:	d903      	bls.n	80052da <_malloc_r+0x22>
 80052d2:	230c      	movs	r3, #12
 80052d4:	6033      	str	r3, [r6, #0]
 80052d6:	2000      	movs	r0, #0
 80052d8:	bd70      	pop	{r4, r5, r6, pc}
 80052da:	f001 fb31 	bl	8006940 <__malloc_lock>
 80052de:	4a23      	ldr	r2, [pc, #140]	; (800536c <_malloc_r+0xb4>)
 80052e0:	6814      	ldr	r4, [r2, #0]
 80052e2:	4621      	mov	r1, r4
 80052e4:	b991      	cbnz	r1, 800530c <_malloc_r+0x54>
 80052e6:	4c22      	ldr	r4, [pc, #136]	; (8005370 <_malloc_r+0xb8>)
 80052e8:	6823      	ldr	r3, [r4, #0]
 80052ea:	b91b      	cbnz	r3, 80052f4 <_malloc_r+0x3c>
 80052ec:	4630      	mov	r0, r6
 80052ee:	f000 f841 	bl	8005374 <_sbrk_r>
 80052f2:	6020      	str	r0, [r4, #0]
 80052f4:	4629      	mov	r1, r5
 80052f6:	4630      	mov	r0, r6
 80052f8:	f000 f83c 	bl	8005374 <_sbrk_r>
 80052fc:	1c43      	adds	r3, r0, #1
 80052fe:	d126      	bne.n	800534e <_malloc_r+0x96>
 8005300:	230c      	movs	r3, #12
 8005302:	4630      	mov	r0, r6
 8005304:	6033      	str	r3, [r6, #0]
 8005306:	f001 fb1c 	bl	8006942 <__malloc_unlock>
 800530a:	e7e4      	b.n	80052d6 <_malloc_r+0x1e>
 800530c:	680b      	ldr	r3, [r1, #0]
 800530e:	1b5b      	subs	r3, r3, r5
 8005310:	d41a      	bmi.n	8005348 <_malloc_r+0x90>
 8005312:	2b0b      	cmp	r3, #11
 8005314:	d90f      	bls.n	8005336 <_malloc_r+0x7e>
 8005316:	600b      	str	r3, [r1, #0]
 8005318:	18cc      	adds	r4, r1, r3
 800531a:	50cd      	str	r5, [r1, r3]
 800531c:	4630      	mov	r0, r6
 800531e:	f001 fb10 	bl	8006942 <__malloc_unlock>
 8005322:	f104 000b 	add.w	r0, r4, #11
 8005326:	1d23      	adds	r3, r4, #4
 8005328:	f020 0007 	bic.w	r0, r0, #7
 800532c:	1ac3      	subs	r3, r0, r3
 800532e:	d01b      	beq.n	8005368 <_malloc_r+0xb0>
 8005330:	425a      	negs	r2, r3
 8005332:	50e2      	str	r2, [r4, r3]
 8005334:	bd70      	pop	{r4, r5, r6, pc}
 8005336:	428c      	cmp	r4, r1
 8005338:	bf0b      	itete	eq
 800533a:	6863      	ldreq	r3, [r4, #4]
 800533c:	684b      	ldrne	r3, [r1, #4]
 800533e:	6013      	streq	r3, [r2, #0]
 8005340:	6063      	strne	r3, [r4, #4]
 8005342:	bf18      	it	ne
 8005344:	460c      	movne	r4, r1
 8005346:	e7e9      	b.n	800531c <_malloc_r+0x64>
 8005348:	460c      	mov	r4, r1
 800534a:	6849      	ldr	r1, [r1, #4]
 800534c:	e7ca      	b.n	80052e4 <_malloc_r+0x2c>
 800534e:	1cc4      	adds	r4, r0, #3
 8005350:	f024 0403 	bic.w	r4, r4, #3
 8005354:	42a0      	cmp	r0, r4
 8005356:	d005      	beq.n	8005364 <_malloc_r+0xac>
 8005358:	1a21      	subs	r1, r4, r0
 800535a:	4630      	mov	r0, r6
 800535c:	f000 f80a 	bl	8005374 <_sbrk_r>
 8005360:	3001      	adds	r0, #1
 8005362:	d0cd      	beq.n	8005300 <_malloc_r+0x48>
 8005364:	6025      	str	r5, [r4, #0]
 8005366:	e7d9      	b.n	800531c <_malloc_r+0x64>
 8005368:	bd70      	pop	{r4, r5, r6, pc}
 800536a:	bf00      	nop
 800536c:	20000204 	.word	0x20000204
 8005370:	20000208 	.word	0x20000208

08005374 <_sbrk_r>:
 8005374:	b538      	push	{r3, r4, r5, lr}
 8005376:	2300      	movs	r3, #0
 8005378:	4c05      	ldr	r4, [pc, #20]	; (8005390 <_sbrk_r+0x1c>)
 800537a:	4605      	mov	r5, r0
 800537c:	4608      	mov	r0, r1
 800537e:	6023      	str	r3, [r4, #0]
 8005380:	f002 fa22 	bl	80077c8 <_sbrk>
 8005384:	1c43      	adds	r3, r0, #1
 8005386:	d102      	bne.n	800538e <_sbrk_r+0x1a>
 8005388:	6823      	ldr	r3, [r4, #0]
 800538a:	b103      	cbz	r3, 800538e <_sbrk_r+0x1a>
 800538c:	602b      	str	r3, [r5, #0]
 800538e:	bd38      	pop	{r3, r4, r5, pc}
 8005390:	20000ffc 	.word	0x20000ffc

08005394 <sniprintf>:
 8005394:	b40c      	push	{r2, r3}
 8005396:	b530      	push	{r4, r5, lr}
 8005398:	4b17      	ldr	r3, [pc, #92]	; (80053f8 <sniprintf+0x64>)
 800539a:	1e0c      	subs	r4, r1, #0
 800539c:	b09d      	sub	sp, #116	; 0x74
 800539e:	681d      	ldr	r5, [r3, #0]
 80053a0:	da08      	bge.n	80053b4 <sniprintf+0x20>
 80053a2:	238b      	movs	r3, #139	; 0x8b
 80053a4:	f04f 30ff 	mov.w	r0, #4294967295
 80053a8:	602b      	str	r3, [r5, #0]
 80053aa:	b01d      	add	sp, #116	; 0x74
 80053ac:	e8bd 4030 	ldmia.w	sp!, {r4, r5, lr}
 80053b0:	b002      	add	sp, #8
 80053b2:	4770      	bx	lr
 80053b4:	f44f 7302 	mov.w	r3, #520	; 0x208
 80053b8:	f8ad 3014 	strh.w	r3, [sp, #20]
 80053bc:	bf0c      	ite	eq
 80053be:	4623      	moveq	r3, r4
 80053c0:	f104 33ff 	addne.w	r3, r4, #4294967295
 80053c4:	9304      	str	r3, [sp, #16]
 80053c6:	9307      	str	r3, [sp, #28]
 80053c8:	f64f 73ff 	movw	r3, #65535	; 0xffff
 80053cc:	9002      	str	r0, [sp, #8]
 80053ce:	9006      	str	r0, [sp, #24]
 80053d0:	f8ad 3016 	strh.w	r3, [sp, #22]
 80053d4:	9a20      	ldr	r2, [sp, #128]	; 0x80
 80053d6:	ab21      	add	r3, sp, #132	; 0x84
 80053d8:	a902      	add	r1, sp, #8
 80053da:	4628      	mov	r0, r5
 80053dc:	9301      	str	r3, [sp, #4]
 80053de:	f001 ff03 	bl	80071e8 <_svfiprintf_r>
 80053e2:	1c43      	adds	r3, r0, #1
 80053e4:	bfbc      	itt	lt
 80053e6:	238b      	movlt	r3, #139	; 0x8b
 80053e8:	602b      	strlt	r3, [r5, #0]
 80053ea:	2c00      	cmp	r4, #0
 80053ec:	d0dd      	beq.n	80053aa <sniprintf+0x16>
 80053ee:	2200      	movs	r2, #0
 80053f0:	9b02      	ldr	r3, [sp, #8]
 80053f2:	701a      	strb	r2, [r3, #0]
 80053f4:	e7d9      	b.n	80053aa <sniprintf+0x16>
 80053f6:	bf00      	nop
 80053f8:	20000008 	.word	0x20000008

080053fc <siprintf>:
 80053fc:	b40e      	push	{r1, r2, r3}
 80053fe:	f44f 7102 	mov.w	r1, #520	; 0x208
 8005402:	b500      	push	{lr}
 8005404:	b09c      	sub	sp, #112	; 0x70
 8005406:	f8ad 1014 	strh.w	r1, [sp, #20]
 800540a:	f06f 4100 	mvn.w	r1, #2147483648	; 0x80000000
 800540e:	9104      	str	r1, [sp, #16]
 8005410:	9107      	str	r1, [sp, #28]
 8005412:	f64f 71ff 	movw	r1, #65535	; 0xffff
 8005416:	ab1d      	add	r3, sp, #116	; 0x74
 8005418:	9002      	str	r0, [sp, #8]
 800541a:	9006      	str	r0, [sp, #24]
 800541c:	4808      	ldr	r0, [pc, #32]	; (8005440 <siprintf+0x44>)
 800541e:	f853 2b04 	ldr.w	r2, [r3], #4
 8005422:	f8ad 1016 	strh.w	r1, [sp, #22]
 8005426:	6800      	ldr	r0, [r0, #0]
 8005428:	a902      	add	r1, sp, #8
 800542a:	9301      	str	r3, [sp, #4]
 800542c:	f001 fedc 	bl	80071e8 <_svfiprintf_r>
 8005430:	2200      	movs	r2, #0
 8005432:	9b02      	ldr	r3, [sp, #8]
 8005434:	701a      	strb	r2, [r3, #0]
 8005436:	b01c      	add	sp, #112	; 0x70
 8005438:	f85d eb04 	ldr.w	lr, [sp], #4
 800543c:	b003      	add	sp, #12
 800543e:	4770      	bx	lr
 8005440:	20000008 	.word	0x20000008

08005444 <strcat>:
 8005444:	4602      	mov	r2, r0
 8005446:	b510      	push	{r4, lr}
 8005448:	4613      	mov	r3, r2
 800544a:	781c      	ldrb	r4, [r3, #0]
 800544c:	3201      	adds	r2, #1
 800544e:	2c00      	cmp	r4, #0
 8005450:	d1fa      	bne.n	8005448 <strcat+0x4>
 8005452:	3b01      	subs	r3, #1
 8005454:	f811 2b01 	ldrb.w	r2, [r1], #1
 8005458:	f803 2f01 	strb.w	r2, [r3, #1]!
 800545c:	2a00      	cmp	r2, #0
 800545e:	d1f9      	bne.n	8005454 <strcat+0x10>
 8005460:	bd10      	pop	{r4, pc}

08005462 <strcpy>:
 8005462:	4603      	mov	r3, r0
 8005464:	f811 2b01 	ldrb.w	r2, [r1], #1
 8005468:	f803 2b01 	strb.w	r2, [r3], #1
 800546c:	2a00      	cmp	r2, #0
 800546e:	d1f9      	bne.n	8005464 <strcpy+0x2>
 8005470:	4770      	bx	lr

08005472 <strncmp>:
 8005472:	b510      	push	{r4, lr}
 8005474:	b16a      	cbz	r2, 8005492 <strncmp+0x20>
 8005476:	3901      	subs	r1, #1
 8005478:	1884      	adds	r4, r0, r2
 800547a:	f810 3b01 	ldrb.w	r3, [r0], #1
 800547e:	f811 2f01 	ldrb.w	r2, [r1, #1]!
 8005482:	4293      	cmp	r3, r2
 8005484:	d103      	bne.n	800548e <strncmp+0x1c>
 8005486:	42a0      	cmp	r0, r4
 8005488:	d001      	beq.n	800548e <strncmp+0x1c>
 800548a:	2b00      	cmp	r3, #0
 800548c:	d1f5      	bne.n	800547a <strncmp+0x8>
 800548e:	1a98      	subs	r0, r3, r2
 8005490:	bd10      	pop	{r4, pc}
 8005492:	4610      	mov	r0, r2
 8005494:	bd10      	pop	{r4, pc}

08005496 <sulp>:
 8005496:	e92d 41f0 	stmdb	sp!, {r4, r5, r6, r7, r8, lr}
 800549a:	460f      	mov	r7, r1
 800549c:	4690      	mov	r8, r2
 800549e:	f001 fd11 	bl	8006ec4 <__ulp>
 80054a2:	4604      	mov	r4, r0
 80054a4:	460d      	mov	r5, r1
 80054a6:	f1b8 0f00 	cmp.w	r8, #0
 80054aa:	d011      	beq.n	80054d0 <sulp+0x3a>
 80054ac:	f3c7 530a 	ubfx	r3, r7, #20, #11
 80054b0:	f1c3 036b 	rsb	r3, r3, #107	; 0x6b
 80054b4:	2b00      	cmp	r3, #0
 80054b6:	dd0b      	ble.n	80054d0 <sulp+0x3a>
 80054b8:	2400      	movs	r4, #0
 80054ba:	051b      	lsls	r3, r3, #20
 80054bc:	f103 557f 	add.w	r5, r3, #1069547520	; 0x3fc00000
 80054c0:	f505 1540 	add.w	r5, r5, #3145728	; 0x300000
 80054c4:	4622      	mov	r2, r4
 80054c6:	462b      	mov	r3, r5
 80054c8:	f7fb f81a 	bl	8000500 <__aeabi_dmul>
 80054cc:	4604      	mov	r4, r0
 80054ce:	460d      	mov	r5, r1
 80054d0:	4620      	mov	r0, r4
 80054d2:	4629      	mov	r1, r5
 80054d4:	e8bd 81f0 	ldmia.w	sp!, {r4, r5, r6, r7, r8, pc}

080054d8 <_strtod_l>:
 80054d8:	e92d 4ff0 	stmdb	sp!, {r4, r5, r6, r7, r8, r9, sl, fp, lr}
 80054dc:	4699      	mov	r9, r3
 80054de:	2300      	movs	r3, #0
 80054e0:	b09f      	sub	sp, #124	; 0x7c
 80054e2:	4680      	mov	r8, r0
 80054e4:	4648      	mov	r0, r9
 80054e6:	460c      	mov	r4, r1
 80054e8:	9215      	str	r2, [sp, #84]	; 0x54
 80054ea:	931a      	str	r3, [sp, #104]	; 0x68
 80054ec:	f001 fa09 	bl	8006902 <__localeconv_l>
 80054f0:	4607      	mov	r7, r0
 80054f2:	6800      	ldr	r0, [r0, #0]
 80054f4:	f7fa fe44 	bl	8000180 <strlen>
 80054f8:	f04f 0a00 	mov.w	sl, #0
 80054fc:	4605      	mov	r5, r0
 80054fe:	f04f 0b00 	mov.w	fp, #0
 8005502:	9419      	str	r4, [sp, #100]	; 0x64
 8005504:	9b19      	ldr	r3, [sp, #100]	; 0x64
 8005506:	781a      	ldrb	r2, [r3, #0]
 8005508:	2a0d      	cmp	r2, #13
 800550a:	d833      	bhi.n	8005574 <_strtod_l+0x9c>
 800550c:	2a09      	cmp	r2, #9
 800550e:	d237      	bcs.n	8005580 <_strtod_l+0xa8>
 8005510:	2a00      	cmp	r2, #0
 8005512:	d03f      	beq.n	8005594 <_strtod_l+0xbc>
 8005514:	2300      	movs	r3, #0
 8005516:	9309      	str	r3, [sp, #36]	; 0x24
 8005518:	9e19      	ldr	r6, [sp, #100]	; 0x64
 800551a:	7833      	ldrb	r3, [r6, #0]
 800551c:	2b30      	cmp	r3, #48	; 0x30
 800551e:	f040 8101 	bne.w	8005724 <_strtod_l+0x24c>
 8005522:	7873      	ldrb	r3, [r6, #1]
 8005524:	2b58      	cmp	r3, #88	; 0x58
 8005526:	d001      	beq.n	800552c <_strtod_l+0x54>
 8005528:	2b78      	cmp	r3, #120	; 0x78
 800552a:	d16b      	bne.n	8005604 <_strtod_l+0x12c>
 800552c:	9b09      	ldr	r3, [sp, #36]	; 0x24
 800552e:	f8cd 9008 	str.w	r9, [sp, #8]
 8005532:	9301      	str	r3, [sp, #4]
 8005534:	ab1a      	add	r3, sp, #104	; 0x68
 8005536:	9300      	str	r3, [sp, #0]
 8005538:	4aaa      	ldr	r2, [pc, #680]	; (80057e4 <_strtod_l+0x30c>)
 800553a:	ab1b      	add	r3, sp, #108	; 0x6c
 800553c:	a919      	add	r1, sp, #100	; 0x64
 800553e:	4640      	mov	r0, r8
 8005540:	f000 ff08 	bl	8006354 <__gethex>
 8005544:	f010 0407 	ands.w	r4, r0, #7
 8005548:	4605      	mov	r5, r0
 800554a:	d005      	beq.n	8005558 <_strtod_l+0x80>
 800554c:	2c06      	cmp	r4, #6
 800554e:	d12b      	bne.n	80055a8 <_strtod_l+0xd0>
 8005550:	2300      	movs	r3, #0
 8005552:	3601      	adds	r6, #1
 8005554:	9619      	str	r6, [sp, #100]	; 0x64
 8005556:	9309      	str	r3, [sp, #36]	; 0x24
 8005558:	9b15      	ldr	r3, [sp, #84]	; 0x54
 800555a:	2b00      	cmp	r3, #0
 800555c:	f040 859d 	bne.w	800609a <_strtod_l+0xbc2>
 8005560:	9b09      	ldr	r3, [sp, #36]	; 0x24
 8005562:	b1e3      	cbz	r3, 800559e <_strtod_l+0xc6>
 8005564:	4652      	mov	r2, sl
 8005566:	f10b 4300 	add.w	r3, fp, #2147483648	; 0x80000000
 800556a:	4610      	mov	r0, r2
 800556c:	4619      	mov	r1, r3
 800556e:	b01f      	add	sp, #124	; 0x7c
 8005570:	e8bd 8ff0 	ldmia.w	sp!, {r4, r5, r6, r7, r8, r9, sl, fp, pc}
 8005574:	2a2b      	cmp	r2, #43	; 0x2b
 8005576:	d006      	beq.n	8005586 <_strtod_l+0xae>
 8005578:	2a2d      	cmp	r2, #45	; 0x2d
 800557a:	d013      	beq.n	80055a4 <_strtod_l+0xcc>
 800557c:	2a20      	cmp	r2, #32
 800557e:	d1c9      	bne.n	8005514 <_strtod_l+0x3c>
 8005580:	3301      	adds	r3, #1
 8005582:	9319      	str	r3, [sp, #100]	; 0x64
 8005584:	e7be      	b.n	8005504 <_strtod_l+0x2c>
 8005586:	2200      	movs	r2, #0
 8005588:	9209      	str	r2, [sp, #36]	; 0x24
 800558a:	1c5a      	adds	r2, r3, #1
 800558c:	9219      	str	r2, [sp, #100]	; 0x64
 800558e:	785b      	ldrb	r3, [r3, #1]
 8005590:	2b00      	cmp	r3, #0
 8005592:	d1c1      	bne.n	8005518 <_strtod_l+0x40>
 8005594:	9b15      	ldr	r3, [sp, #84]	; 0x54
 8005596:	9419      	str	r4, [sp, #100]	; 0x64
 8005598:	2b00      	cmp	r3, #0
 800559a:	f040 857c 	bne.w	8006096 <_strtod_l+0xbbe>
 800559e:	4652      	mov	r2, sl
 80055a0:	465b      	mov	r3, fp
 80055a2:	e7e2      	b.n	800556a <_strtod_l+0x92>
 80055a4:	2201      	movs	r2, #1
 80055a6:	e7ef      	b.n	8005588 <_strtod_l+0xb0>
 80055a8:	9a1a      	ldr	r2, [sp, #104]	; 0x68
 80055aa:	b13a      	cbz	r2, 80055bc <_strtod_l+0xe4>
 80055ac:	2135      	movs	r1, #53	; 0x35
 80055ae:	a81c      	add	r0, sp, #112	; 0x70
 80055b0:	f001 fd75 	bl	800709e <__copybits>
 80055b4:	991a      	ldr	r1, [sp, #104]	; 0x68
 80055b6:	4640      	mov	r0, r8
 80055b8:	f001 f9f8 	bl	80069ac <_Bfree>
 80055bc:	3c01      	subs	r4, #1
 80055be:	2c04      	cmp	r4, #4
 80055c0:	d808      	bhi.n	80055d4 <_strtod_l+0xfc>
 80055c2:	e8df f004 	tbb	[pc, r4]
 80055c6:	030c      	.short	0x030c
 80055c8:	1a17      	.short	0x1a17
 80055ca:	0c          	.byte	0x0c
 80055cb:	00          	.byte	0x00
 80055cc:	f8dd a070 	ldr.w	sl, [sp, #112]	; 0x70
 80055d0:	f8dd b074 	ldr.w	fp, [sp, #116]	; 0x74
 80055d4:	0729      	lsls	r1, r5, #28
 80055d6:	d5bf      	bpl.n	8005558 <_strtod_l+0x80>
 80055d8:	f04b 4b00 	orr.w	fp, fp, #2147483648	; 0x80000000
 80055dc:	e7bc      	b.n	8005558 <_strtod_l+0x80>
 80055de:	9b1d      	ldr	r3, [sp, #116]	; 0x74
 80055e0:	9a1b      	ldr	r2, [sp, #108]	; 0x6c
 80055e2:	f423 1380 	bic.w	r3, r3, #1048576	; 0x100000
 80055e6:	f202 4233 	addw	r2, r2, #1075	; 0x433
 80055ea:	f8dd a070 	ldr.w	sl, [sp, #112]	; 0x70
 80055ee:	ea43 5b02 	orr.w	fp, r3, r2, lsl #20
 80055f2:	e7ef      	b.n	80055d4 <_strtod_l+0xfc>
 80055f4:	f8df b1f8 	ldr.w	fp, [pc, #504]	; 80057f0 <_strtod_l+0x318>
 80055f8:	e7ec      	b.n	80055d4 <_strtod_l+0xfc>
 80055fa:	f06f 4b00 	mvn.w	fp, #2147483648	; 0x80000000
 80055fe:	f04f 3aff 	mov.w	sl, #4294967295
 8005602:	e7e7      	b.n	80055d4 <_strtod_l+0xfc>
 8005604:	9b19      	ldr	r3, [sp, #100]	; 0x64
 8005606:	1c5a      	adds	r2, r3, #1
 8005608:	9219      	str	r2, [sp, #100]	; 0x64
 800560a:	785b      	ldrb	r3, [r3, #1]
 800560c:	2b30      	cmp	r3, #48	; 0x30
 800560e:	d0f9      	beq.n	8005604 <_strtod_l+0x12c>
 8005610:	2b00      	cmp	r3, #0
 8005612:	d0a1      	beq.n	8005558 <_strtod_l+0x80>
 8005614:	2301      	movs	r3, #1
 8005616:	9308      	str	r3, [sp, #32]
 8005618:	9b19      	ldr	r3, [sp, #100]	; 0x64
 800561a:	220a      	movs	r2, #10
 800561c:	930a      	str	r3, [sp, #40]	; 0x28
 800561e:	2300      	movs	r3, #0
 8005620:	9305      	str	r3, [sp, #20]
 8005622:	9306      	str	r3, [sp, #24]
 8005624:	9304      	str	r3, [sp, #16]
 8005626:	9819      	ldr	r0, [sp, #100]	; 0x64
 8005628:	7806      	ldrb	r6, [r0, #0]
 800562a:	f1a6 0330 	sub.w	r3, r6, #48	; 0x30
 800562e:	b2d9      	uxtb	r1, r3
 8005630:	2909      	cmp	r1, #9
 8005632:	d979      	bls.n	8005728 <_strtod_l+0x250>
 8005634:	462a      	mov	r2, r5
 8005636:	6839      	ldr	r1, [r7, #0]
 8005638:	f7ff ff1b 	bl	8005472 <strncmp>
 800563c:	2800      	cmp	r0, #0
 800563e:	f000 8085 	beq.w	800574c <_strtod_l+0x274>
 8005642:	2000      	movs	r0, #0
 8005644:	4633      	mov	r3, r6
 8005646:	4602      	mov	r2, r0
 8005648:	4601      	mov	r1, r0
 800564a:	9d04      	ldr	r5, [sp, #16]
 800564c:	2b65      	cmp	r3, #101	; 0x65
 800564e:	d002      	beq.n	8005656 <_strtod_l+0x17e>
 8005650:	2b45      	cmp	r3, #69	; 0x45
 8005652:	f040 80ef 	bne.w	8005834 <_strtod_l+0x35c>
 8005656:	b925      	cbnz	r5, 8005662 <_strtod_l+0x18a>
 8005658:	b910      	cbnz	r0, 8005660 <_strtod_l+0x188>
 800565a:	9b08      	ldr	r3, [sp, #32]
 800565c:	2b00      	cmp	r3, #0
 800565e:	d099      	beq.n	8005594 <_strtod_l+0xbc>
 8005660:	2500      	movs	r5, #0
 8005662:	9c19      	ldr	r4, [sp, #100]	; 0x64
 8005664:	1c63      	adds	r3, r4, #1
 8005666:	9319      	str	r3, [sp, #100]	; 0x64
 8005668:	7863      	ldrb	r3, [r4, #1]
 800566a:	2b2b      	cmp	r3, #43	; 0x2b
 800566c:	f000 80cf 	beq.w	800580e <_strtod_l+0x336>
 8005670:	2b2d      	cmp	r3, #45	; 0x2d
 8005672:	f000 80d2 	beq.w	800581a <_strtod_l+0x342>
 8005676:	2600      	movs	r6, #0
 8005678:	9607      	str	r6, [sp, #28]
 800567a:	f1a3 0630 	sub.w	r6, r3, #48	; 0x30
 800567e:	2e09      	cmp	r6, #9
 8005680:	f200 80d7 	bhi.w	8005832 <_strtod_l+0x35a>
 8005684:	2b30      	cmp	r3, #48	; 0x30
 8005686:	f000 80ca 	beq.w	800581e <_strtod_l+0x346>
 800568a:	f1a3 0631 	sub.w	r6, r3, #49	; 0x31
 800568e:	2e08      	cmp	r6, #8
 8005690:	f200 80d0 	bhi.w	8005834 <_strtod_l+0x35c>
 8005694:	f1a3 0e30 	sub.w	lr, r3, #48	; 0x30
 8005698:	9b19      	ldr	r3, [sp, #100]	; 0x64
 800569a:	f04f 0c0a 	mov.w	ip, #10
 800569e:	461f      	mov	r7, r3
 80056a0:	9b19      	ldr	r3, [sp, #100]	; 0x64
 80056a2:	1c5e      	adds	r6, r3, #1
 80056a4:	9619      	str	r6, [sp, #100]	; 0x64
 80056a6:	785b      	ldrb	r3, [r3, #1]
 80056a8:	f1a3 0930 	sub.w	r9, r3, #48	; 0x30
 80056ac:	f1b9 0f09 	cmp.w	r9, #9
 80056b0:	f240 80ba 	bls.w	8005828 <_strtod_l+0x350>
 80056b4:	1bf6      	subs	r6, r6, r7
 80056b6:	2e08      	cmp	r6, #8
 80056b8:	f644 691f 	movw	r9, #19999	; 0x4e1f
 80056bc:	dc02      	bgt.n	80056c4 <_strtod_l+0x1ec>
 80056be:	45f1      	cmp	r9, lr
 80056c0:	bfa8      	it	ge
 80056c2:	46f1      	movge	r9, lr
 80056c4:	9e07      	ldr	r6, [sp, #28]
 80056c6:	b10e      	cbz	r6, 80056cc <_strtod_l+0x1f4>
 80056c8:	f1c9 0900 	rsb	r9, r9, #0
 80056cc:	2d00      	cmp	r5, #0
 80056ce:	f040 80d7 	bne.w	8005880 <_strtod_l+0x3a8>
 80056d2:	2800      	cmp	r0, #0
 80056d4:	f47f af40 	bne.w	8005558 <_strtod_l+0x80>
 80056d8:	9a08      	ldr	r2, [sp, #32]
 80056da:	2a00      	cmp	r2, #0
 80056dc:	f47f af3c 	bne.w	8005558 <_strtod_l+0x80>
 80056e0:	2900      	cmp	r1, #0
 80056e2:	f47f af57 	bne.w	8005594 <_strtod_l+0xbc>
 80056e6:	2b4e      	cmp	r3, #78	; 0x4e
 80056e8:	f000 80ad 	beq.w	8005846 <_strtod_l+0x36e>
 80056ec:	f300 80a5 	bgt.w	800583a <_strtod_l+0x362>
 80056f0:	2b49      	cmp	r3, #73	; 0x49
 80056f2:	f47f af4f 	bne.w	8005594 <_strtod_l+0xbc>
 80056f6:	493c      	ldr	r1, [pc, #240]	; (80057e8 <_strtod_l+0x310>)
 80056f8:	a819      	add	r0, sp, #100	; 0x64
 80056fa:	f001 f85c 	bl	80067b6 <__match>
 80056fe:	2800      	cmp	r0, #0
 8005700:	f43f af48 	beq.w	8005594 <_strtod_l+0xbc>
 8005704:	9b19      	ldr	r3, [sp, #100]	; 0x64
 8005706:	4939      	ldr	r1, [pc, #228]	; (80057ec <_strtod_l+0x314>)
 8005708:	3b01      	subs	r3, #1
 800570a:	a819      	add	r0, sp, #100	; 0x64
 800570c:	9319      	str	r3, [sp, #100]	; 0x64
 800570e:	f001 f852 	bl	80067b6 <__match>
 8005712:	b910      	cbnz	r0, 800571a <_strtod_l+0x242>
 8005714:	9b19      	ldr	r3, [sp, #100]	; 0x64
 8005716:	3301      	adds	r3, #1
 8005718:	9319      	str	r3, [sp, #100]	; 0x64
 800571a:	f8df b0d4 	ldr.w	fp, [pc, #212]	; 80057f0 <_strtod_l+0x318>
 800571e:	f04f 0a00 	mov.w	sl, #0
 8005722:	e719      	b.n	8005558 <_strtod_l+0x80>
 8005724:	2300      	movs	r3, #0
 8005726:	e776      	b.n	8005616 <_strtod_l+0x13e>
 8005728:	9904      	ldr	r1, [sp, #16]
 800572a:	3001      	adds	r0, #1
 800572c:	2908      	cmp	r1, #8
 800572e:	bfd5      	itete	le
 8005730:	9906      	ldrle	r1, [sp, #24]
 8005732:	9905      	ldrgt	r1, [sp, #20]
 8005734:	fb02 3301 	mlale	r3, r2, r1, r3
 8005738:	fb02 3301 	mlagt	r3, r2, r1, r3
 800573c:	bfd4      	ite	le
 800573e:	9306      	strle	r3, [sp, #24]
 8005740:	9305      	strgt	r3, [sp, #20]
 8005742:	9b04      	ldr	r3, [sp, #16]
 8005744:	9019      	str	r0, [sp, #100]	; 0x64
 8005746:	3301      	adds	r3, #1
 8005748:	9304      	str	r3, [sp, #16]
 800574a:	e76c      	b.n	8005626 <_strtod_l+0x14e>
 800574c:	9b19      	ldr	r3, [sp, #100]	; 0x64
 800574e:	195a      	adds	r2, r3, r5
 8005750:	9219      	str	r2, [sp, #100]	; 0x64
 8005752:	9a04      	ldr	r2, [sp, #16]
 8005754:	5d5b      	ldrb	r3, [r3, r5]
 8005756:	2a00      	cmp	r2, #0
 8005758:	d154      	bne.n	8005804 <_strtod_l+0x32c>
 800575a:	4610      	mov	r0, r2
 800575c:	2b30      	cmp	r3, #48	; 0x30
 800575e:	d02a      	beq.n	80057b6 <_strtod_l+0x2de>
 8005760:	f1a3 0231 	sub.w	r2, r3, #49	; 0x31
 8005764:	2a08      	cmp	r2, #8
 8005766:	f200 849d 	bhi.w	80060a4 <_strtod_l+0xbcc>
 800576a:	9a19      	ldr	r2, [sp, #100]	; 0x64
 800576c:	920a      	str	r2, [sp, #40]	; 0x28
 800576e:	4602      	mov	r2, r0
 8005770:	2000      	movs	r0, #0
 8005772:	4605      	mov	r5, r0
 8005774:	3b30      	subs	r3, #48	; 0x30
 8005776:	f100 0101 	add.w	r1, r0, #1
 800577a:	d011      	beq.n	80057a0 <_strtod_l+0x2c8>
 800577c:	440a      	add	r2, r1
 800577e:	260a      	movs	r6, #10
 8005780:	4629      	mov	r1, r5
 8005782:	eb00 0c05 	add.w	ip, r0, r5
 8005786:	4561      	cmp	r1, ip
 8005788:	d11b      	bne.n	80057c2 <_strtod_l+0x2ea>
 800578a:	4428      	add	r0, r5
 800578c:	2808      	cmp	r0, #8
 800578e:	f100 0501 	add.w	r5, r0, #1
 8005792:	dc2f      	bgt.n	80057f4 <_strtod_l+0x31c>
 8005794:	210a      	movs	r1, #10
 8005796:	9806      	ldr	r0, [sp, #24]
 8005798:	fb01 3300 	mla	r3, r1, r0, r3
 800579c:	9306      	str	r3, [sp, #24]
 800579e:	2100      	movs	r1, #0
 80057a0:	9b19      	ldr	r3, [sp, #100]	; 0x64
 80057a2:	1c58      	adds	r0, r3, #1
 80057a4:	9019      	str	r0, [sp, #100]	; 0x64
 80057a6:	4608      	mov	r0, r1
 80057a8:	785b      	ldrb	r3, [r3, #1]
 80057aa:	f1a3 0130 	sub.w	r1, r3, #48	; 0x30
 80057ae:	2909      	cmp	r1, #9
 80057b0:	d9e0      	bls.n	8005774 <_strtod_l+0x29c>
 80057b2:	2101      	movs	r1, #1
 80057b4:	e74a      	b.n	800564c <_strtod_l+0x174>
 80057b6:	9b19      	ldr	r3, [sp, #100]	; 0x64
 80057b8:	3001      	adds	r0, #1
 80057ba:	1c5a      	adds	r2, r3, #1
 80057bc:	9219      	str	r2, [sp, #100]	; 0x64
 80057be:	785b      	ldrb	r3, [r3, #1]
 80057c0:	e7cc      	b.n	800575c <_strtod_l+0x284>
 80057c2:	3101      	adds	r1, #1
 80057c4:	f101 3eff 	add.w	lr, r1, #4294967295
 80057c8:	f1be 0f08 	cmp.w	lr, #8
 80057cc:	dc03      	bgt.n	80057d6 <_strtod_l+0x2fe>
 80057ce:	9f06      	ldr	r7, [sp, #24]
 80057d0:	4377      	muls	r7, r6
 80057d2:	9706      	str	r7, [sp, #24]
 80057d4:	e7d7      	b.n	8005786 <_strtod_l+0x2ae>
 80057d6:	2910      	cmp	r1, #16
 80057d8:	bfde      	ittt	le
 80057da:	9f05      	ldrle	r7, [sp, #20]
 80057dc:	4377      	mulle	r7, r6
 80057de:	9705      	strle	r7, [sp, #20]
 80057e0:	e7d1      	b.n	8005786 <_strtod_l+0x2ae>
 80057e2:	bf00      	nop
 80057e4:	08007918 	.word	0x08007918
 80057e8:	0800790b 	.word	0x0800790b
 80057ec:	0800790e 	.word	0x0800790e
 80057f0:	7ff00000 	.word	0x7ff00000
 80057f4:	2d10      	cmp	r5, #16
 80057f6:	bfdf      	itttt	le
 80057f8:	210a      	movle	r1, #10
 80057fa:	9805      	ldrle	r0, [sp, #20]
 80057fc:	fb01 3300 	mlale	r3, r1, r0, r3
 8005800:	9305      	strle	r3, [sp, #20]
 8005802:	e7cc      	b.n	800579e <_strtod_l+0x2c6>
 8005804:	4602      	mov	r2, r0
 8005806:	9d04      	ldr	r5, [sp, #16]
 8005808:	e7cf      	b.n	80057aa <_strtod_l+0x2d2>
 800580a:	2101      	movs	r1, #1
 800580c:	e724      	b.n	8005658 <_strtod_l+0x180>
 800580e:	2300      	movs	r3, #0
 8005810:	9307      	str	r3, [sp, #28]
 8005812:	1ca3      	adds	r3, r4, #2
 8005814:	9319      	str	r3, [sp, #100]	; 0x64
 8005816:	78a3      	ldrb	r3, [r4, #2]
 8005818:	e72f      	b.n	800567a <_strtod_l+0x1a2>
 800581a:	2301      	movs	r3, #1
 800581c:	e7f8      	b.n	8005810 <_strtod_l+0x338>
 800581e:	9b19      	ldr	r3, [sp, #100]	; 0x64
 8005820:	1c5e      	adds	r6, r3, #1
 8005822:	9619      	str	r6, [sp, #100]	; 0x64
 8005824:	785b      	ldrb	r3, [r3, #1]
 8005826:	e72d      	b.n	8005684 <_strtod_l+0x1ac>
 8005828:	fb0c 3e0e 	mla	lr, ip, lr, r3
 800582c:	f1ae 0e30 	sub.w	lr, lr, #48	; 0x30
 8005830:	e736      	b.n	80056a0 <_strtod_l+0x1c8>
 8005832:	9419      	str	r4, [sp, #100]	; 0x64
 8005834:	f04f 0900 	mov.w	r9, #0
 8005838:	e748      	b.n	80056cc <_strtod_l+0x1f4>
 800583a:	2b69      	cmp	r3, #105	; 0x69
 800583c:	f43f af5b 	beq.w	80056f6 <_strtod_l+0x21e>
 8005840:	2b6e      	cmp	r3, #110	; 0x6e
 8005842:	f47f aea7 	bne.w	8005594 <_strtod_l+0xbc>
 8005846:	498c      	ldr	r1, [pc, #560]	; (8005a78 <_strtod_l+0x5a0>)
 8005848:	a819      	add	r0, sp, #100	; 0x64
 800584a:	f000 ffb4 	bl	80067b6 <__match>
 800584e:	2800      	cmp	r0, #0
 8005850:	f43f aea0 	beq.w	8005594 <_strtod_l+0xbc>
 8005854:	9b19      	ldr	r3, [sp, #100]	; 0x64
 8005856:	781b      	ldrb	r3, [r3, #0]
 8005858:	2b28      	cmp	r3, #40	; 0x28
 800585a:	d10e      	bne.n	800587a <_strtod_l+0x3a2>
 800585c:	aa1c      	add	r2, sp, #112	; 0x70
 800585e:	4987      	ldr	r1, [pc, #540]	; (8005a7c <_strtod_l+0x5a4>)
 8005860:	a819      	add	r0, sp, #100	; 0x64
 8005862:	f000 ffbb 	bl	80067dc <__hexnan>
 8005866:	2805      	cmp	r0, #5
 8005868:	d107      	bne.n	800587a <_strtod_l+0x3a2>
 800586a:	9b1d      	ldr	r3, [sp, #116]	; 0x74
 800586c:	f8dd a070 	ldr.w	sl, [sp, #112]	; 0x70
 8005870:	f043 4bff 	orr.w	fp, r3, #2139095040	; 0x7f800000
 8005874:	f44b 0be0 	orr.w	fp, fp, #7340032	; 0x700000
 8005878:	e66e      	b.n	8005558 <_strtod_l+0x80>
 800587a:	f8df b210 	ldr.w	fp, [pc, #528]	; 8005a8c <_strtod_l+0x5b4>
 800587e:	e74e      	b.n	800571e <_strtod_l+0x246>
 8005880:	9b04      	ldr	r3, [sp, #16]
 8005882:	462c      	mov	r4, r5
 8005884:	2b00      	cmp	r3, #0
 8005886:	bf08      	it	eq
 8005888:	462b      	moveq	r3, r5
 800588a:	2d10      	cmp	r5, #16
 800588c:	bfa8      	it	ge
 800588e:	2410      	movge	r4, #16
 8005890:	9806      	ldr	r0, [sp, #24]
 8005892:	eba9 0902 	sub.w	r9, r9, r2
 8005896:	9304      	str	r3, [sp, #16]
 8005898:	f7fa fdbc 	bl	8000414 <__aeabi_ui2d>
 800589c:	2c09      	cmp	r4, #9
 800589e:	4682      	mov	sl, r0
 80058a0:	468b      	mov	fp, r1
 80058a2:	dd13      	ble.n	80058cc <_strtod_l+0x3f4>
 80058a4:	4b76      	ldr	r3, [pc, #472]	; (8005a80 <_strtod_l+0x5a8>)
 80058a6:	eb03 03c4 	add.w	r3, r3, r4, lsl #3
 80058aa:	e953 2312 	ldrd	r2, r3, [r3, #-72]	; 0x48
 80058ae:	f7fa fe27 	bl	8000500 <__aeabi_dmul>
 80058b2:	4606      	mov	r6, r0
 80058b4:	9805      	ldr	r0, [sp, #20]
 80058b6:	460f      	mov	r7, r1
 80058b8:	f7fa fdac 	bl	8000414 <__aeabi_ui2d>
 80058bc:	4602      	mov	r2, r0
 80058be:	460b      	mov	r3, r1
 80058c0:	4630      	mov	r0, r6
 80058c2:	4639      	mov	r1, r7
 80058c4:	f7fa fc6a 	bl	800019c <__adddf3>
 80058c8:	4682      	mov	sl, r0
 80058ca:	468b      	mov	fp, r1
 80058cc:	2d0f      	cmp	r5, #15
 80058ce:	dc36      	bgt.n	800593e <_strtod_l+0x466>
 80058d0:	f1b9 0f00 	cmp.w	r9, #0
 80058d4:	f43f ae40 	beq.w	8005558 <_strtod_l+0x80>
 80058d8:	dd24      	ble.n	8005924 <_strtod_l+0x44c>
 80058da:	f1b9 0f16 	cmp.w	r9, #22
 80058de:	dc0b      	bgt.n	80058f8 <_strtod_l+0x420>
 80058e0:	4652      	mov	r2, sl
 80058e2:	465b      	mov	r3, fp
 80058e4:	4d66      	ldr	r5, [pc, #408]	; (8005a80 <_strtod_l+0x5a8>)
 80058e6:	eb05 09c9 	add.w	r9, r5, r9, lsl #3
 80058ea:	e9d9 0100 	ldrd	r0, r1, [r9]
 80058ee:	f7fa fe07 	bl	8000500 <__aeabi_dmul>
 80058f2:	4682      	mov	sl, r0
 80058f4:	468b      	mov	fp, r1
 80058f6:	e62f      	b.n	8005558 <_strtod_l+0x80>
 80058f8:	f1c5 0325 	rsb	r3, r5, #37	; 0x25
 80058fc:	4599      	cmp	r9, r3
 80058fe:	dc1e      	bgt.n	800593e <_strtod_l+0x466>
 8005900:	4c5f      	ldr	r4, [pc, #380]	; (8005a80 <_strtod_l+0x5a8>)
 8005902:	f1c5 050f 	rsb	r5, r5, #15
 8005906:	eb04 01c5 	add.w	r1, r4, r5, lsl #3
 800590a:	eba9 0505 	sub.w	r5, r9, r5
 800590e:	4652      	mov	r2, sl
 8005910:	e9d1 0100 	ldrd	r0, r1, [r1]
 8005914:	465b      	mov	r3, fp
 8005916:	eb04 04c5 	add.w	r4, r4, r5, lsl #3
 800591a:	f7fa fdf1 	bl	8000500 <__aeabi_dmul>
 800591e:	e9d4 2300 	ldrd	r2, r3, [r4]
 8005922:	e7e4      	b.n	80058ee <_strtod_l+0x416>
 8005924:	f119 0f16 	cmn.w	r9, #22
 8005928:	db09      	blt.n	800593e <_strtod_l+0x466>
 800592a:	4d55      	ldr	r5, [pc, #340]	; (8005a80 <_strtod_l+0x5a8>)
 800592c:	4650      	mov	r0, sl
 800592e:	eba5 09c9 	sub.w	r9, r5, r9, lsl #3
 8005932:	e9d9 2300 	ldrd	r2, r3, [r9]
 8005936:	4659      	mov	r1, fp
 8005938:	f7fa ff0c 	bl	8000754 <__aeabi_ddiv>
 800593c:	e7d9      	b.n	80058f2 <_strtod_l+0x41a>
 800593e:	1b2c      	subs	r4, r5, r4
 8005940:	444c      	add	r4, r9
 8005942:	2c00      	cmp	r4, #0
 8005944:	dd73      	ble.n	8005a2e <_strtod_l+0x556>
 8005946:	f014 030f 	ands.w	r3, r4, #15
 800594a:	d00a      	beq.n	8005962 <_strtod_l+0x48a>
 800594c:	494c      	ldr	r1, [pc, #304]	; (8005a80 <_strtod_l+0x5a8>)
 800594e:	4652      	mov	r2, sl
 8005950:	eb01 01c3 	add.w	r1, r1, r3, lsl #3
 8005954:	e9d1 0100 	ldrd	r0, r1, [r1]
 8005958:	465b      	mov	r3, fp
 800595a:	f7fa fdd1 	bl	8000500 <__aeabi_dmul>
 800595e:	4682      	mov	sl, r0
 8005960:	468b      	mov	fp, r1
 8005962:	f034 040f 	bics.w	r4, r4, #15
 8005966:	d054      	beq.n	8005a12 <_strtod_l+0x53a>
 8005968:	f5b4 7f9a 	cmp.w	r4, #308	; 0x134
 800596c:	dd27      	ble.n	80059be <_strtod_l+0x4e6>
 800596e:	f04f 0900 	mov.w	r9, #0
 8005972:	f8cd 9010 	str.w	r9, [sp, #16]
 8005976:	f8cd 901c 	str.w	r9, [sp, #28]
 800597a:	f8cd 9018 	str.w	r9, [sp, #24]
 800597e:	2322      	movs	r3, #34	; 0x22
 8005980:	f04f 0a00 	mov.w	sl, #0
 8005984:	f8df b108 	ldr.w	fp, [pc, #264]	; 8005a90 <_strtod_l+0x5b8>
 8005988:	f8c8 3000 	str.w	r3, [r8]
 800598c:	9b07      	ldr	r3, [sp, #28]
 800598e:	2b00      	cmp	r3, #0
 8005990:	f43f ade2 	beq.w	8005558 <_strtod_l+0x80>
 8005994:	991a      	ldr	r1, [sp, #104]	; 0x68
 8005996:	4640      	mov	r0, r8
 8005998:	f001 f808 	bl	80069ac <_Bfree>
 800599c:	9906      	ldr	r1, [sp, #24]
 800599e:	4640      	mov	r0, r8
 80059a0:	f001 f804 	bl	80069ac <_Bfree>
 80059a4:	9904      	ldr	r1, [sp, #16]
 80059a6:	4640      	mov	r0, r8
 80059a8:	f001 f800 	bl	80069ac <_Bfree>
 80059ac:	9907      	ldr	r1, [sp, #28]
 80059ae:	4640      	mov	r0, r8
 80059b0:	f000 fffc 	bl	80069ac <_Bfree>
 80059b4:	4649      	mov	r1, r9
 80059b6:	4640      	mov	r0, r8
 80059b8:	f000 fff8 	bl	80069ac <_Bfree>
 80059bc:	e5cc      	b.n	8005558 <_strtod_l+0x80>
 80059be:	2300      	movs	r3, #0
 80059c0:	4650      	mov	r0, sl
 80059c2:	4659      	mov	r1, fp
 80059c4:	461f      	mov	r7, r3
 80059c6:	4e2f      	ldr	r6, [pc, #188]	; (8005a84 <_strtod_l+0x5ac>)
 80059c8:	1124      	asrs	r4, r4, #4
 80059ca:	2c01      	cmp	r4, #1
 80059cc:	dc24      	bgt.n	8005a18 <_strtod_l+0x540>
 80059ce:	b10b      	cbz	r3, 80059d4 <_strtod_l+0x4fc>
 80059d0:	4682      	mov	sl, r0
 80059d2:	468b      	mov	fp, r1
 80059d4:	4b2b      	ldr	r3, [pc, #172]	; (8005a84 <_strtod_l+0x5ac>)
 80059d6:	f1ab 7b54 	sub.w	fp, fp, #55574528	; 0x3500000
 80059da:	eb03 07c7 	add.w	r7, r3, r7, lsl #3
 80059de:	4652      	mov	r2, sl
 80059e0:	e9d7 0100 	ldrd	r0, r1, [r7]
 80059e4:	465b      	mov	r3, fp
 80059e6:	f7fa fd8b 	bl	8000500 <__aeabi_dmul>
 80059ea:	f021 4300 	bic.w	r3, r1, #2147483648	; 0x80000000
 80059ee:	468b      	mov	fp, r1
 80059f0:	460a      	mov	r2, r1
 80059f2:	0d1b      	lsrs	r3, r3, #20
 80059f4:	4924      	ldr	r1, [pc, #144]	; (8005a88 <_strtod_l+0x5b0>)
 80059f6:	051b      	lsls	r3, r3, #20
 80059f8:	428b      	cmp	r3, r1
 80059fa:	4682      	mov	sl, r0
 80059fc:	d8b7      	bhi.n	800596e <_strtod_l+0x496>
 80059fe:	f5a1 1180 	sub.w	r1, r1, #1048576	; 0x100000
 8005a02:	428b      	cmp	r3, r1
 8005a04:	bf86      	itte	hi
 8005a06:	f04f 3aff 	movhi.w	sl, #4294967295
 8005a0a:	f8df b088 	ldrhi.w	fp, [pc, #136]	; 8005a94 <_strtod_l+0x5bc>
 8005a0e:	f102 7b54 	addls.w	fp, r2, #55574528	; 0x3500000
 8005a12:	2300      	movs	r3, #0
 8005a14:	9305      	str	r3, [sp, #20]
 8005a16:	e070      	b.n	8005afa <_strtod_l+0x622>
 8005a18:	07e2      	lsls	r2, r4, #31
 8005a1a:	d504      	bpl.n	8005a26 <_strtod_l+0x54e>
 8005a1c:	e9d6 2300 	ldrd	r2, r3, [r6]
 8005a20:	f7fa fd6e 	bl	8000500 <__aeabi_dmul>
 8005a24:	2301      	movs	r3, #1
 8005a26:	3701      	adds	r7, #1
 8005a28:	1064      	asrs	r4, r4, #1
 8005a2a:	3608      	adds	r6, #8
 8005a2c:	e7cd      	b.n	80059ca <_strtod_l+0x4f2>
 8005a2e:	d0f0      	beq.n	8005a12 <_strtod_l+0x53a>
 8005a30:	4264      	negs	r4, r4
 8005a32:	f014 020f 	ands.w	r2, r4, #15
 8005a36:	d00a      	beq.n	8005a4e <_strtod_l+0x576>
 8005a38:	4b11      	ldr	r3, [pc, #68]	; (8005a80 <_strtod_l+0x5a8>)
 8005a3a:	4650      	mov	r0, sl
 8005a3c:	eb03 03c2 	add.w	r3, r3, r2, lsl #3
 8005a40:	4659      	mov	r1, fp
 8005a42:	e9d3 2300 	ldrd	r2, r3, [r3]
 8005a46:	f7fa fe85 	bl	8000754 <__aeabi_ddiv>
 8005a4a:	4682      	mov	sl, r0
 8005a4c:	468b      	mov	fp, r1
 8005a4e:	1124      	asrs	r4, r4, #4
 8005a50:	d0df      	beq.n	8005a12 <_strtod_l+0x53a>
 8005a52:	2c1f      	cmp	r4, #31
 8005a54:	dd20      	ble.n	8005a98 <_strtod_l+0x5c0>
 8005a56:	f04f 0900 	mov.w	r9, #0
 8005a5a:	f8cd 9010 	str.w	r9, [sp, #16]
 8005a5e:	f8cd 901c 	str.w	r9, [sp, #28]
 8005a62:	f8cd 9018 	str.w	r9, [sp, #24]
 8005a66:	2322      	movs	r3, #34	; 0x22
 8005a68:	f04f 0a00 	mov.w	sl, #0
 8005a6c:	f04f 0b00 	mov.w	fp, #0
 8005a70:	f8c8 3000 	str.w	r3, [r8]
 8005a74:	e78a      	b.n	800598c <_strtod_l+0x4b4>
 8005a76:	bf00      	nop
 8005a78:	08007914 	.word	0x08007914
 8005a7c:	0800792c 	.word	0x0800792c
 8005a80:	080079a0 	.word	0x080079a0
 8005a84:	08007978 	.word	0x08007978
 8005a88:	7ca00000 	.word	0x7ca00000
 8005a8c:	fff80000 	.word	0xfff80000
 8005a90:	7ff00000 	.word	0x7ff00000
 8005a94:	7fefffff 	.word	0x7fefffff
 8005a98:	f014 0310 	ands.w	r3, r4, #16
 8005a9c:	bf18      	it	ne
 8005a9e:	236a      	movne	r3, #106	; 0x6a
 8005aa0:	4650      	mov	r0, sl
 8005aa2:	9305      	str	r3, [sp, #20]
 8005aa4:	4659      	mov	r1, fp
 8005aa6:	2300      	movs	r3, #0
 8005aa8:	4e9f      	ldr	r6, [pc, #636]	; (8005d28 <_strtod_l+0x850>)
 8005aaa:	2c00      	cmp	r4, #0
 8005aac:	f300 8109 	bgt.w	8005cc2 <_strtod_l+0x7ea>
 8005ab0:	b10b      	cbz	r3, 8005ab6 <_strtod_l+0x5de>
 8005ab2:	4682      	mov	sl, r0
 8005ab4:	468b      	mov	fp, r1
 8005ab6:	9b05      	ldr	r3, [sp, #20]
 8005ab8:	b1bb      	cbz	r3, 8005aea <_strtod_l+0x612>
 8005aba:	f3cb 530a 	ubfx	r3, fp, #20, #11
 8005abe:	f1c3 036b 	rsb	r3, r3, #107	; 0x6b
 8005ac2:	2b00      	cmp	r3, #0
 8005ac4:	4659      	mov	r1, fp
 8005ac6:	dd10      	ble.n	8005aea <_strtod_l+0x612>
 8005ac8:	2b1f      	cmp	r3, #31
 8005aca:	f340 8104 	ble.w	8005cd6 <_strtod_l+0x7fe>
 8005ace:	2b34      	cmp	r3, #52	; 0x34
 8005ad0:	bfd8      	it	le
 8005ad2:	f04f 32ff 	movle.w	r2, #4294967295
 8005ad6:	f04f 0a00 	mov.w	sl, #0
 8005ada:	bfcf      	iteee	gt
 8005adc:	f04f 7b5c 	movgt.w	fp, #57671680	; 0x3700000
 8005ae0:	3b20      	suble	r3, #32
 8005ae2:	fa02 f303 	lslle.w	r3, r2, r3
 8005ae6:	ea03 0b01 	andle.w	fp, r3, r1
 8005aea:	2200      	movs	r2, #0
 8005aec:	2300      	movs	r3, #0
 8005aee:	4650      	mov	r0, sl
 8005af0:	4659      	mov	r1, fp
 8005af2:	f7fa ff6d 	bl	80009d0 <__aeabi_dcmpeq>
 8005af6:	2800      	cmp	r0, #0
 8005af8:	d1ad      	bne.n	8005a56 <_strtod_l+0x57e>
 8005afa:	9b06      	ldr	r3, [sp, #24]
 8005afc:	9a04      	ldr	r2, [sp, #16]
 8005afe:	9300      	str	r3, [sp, #0]
 8005b00:	990a      	ldr	r1, [sp, #40]	; 0x28
 8005b02:	462b      	mov	r3, r5
 8005b04:	4640      	mov	r0, r8
 8005b06:	f000 ffa3 	bl	8006a50 <__s2b>
 8005b0a:	9007      	str	r0, [sp, #28]
 8005b0c:	2800      	cmp	r0, #0
 8005b0e:	f43f af2e 	beq.w	800596e <_strtod_l+0x496>
 8005b12:	f1b9 0f00 	cmp.w	r9, #0
 8005b16:	f1c9 0300 	rsb	r3, r9, #0
 8005b1a:	bfa8      	it	ge
 8005b1c:	2300      	movge	r3, #0
 8005b1e:	930e      	str	r3, [sp, #56]	; 0x38
 8005b20:	ea29 73e9 	bic.w	r3, r9, r9, asr #31
 8005b24:	f04f 0900 	mov.w	r9, #0
 8005b28:	930f      	str	r3, [sp, #60]	; 0x3c
 8005b2a:	f8cd 9010 	str.w	r9, [sp, #16]
 8005b2e:	9b07      	ldr	r3, [sp, #28]
 8005b30:	4640      	mov	r0, r8
 8005b32:	6859      	ldr	r1, [r3, #4]
 8005b34:	f000 ff06 	bl	8006944 <_Balloc>
 8005b38:	9006      	str	r0, [sp, #24]
 8005b3a:	2800      	cmp	r0, #0
 8005b3c:	f43f af1f 	beq.w	800597e <_strtod_l+0x4a6>
 8005b40:	9b07      	ldr	r3, [sp, #28]
 8005b42:	300c      	adds	r0, #12
 8005b44:	691a      	ldr	r2, [r3, #16]
 8005b46:	f103 010c 	add.w	r1, r3, #12
 8005b4a:	3202      	adds	r2, #2
 8005b4c:	0092      	lsls	r2, r2, #2
 8005b4e:	f000 feec 	bl	800692a <memcpy>
 8005b52:	ab1c      	add	r3, sp, #112	; 0x70
 8005b54:	9301      	str	r3, [sp, #4]
 8005b56:	ab1b      	add	r3, sp, #108	; 0x6c
 8005b58:	9300      	str	r3, [sp, #0]
 8005b5a:	4652      	mov	r2, sl
 8005b5c:	465b      	mov	r3, fp
 8005b5e:	4640      	mov	r0, r8
 8005b60:	e9cd ab0a 	strd	sl, fp, [sp, #40]	; 0x28
 8005b64:	f001 fa24 	bl	8006fb0 <__d2b>
 8005b68:	901a      	str	r0, [sp, #104]	; 0x68
 8005b6a:	2800      	cmp	r0, #0
 8005b6c:	f43f af07 	beq.w	800597e <_strtod_l+0x4a6>
 8005b70:	2101      	movs	r1, #1
 8005b72:	4640      	mov	r0, r8
 8005b74:	f000 fff8 	bl	8006b68 <__i2b>
 8005b78:	9004      	str	r0, [sp, #16]
 8005b7a:	4603      	mov	r3, r0
 8005b7c:	2800      	cmp	r0, #0
 8005b7e:	f43f aefe 	beq.w	800597e <_strtod_l+0x4a6>
 8005b82:	9d1b      	ldr	r5, [sp, #108]	; 0x6c
 8005b84:	9a1c      	ldr	r2, [sp, #112]	; 0x70
 8005b86:	2d00      	cmp	r5, #0
 8005b88:	bfab      	itete	ge
 8005b8a:	9b0e      	ldrge	r3, [sp, #56]	; 0x38
 8005b8c:	9b0f      	ldrlt	r3, [sp, #60]	; 0x3c
 8005b8e:	195e      	addge	r6, r3, r5
 8005b90:	1b5c      	sublt	r4, r3, r5
 8005b92:	9b05      	ldr	r3, [sp, #20]
 8005b94:	bfa8      	it	ge
 8005b96:	9c0f      	ldrge	r4, [sp, #60]	; 0x3c
 8005b98:	eba5 0503 	sub.w	r5, r5, r3
 8005b9c:	4415      	add	r5, r2
 8005b9e:	4b63      	ldr	r3, [pc, #396]	; (8005d2c <_strtod_l+0x854>)
 8005ba0:	f105 35ff 	add.w	r5, r5, #4294967295
 8005ba4:	bfb8      	it	lt
 8005ba6:	9e0e      	ldrlt	r6, [sp, #56]	; 0x38
 8005ba8:	429d      	cmp	r5, r3
 8005baa:	f1c2 0236 	rsb	r2, r2, #54	; 0x36
 8005bae:	f280 80a4 	bge.w	8005cfa <_strtod_l+0x822>
 8005bb2:	1b5b      	subs	r3, r3, r5
 8005bb4:	2b1f      	cmp	r3, #31
 8005bb6:	eba2 0203 	sub.w	r2, r2, r3
 8005bba:	f04f 0701 	mov.w	r7, #1
 8005bbe:	f300 8091 	bgt.w	8005ce4 <_strtod_l+0x80c>
 8005bc2:	2500      	movs	r5, #0
 8005bc4:	fa07 f303 	lsl.w	r3, r7, r3
 8005bc8:	9314      	str	r3, [sp, #80]	; 0x50
 8005bca:	18b7      	adds	r7, r6, r2
 8005bcc:	9b05      	ldr	r3, [sp, #20]
 8005bce:	42be      	cmp	r6, r7
 8005bd0:	4414      	add	r4, r2
 8005bd2:	441c      	add	r4, r3
 8005bd4:	4633      	mov	r3, r6
 8005bd6:	bfa8      	it	ge
 8005bd8:	463b      	movge	r3, r7
 8005bda:	42a3      	cmp	r3, r4
 8005bdc:	bfa8      	it	ge
 8005bde:	4623      	movge	r3, r4
 8005be0:	2b00      	cmp	r3, #0
 8005be2:	bfc2      	ittt	gt
 8005be4:	1aff      	subgt	r7, r7, r3
 8005be6:	1ae4      	subgt	r4, r4, r3
 8005be8:	1af6      	subgt	r6, r6, r3
 8005bea:	9b0e      	ldr	r3, [sp, #56]	; 0x38
 8005bec:	b1bb      	cbz	r3, 8005c1e <_strtod_l+0x746>
 8005bee:	461a      	mov	r2, r3
 8005bf0:	9904      	ldr	r1, [sp, #16]
 8005bf2:	4640      	mov	r0, r8
 8005bf4:	f001 f84e 	bl	8006c94 <__pow5mult>
 8005bf8:	9004      	str	r0, [sp, #16]
 8005bfa:	2800      	cmp	r0, #0
 8005bfc:	f43f aebf 	beq.w	800597e <_strtod_l+0x4a6>
 8005c00:	4601      	mov	r1, r0
 8005c02:	9a1a      	ldr	r2, [sp, #104]	; 0x68
 8005c04:	4640      	mov	r0, r8
 8005c06:	f000 ffb8 	bl	8006b7a <__multiply>
 8005c0a:	9008      	str	r0, [sp, #32]
 8005c0c:	2800      	cmp	r0, #0
 8005c0e:	f43f aeb6 	beq.w	800597e <_strtod_l+0x4a6>
 8005c12:	991a      	ldr	r1, [sp, #104]	; 0x68
 8005c14:	4640      	mov	r0, r8
 8005c16:	f000 fec9 	bl	80069ac <_Bfree>
 8005c1a:	9b08      	ldr	r3, [sp, #32]
 8005c1c:	931a      	str	r3, [sp, #104]	; 0x68
 8005c1e:	2f00      	cmp	r7, #0
 8005c20:	dc6f      	bgt.n	8005d02 <_strtod_l+0x82a>
 8005c22:	9b0f      	ldr	r3, [sp, #60]	; 0x3c
 8005c24:	2b00      	cmp	r3, #0
 8005c26:	d175      	bne.n	8005d14 <_strtod_l+0x83c>
 8005c28:	2c00      	cmp	r4, #0
 8005c2a:	dd08      	ble.n	8005c3e <_strtod_l+0x766>
 8005c2c:	4622      	mov	r2, r4
 8005c2e:	9906      	ldr	r1, [sp, #24]
 8005c30:	4640      	mov	r0, r8
 8005c32:	f001 f87d 	bl	8006d30 <__lshift>
 8005c36:	9006      	str	r0, [sp, #24]
 8005c38:	2800      	cmp	r0, #0
 8005c3a:	f43f aea0 	beq.w	800597e <_strtod_l+0x4a6>
 8005c3e:	2e00      	cmp	r6, #0
 8005c40:	dd08      	ble.n	8005c54 <_strtod_l+0x77c>
 8005c42:	4632      	mov	r2, r6
 8005c44:	9904      	ldr	r1, [sp, #16]
 8005c46:	4640      	mov	r0, r8
 8005c48:	f001 f872 	bl	8006d30 <__lshift>
 8005c4c:	9004      	str	r0, [sp, #16]
 8005c4e:	2800      	cmp	r0, #0
 8005c50:	f43f ae95 	beq.w	800597e <_strtod_l+0x4a6>
 8005c54:	9a06      	ldr	r2, [sp, #24]
 8005c56:	991a      	ldr	r1, [sp, #104]	; 0x68
 8005c58:	4640      	mov	r0, r8
 8005c5a:	f001 f8d4 	bl	8006e06 <__mdiff>
 8005c5e:	4681      	mov	r9, r0
 8005c60:	2800      	cmp	r0, #0
 8005c62:	f43f ae8c 	beq.w	800597e <_strtod_l+0x4a6>
 8005c66:	2400      	movs	r4, #0
 8005c68:	68c3      	ldr	r3, [r0, #12]
 8005c6a:	9904      	ldr	r1, [sp, #16]
 8005c6c:	60c4      	str	r4, [r0, #12]
 8005c6e:	9308      	str	r3, [sp, #32]
 8005c70:	f001 f8af 	bl	8006dd2 <__mcmp>
 8005c74:	42a0      	cmp	r0, r4
 8005c76:	da5b      	bge.n	8005d30 <_strtod_l+0x858>
 8005c78:	9b08      	ldr	r3, [sp, #32]
 8005c7a:	b9f3      	cbnz	r3, 8005cba <_strtod_l+0x7e2>
 8005c7c:	f1ba 0f00 	cmp.w	sl, #0
 8005c80:	d11b      	bne.n	8005cba <_strtod_l+0x7e2>
 8005c82:	f3cb 0313 	ubfx	r3, fp, #0, #20
 8005c86:	b9c3      	cbnz	r3, 8005cba <_strtod_l+0x7e2>
 8005c88:	f02b 4300 	bic.w	r3, fp, #2147483648	; 0x80000000
 8005c8c:	0d1b      	lsrs	r3, r3, #20
 8005c8e:	051b      	lsls	r3, r3, #20
 8005c90:	f1b3 6fd6 	cmp.w	r3, #112197632	; 0x6b00000
 8005c94:	d911      	bls.n	8005cba <_strtod_l+0x7e2>
 8005c96:	f8d9 3014 	ldr.w	r3, [r9, #20]
 8005c9a:	b91b      	cbnz	r3, 8005ca4 <_strtod_l+0x7cc>
 8005c9c:	f8d9 3010 	ldr.w	r3, [r9, #16]
 8005ca0:	2b01      	cmp	r3, #1
 8005ca2:	dd0a      	ble.n	8005cba <_strtod_l+0x7e2>
 8005ca4:	4649      	mov	r1, r9
 8005ca6:	2201      	movs	r2, #1
 8005ca8:	4640      	mov	r0, r8
 8005caa:	f001 f841 	bl	8006d30 <__lshift>
 8005cae:	9904      	ldr	r1, [sp, #16]
 8005cb0:	4681      	mov	r9, r0
 8005cb2:	f001 f88e 	bl	8006dd2 <__mcmp>
 8005cb6:	2800      	cmp	r0, #0
 8005cb8:	dc6b      	bgt.n	8005d92 <_strtod_l+0x8ba>
 8005cba:	9b05      	ldr	r3, [sp, #20]
 8005cbc:	2b00      	cmp	r3, #0
 8005cbe:	d175      	bne.n	8005dac <_strtod_l+0x8d4>
 8005cc0:	e668      	b.n	8005994 <_strtod_l+0x4bc>
 8005cc2:	07e2      	lsls	r2, r4, #31
 8005cc4:	d504      	bpl.n	8005cd0 <_strtod_l+0x7f8>
 8005cc6:	e9d6 2300 	ldrd	r2, r3, [r6]
 8005cca:	f7fa fc19 	bl	8000500 <__aeabi_dmul>
 8005cce:	2301      	movs	r3, #1
 8005cd0:	1064      	asrs	r4, r4, #1
 8005cd2:	3608      	adds	r6, #8
 8005cd4:	e6e9      	b.n	8005aaa <_strtod_l+0x5d2>
 8005cd6:	f04f 32ff 	mov.w	r2, #4294967295
 8005cda:	fa02 f303 	lsl.w	r3, r2, r3
 8005cde:	ea03 0a0a 	and.w	sl, r3, sl
 8005ce2:	e702      	b.n	8005aea <_strtod_l+0x612>
 8005ce4:	f1c5 457f 	rsb	r5, r5, #4278190080	; 0xff000000
 8005ce8:	f505 057f 	add.w	r5, r5, #16711680	; 0xff0000
 8005cec:	f505 457b 	add.w	r5, r5, #64256	; 0xfb00
 8005cf0:	35e2      	adds	r5, #226	; 0xe2
 8005cf2:	fa07 f505 	lsl.w	r5, r7, r5
 8005cf6:	9714      	str	r7, [sp, #80]	; 0x50
 8005cf8:	e767      	b.n	8005bca <_strtod_l+0x6f2>
 8005cfa:	2301      	movs	r3, #1
 8005cfc:	2500      	movs	r5, #0
 8005cfe:	9314      	str	r3, [sp, #80]	; 0x50
 8005d00:	e763      	b.n	8005bca <_strtod_l+0x6f2>
 8005d02:	463a      	mov	r2, r7
 8005d04:	991a      	ldr	r1, [sp, #104]	; 0x68
 8005d06:	4640      	mov	r0, r8
 8005d08:	f001 f812 	bl	8006d30 <__lshift>
 8005d0c:	901a      	str	r0, [sp, #104]	; 0x68
 8005d0e:	2800      	cmp	r0, #0
 8005d10:	d187      	bne.n	8005c22 <_strtod_l+0x74a>
 8005d12:	e634      	b.n	800597e <_strtod_l+0x4a6>
 8005d14:	9a0f      	ldr	r2, [sp, #60]	; 0x3c
 8005d16:	9906      	ldr	r1, [sp, #24]
 8005d18:	4640      	mov	r0, r8
 8005d1a:	f000 ffbb 	bl	8006c94 <__pow5mult>
 8005d1e:	9006      	str	r0, [sp, #24]
 8005d20:	2800      	cmp	r0, #0
 8005d22:	d181      	bne.n	8005c28 <_strtod_l+0x750>
 8005d24:	e62b      	b.n	800597e <_strtod_l+0x4a6>
 8005d26:	bf00      	nop
 8005d28:	08007940 	.word	0x08007940
 8005d2c:	fffffc02 	.word	0xfffffc02
 8005d30:	f040 8086 	bne.w	8005e40 <_strtod_l+0x968>
 8005d34:	9a08      	ldr	r2, [sp, #32]
 8005d36:	f3cb 0313 	ubfx	r3, fp, #0, #20
 8005d3a:	b332      	cbz	r2, 8005d8a <_strtod_l+0x8b2>
 8005d3c:	4aac      	ldr	r2, [pc, #688]	; (8005ff0 <_strtod_l+0xb18>)
 8005d3e:	4659      	mov	r1, fp
 8005d40:	4293      	cmp	r3, r2
 8005d42:	d152      	bne.n	8005dea <_strtod_l+0x912>
 8005d44:	9b05      	ldr	r3, [sp, #20]
 8005d46:	4650      	mov	r0, sl
 8005d48:	b1d3      	cbz	r3, 8005d80 <_strtod_l+0x8a8>
 8005d4a:	4aaa      	ldr	r2, [pc, #680]	; (8005ff4 <_strtod_l+0xb1c>)
 8005d4c:	f04f 34ff 	mov.w	r4, #4294967295
 8005d50:	400a      	ands	r2, r1
 8005d52:	f1b2 6fd4 	cmp.w	r2, #111149056	; 0x6a00000
 8005d56:	d816      	bhi.n	8005d86 <_strtod_l+0x8ae>
 8005d58:	0d12      	lsrs	r2, r2, #20
 8005d5a:	f1c2 036b 	rsb	r3, r2, #107	; 0x6b
 8005d5e:	fa04 f303 	lsl.w	r3, r4, r3
 8005d62:	4283      	cmp	r3, r0
 8005d64:	d141      	bne.n	8005dea <_strtod_l+0x912>
 8005d66:	4aa4      	ldr	r2, [pc, #656]	; (8005ff8 <_strtod_l+0xb20>)
 8005d68:	4291      	cmp	r1, r2
 8005d6a:	d102      	bne.n	8005d72 <_strtod_l+0x89a>
 8005d6c:	3301      	adds	r3, #1
 8005d6e:	f43f ae06 	beq.w	800597e <_strtod_l+0x4a6>
 8005d72:	4ba0      	ldr	r3, [pc, #640]	; (8005ff4 <_strtod_l+0xb1c>)
 8005d74:	f04f 0a00 	mov.w	sl, #0
 8005d78:	400b      	ands	r3, r1
 8005d7a:	f503 1b80 	add.w	fp, r3, #1048576	; 0x100000
 8005d7e:	e79c      	b.n	8005cba <_strtod_l+0x7e2>
 8005d80:	f04f 33ff 	mov.w	r3, #4294967295
 8005d84:	e7ed      	b.n	8005d62 <_strtod_l+0x88a>
 8005d86:	4623      	mov	r3, r4
 8005d88:	e7eb      	b.n	8005d62 <_strtod_l+0x88a>
 8005d8a:	bb73      	cbnz	r3, 8005dea <_strtod_l+0x912>
 8005d8c:	f1ba 0f00 	cmp.w	sl, #0
 8005d90:	d12b      	bne.n	8005dea <_strtod_l+0x912>
 8005d92:	f02b 4300 	bic.w	r3, fp, #2147483648	; 0x80000000
 8005d96:	9a05      	ldr	r2, [sp, #20]
 8005d98:	0d1b      	lsrs	r3, r3, #20
 8005d9a:	051b      	lsls	r3, r3, #20
 8005d9c:	b1e2      	cbz	r2, 8005dd8 <_strtod_l+0x900>
 8005d9e:	f1b3 6fd6 	cmp.w	r3, #112197632	; 0x6b00000
 8005da2:	dc19      	bgt.n	8005dd8 <_strtod_l+0x900>
 8005da4:	f1b3 7f5c 	cmp.w	r3, #57671680	; 0x3700000
 8005da8:	f77f ae5d 	ble.w	8005a66 <_strtod_l+0x58e>
 8005dac:	4b93      	ldr	r3, [pc, #588]	; (8005ffc <_strtod_l+0xb24>)
 8005dae:	4650      	mov	r0, sl
 8005db0:	930d      	str	r3, [sp, #52]	; 0x34
 8005db2:	2300      	movs	r3, #0
 8005db4:	930c      	str	r3, [sp, #48]	; 0x30
 8005db6:	4659      	mov	r1, fp
 8005db8:	e9dd 230c 	ldrd	r2, r3, [sp, #48]	; 0x30
 8005dbc:	f7fa fba0 	bl	8000500 <__aeabi_dmul>
 8005dc0:	4682      	mov	sl, r0
 8005dc2:	468b      	mov	fp, r1
 8005dc4:	2900      	cmp	r1, #0
 8005dc6:	f47f ade5 	bne.w	8005994 <_strtod_l+0x4bc>
 8005dca:	2800      	cmp	r0, #0
 8005dcc:	f47f ade2 	bne.w	8005994 <_strtod_l+0x4bc>
 8005dd0:	2322      	movs	r3, #34	; 0x22
 8005dd2:	f8c8 3000 	str.w	r3, [r8]
 8005dd6:	e5dd      	b.n	8005994 <_strtod_l+0x4bc>
 8005dd8:	f5a3 1380 	sub.w	r3, r3, #1048576	; 0x100000
 8005ddc:	ea6f 5b13 	mvn.w	fp, r3, lsr #20
 8005de0:	f04f 3aff 	mov.w	sl, #4294967295
 8005de4:	ea6f 5b0b 	mvn.w	fp, fp, lsl #20
 8005de8:	e767      	b.n	8005cba <_strtod_l+0x7e2>
 8005dea:	b19d      	cbz	r5, 8005e14 <_strtod_l+0x93c>
 8005dec:	ea15 0f0b 	tst.w	r5, fp
 8005df0:	f43f af63 	beq.w	8005cba <_strtod_l+0x7e2>
 8005df4:	9b08      	ldr	r3, [sp, #32]
 8005df6:	9a05      	ldr	r2, [sp, #20]
 8005df8:	4650      	mov	r0, sl
 8005dfa:	4659      	mov	r1, fp
 8005dfc:	b173      	cbz	r3, 8005e1c <_strtod_l+0x944>
 8005dfe:	f7ff fb4a 	bl	8005496 <sulp>
 8005e02:	4602      	mov	r2, r0
 8005e04:	460b      	mov	r3, r1
 8005e06:	e9dd 010a 	ldrd	r0, r1, [sp, #40]	; 0x28
 8005e0a:	f7fa f9c7 	bl	800019c <__adddf3>
 8005e0e:	4682      	mov	sl, r0
 8005e10:	468b      	mov	fp, r1
 8005e12:	e752      	b.n	8005cba <_strtod_l+0x7e2>
 8005e14:	9b14      	ldr	r3, [sp, #80]	; 0x50
 8005e16:	ea13 0f0a 	tst.w	r3, sl
 8005e1a:	e7e9      	b.n	8005df0 <_strtod_l+0x918>
 8005e1c:	f7ff fb3b 	bl	8005496 <sulp>
 8005e20:	4602      	mov	r2, r0
 8005e22:	460b      	mov	r3, r1
 8005e24:	e9dd 010a 	ldrd	r0, r1, [sp, #40]	; 0x28
 8005e28:	f7fa f9b6 	bl	8000198 <__aeabi_dsub>
 8005e2c:	2200      	movs	r2, #0
 8005e2e:	2300      	movs	r3, #0
 8005e30:	4682      	mov	sl, r0
 8005e32:	468b      	mov	fp, r1
 8005e34:	f7fa fdcc 	bl	80009d0 <__aeabi_dcmpeq>
 8005e38:	2800      	cmp	r0, #0
 8005e3a:	f47f ae14 	bne.w	8005a66 <_strtod_l+0x58e>
 8005e3e:	e73c      	b.n	8005cba <_strtod_l+0x7e2>
 8005e40:	9904      	ldr	r1, [sp, #16]
 8005e42:	4648      	mov	r0, r9
 8005e44:	f001 f903 	bl	800704e <__ratio>
 8005e48:	2200      	movs	r2, #0
 8005e4a:	f04f 4380 	mov.w	r3, #1073741824	; 0x40000000
 8005e4e:	4606      	mov	r6, r0
 8005e50:	460f      	mov	r7, r1
 8005e52:	f7fa fdd1 	bl	80009f8 <__aeabi_dcmple>
 8005e56:	2800      	cmp	r0, #0
 8005e58:	d070      	beq.n	8005f3c <_strtod_l+0xa64>
 8005e5a:	9b08      	ldr	r3, [sp, #32]
 8005e5c:	2b00      	cmp	r3, #0
 8005e5e:	d043      	beq.n	8005ee8 <_strtod_l+0xa10>
 8005e60:	2600      	movs	r6, #0
 8005e62:	4f67      	ldr	r7, [pc, #412]	; (8006000 <_strtod_l+0xb28>)
 8005e64:	4d66      	ldr	r5, [pc, #408]	; (8006000 <_strtod_l+0xb28>)
 8005e66:	4b63      	ldr	r3, [pc, #396]	; (8005ff4 <_strtod_l+0xb1c>)
 8005e68:	ea0b 0303 	and.w	r3, fp, r3
 8005e6c:	9314      	str	r3, [sp, #80]	; 0x50
 8005e6e:	9a14      	ldr	r2, [sp, #80]	; 0x50
 8005e70:	4b64      	ldr	r3, [pc, #400]	; (8006004 <_strtod_l+0xb2c>)
 8005e72:	429a      	cmp	r2, r3
 8005e74:	f040 80ce 	bne.w	8006014 <_strtod_l+0xb3c>
 8005e78:	e9dd 230a 	ldrd	r2, r3, [sp, #40]	; 0x28
 8005e7c:	f1ab 7b54 	sub.w	fp, fp, #55574528	; 0x3500000
 8005e80:	4650      	mov	r0, sl
 8005e82:	4659      	mov	r1, fp
 8005e84:	e9cd 230c 	strd	r2, r3, [sp, #48]	; 0x30
 8005e88:	f001 f81c 	bl	8006ec4 <__ulp>
 8005e8c:	4602      	mov	r2, r0
 8005e8e:	460b      	mov	r3, r1
 8005e90:	4630      	mov	r0, r6
 8005e92:	4639      	mov	r1, r7
 8005e94:	f7fa fb34 	bl	8000500 <__aeabi_dmul>
 8005e98:	4652      	mov	r2, sl
 8005e9a:	465b      	mov	r3, fp
 8005e9c:	f7fa f97e 	bl	800019c <__adddf3>
 8005ea0:	4a54      	ldr	r2, [pc, #336]	; (8005ff4 <_strtod_l+0xb1c>)
 8005ea2:	4b59      	ldr	r3, [pc, #356]	; (8006008 <_strtod_l+0xb30>)
 8005ea4:	400a      	ands	r2, r1
 8005ea6:	429a      	cmp	r2, r3
 8005ea8:	4682      	mov	sl, r0
 8005eaa:	d95d      	bls.n	8005f68 <_strtod_l+0xa90>
 8005eac:	9a0d      	ldr	r2, [sp, #52]	; 0x34
 8005eae:	f103 7354 	add.w	r3, r3, #55574528	; 0x3500000
 8005eb2:	429a      	cmp	r2, r3
 8005eb4:	d103      	bne.n	8005ebe <_strtod_l+0x9e6>
 8005eb6:	9b0c      	ldr	r3, [sp, #48]	; 0x30
 8005eb8:	3301      	adds	r3, #1
 8005eba:	f43f ad60 	beq.w	800597e <_strtod_l+0x4a6>
 8005ebe:	f04f 3aff 	mov.w	sl, #4294967295
 8005ec2:	f8df b134 	ldr.w	fp, [pc, #308]	; 8005ff8 <_strtod_l+0xb20>
 8005ec6:	991a      	ldr	r1, [sp, #104]	; 0x68
 8005ec8:	4640      	mov	r0, r8
 8005eca:	f000 fd6f 	bl	80069ac <_Bfree>
 8005ece:	9906      	ldr	r1, [sp, #24]
 8005ed0:	4640      	mov	r0, r8
 8005ed2:	f000 fd6b 	bl	80069ac <_Bfree>
 8005ed6:	9904      	ldr	r1, [sp, #16]
 8005ed8:	4640      	mov	r0, r8
 8005eda:	f000 fd67 	bl	80069ac <_Bfree>
 8005ede:	4649      	mov	r1, r9
 8005ee0:	4640      	mov	r0, r8
 8005ee2:	f000 fd63 	bl	80069ac <_Bfree>
 8005ee6:	e622      	b.n	8005b2e <_strtod_l+0x656>
 8005ee8:	f1ba 0f00 	cmp.w	sl, #0
 8005eec:	d118      	bne.n	8005f20 <_strtod_l+0xa48>
 8005eee:	f3cb 0313 	ubfx	r3, fp, #0, #20
 8005ef2:	b9e3      	cbnz	r3, 8005f2e <_strtod_l+0xa56>
 8005ef4:	2200      	movs	r2, #0
 8005ef6:	4b42      	ldr	r3, [pc, #264]	; (8006000 <_strtod_l+0xb28>)
 8005ef8:	4630      	mov	r0, r6
 8005efa:	4639      	mov	r1, r7
 8005efc:	f7fa fd72 	bl	80009e4 <__aeabi_dcmplt>
 8005f00:	b9c8      	cbnz	r0, 8005f36 <_strtod_l+0xa5e>
 8005f02:	2200      	movs	r2, #0
 8005f04:	4b41      	ldr	r3, [pc, #260]	; (800600c <_strtod_l+0xb34>)
 8005f06:	4630      	mov	r0, r6
 8005f08:	4639      	mov	r1, r7
 8005f0a:	f7fa faf9 	bl	8000500 <__aeabi_dmul>
 8005f0e:	4604      	mov	r4, r0
 8005f10:	460d      	mov	r5, r1
 8005f12:	f105 4300 	add.w	r3, r5, #2147483648	; 0x80000000
 8005f16:	9416      	str	r4, [sp, #88]	; 0x58
 8005f18:	9317      	str	r3, [sp, #92]	; 0x5c
 8005f1a:	e9dd 6716 	ldrd	r6, r7, [sp, #88]	; 0x58
 8005f1e:	e7a2      	b.n	8005e66 <_strtod_l+0x98e>
 8005f20:	f1ba 0f01 	cmp.w	sl, #1
 8005f24:	d103      	bne.n	8005f2e <_strtod_l+0xa56>
 8005f26:	f1bb 0f00 	cmp.w	fp, #0
 8005f2a:	f43f ad9c 	beq.w	8005a66 <_strtod_l+0x58e>
 8005f2e:	2600      	movs	r6, #0
 8005f30:	4f37      	ldr	r7, [pc, #220]	; (8006010 <_strtod_l+0xb38>)
 8005f32:	2400      	movs	r4, #0
 8005f34:	e796      	b.n	8005e64 <_strtod_l+0x98c>
 8005f36:	9c08      	ldr	r4, [sp, #32]
 8005f38:	4d34      	ldr	r5, [pc, #208]	; (800600c <_strtod_l+0xb34>)
 8005f3a:	e7ea      	b.n	8005f12 <_strtod_l+0xa3a>
 8005f3c:	4b33      	ldr	r3, [pc, #204]	; (800600c <_strtod_l+0xb34>)
 8005f3e:	2200      	movs	r2, #0
 8005f40:	4630      	mov	r0, r6
 8005f42:	4639      	mov	r1, r7
 8005f44:	f7fa fadc 	bl	8000500 <__aeabi_dmul>
 8005f48:	9b08      	ldr	r3, [sp, #32]
 8005f4a:	4604      	mov	r4, r0
 8005f4c:	460d      	mov	r5, r1
 8005f4e:	b933      	cbnz	r3, 8005f5e <_strtod_l+0xa86>
 8005f50:	f101 4300 	add.w	r3, r1, #2147483648	; 0x80000000
 8005f54:	9010      	str	r0, [sp, #64]	; 0x40
 8005f56:	9311      	str	r3, [sp, #68]	; 0x44
 8005f58:	e9dd 6710 	ldrd	r6, r7, [sp, #64]	; 0x40
 8005f5c:	e783      	b.n	8005e66 <_strtod_l+0x98e>
 8005f5e:	4602      	mov	r2, r0
 8005f60:	460b      	mov	r3, r1
 8005f62:	e9cd 2310 	strd	r2, r3, [sp, #64]	; 0x40
 8005f66:	e7f7      	b.n	8005f58 <_strtod_l+0xa80>
 8005f68:	f101 7b54 	add.w	fp, r1, #55574528	; 0x3500000
 8005f6c:	9b05      	ldr	r3, [sp, #20]
 8005f6e:	2b00      	cmp	r3, #0
 8005f70:	d1a9      	bne.n	8005ec6 <_strtod_l+0x9ee>
 8005f72:	f02b 4300 	bic.w	r3, fp, #2147483648	; 0x80000000
 8005f76:	0d1b      	lsrs	r3, r3, #20
 8005f78:	9a14      	ldr	r2, [sp, #80]	; 0x50
 8005f7a:	051b      	lsls	r3, r3, #20
 8005f7c:	429a      	cmp	r2, r3
 8005f7e:	465e      	mov	r6, fp
 8005f80:	d1a1      	bne.n	8005ec6 <_strtod_l+0x9ee>
 8005f82:	4629      	mov	r1, r5
 8005f84:	4620      	mov	r0, r4
 8005f86:	f7fa fd55 	bl	8000a34 <__aeabi_d2iz>
 8005f8a:	f7fa fa53 	bl	8000434 <__aeabi_i2d>
 8005f8e:	460b      	mov	r3, r1
 8005f90:	4602      	mov	r2, r0
 8005f92:	4629      	mov	r1, r5
 8005f94:	4620      	mov	r0, r4
 8005f96:	f7fa f8ff 	bl	8000198 <__aeabi_dsub>
 8005f9a:	9b08      	ldr	r3, [sp, #32]
 8005f9c:	4604      	mov	r4, r0
 8005f9e:	460d      	mov	r5, r1
 8005fa0:	b933      	cbnz	r3, 8005fb0 <_strtod_l+0xad8>
 8005fa2:	f1ba 0f00 	cmp.w	sl, #0
 8005fa6:	d103      	bne.n	8005fb0 <_strtod_l+0xad8>
 8005fa8:	f3cb 0613 	ubfx	r6, fp, #0, #20
 8005fac:	2e00      	cmp	r6, #0
 8005fae:	d06c      	beq.n	800608a <_strtod_l+0xbb2>
 8005fb0:	a30b      	add	r3, pc, #44	; (adr r3, 8005fe0 <_strtod_l+0xb08>)
 8005fb2:	e9d3 2300 	ldrd	r2, r3, [r3]
 8005fb6:	4620      	mov	r0, r4
 8005fb8:	4629      	mov	r1, r5
 8005fba:	f7fa fd13 	bl	80009e4 <__aeabi_dcmplt>
 8005fbe:	2800      	cmp	r0, #0
 8005fc0:	f47f ace8 	bne.w	8005994 <_strtod_l+0x4bc>
 8005fc4:	a308      	add	r3, pc, #32	; (adr r3, 8005fe8 <_strtod_l+0xb10>)
 8005fc6:	e9d3 2300 	ldrd	r2, r3, [r3]
 8005fca:	4620      	mov	r0, r4
 8005fcc:	4629      	mov	r1, r5
 8005fce:	f7fa fd27 	bl	8000a20 <__aeabi_dcmpgt>
 8005fd2:	2800      	cmp	r0, #0
 8005fd4:	f43f af77 	beq.w	8005ec6 <_strtod_l+0x9ee>
 8005fd8:	e4dc      	b.n	8005994 <_strtod_l+0x4bc>
 8005fda:	bf00      	nop
 8005fdc:	f3af 8000 	nop.w
 8005fe0:	94a03595 	.word	0x94a03595
 8005fe4:	3fdfffff 	.word	0x3fdfffff
 8005fe8:	35afe535 	.word	0x35afe535
 8005fec:	3fe00000 	.word	0x3fe00000
 8005ff0:	000fffff 	.word	0x000fffff
 8005ff4:	7ff00000 	.word	0x7ff00000
 8005ff8:	7fefffff 	.word	0x7fefffff
 8005ffc:	39500000 	.word	0x39500000
 8006000:	3ff00000 	.word	0x3ff00000
 8006004:	7fe00000 	.word	0x7fe00000
 8006008:	7c9fffff 	.word	0x7c9fffff
 800600c:	3fe00000 	.word	0x3fe00000
 8006010:	bff00000 	.word	0xbff00000
 8006014:	9b05      	ldr	r3, [sp, #20]
 8006016:	b313      	cbz	r3, 800605e <_strtod_l+0xb86>
 8006018:	9b14      	ldr	r3, [sp, #80]	; 0x50
 800601a:	f1b3 6fd4 	cmp.w	r3, #111149056	; 0x6a00000
 800601e:	d81e      	bhi.n	800605e <_strtod_l+0xb86>
 8006020:	a325      	add	r3, pc, #148	; (adr r3, 80060b8 <_strtod_l+0xbe0>)
 8006022:	e9d3 2300 	ldrd	r2, r3, [r3]
 8006026:	4620      	mov	r0, r4
 8006028:	4629      	mov	r1, r5
 800602a:	f7fa fce5 	bl	80009f8 <__aeabi_dcmple>
 800602e:	b190      	cbz	r0, 8006056 <_strtod_l+0xb7e>
 8006030:	4629      	mov	r1, r5
 8006032:	4620      	mov	r0, r4
 8006034:	f7fa fd26 	bl	8000a84 <__aeabi_d2uiz>
 8006038:	2800      	cmp	r0, #0
 800603a:	bf08      	it	eq
 800603c:	2001      	moveq	r0, #1
 800603e:	f7fa f9e9 	bl	8000414 <__aeabi_ui2d>
 8006042:	9b08      	ldr	r3, [sp, #32]
 8006044:	4604      	mov	r4, r0
 8006046:	460d      	mov	r5, r1
 8006048:	b9d3      	cbnz	r3, 8006080 <_strtod_l+0xba8>
 800604a:	f101 4300 	add.w	r3, r1, #2147483648	; 0x80000000
 800604e:	9012      	str	r0, [sp, #72]	; 0x48
 8006050:	9313      	str	r3, [sp, #76]	; 0x4c
 8006052:	e9dd 6712 	ldrd	r6, r7, [sp, #72]	; 0x48
 8006056:	9a14      	ldr	r2, [sp, #80]	; 0x50
 8006058:	f107 63d6 	add.w	r3, r7, #112197632	; 0x6b00000
 800605c:	1a9f      	subs	r7, r3, r2
 800605e:	e9dd 010a 	ldrd	r0, r1, [sp, #40]	; 0x28
 8006062:	f000 ff2f 	bl	8006ec4 <__ulp>
 8006066:	4602      	mov	r2, r0
 8006068:	460b      	mov	r3, r1
 800606a:	4630      	mov	r0, r6
 800606c:	4639      	mov	r1, r7
 800606e:	f7fa fa47 	bl	8000500 <__aeabi_dmul>
 8006072:	e9dd 230a 	ldrd	r2, r3, [sp, #40]	; 0x28
 8006076:	f7fa f891 	bl	800019c <__adddf3>
 800607a:	4682      	mov	sl, r0
 800607c:	468b      	mov	fp, r1
 800607e:	e775      	b.n	8005f6c <_strtod_l+0xa94>
 8006080:	4602      	mov	r2, r0
 8006082:	460b      	mov	r3, r1
 8006084:	e9cd 2312 	strd	r2, r3, [sp, #72]	; 0x48
 8006088:	e7e3      	b.n	8006052 <_strtod_l+0xb7a>
 800608a:	a30d      	add	r3, pc, #52	; (adr r3, 80060c0 <_strtod_l+0xbe8>)
 800608c:	e9d3 2300 	ldrd	r2, r3, [r3]
 8006090:	f7fa fca8 	bl	80009e4 <__aeabi_dcmplt>
 8006094:	e79d      	b.n	8005fd2 <_strtod_l+0xafa>
 8006096:	2300      	movs	r3, #0
 8006098:	9309      	str	r3, [sp, #36]	; 0x24
 800609a:	9b19      	ldr	r3, [sp, #100]	; 0x64
 800609c:	9a15      	ldr	r2, [sp, #84]	; 0x54
 800609e:	6013      	str	r3, [r2, #0]
 80060a0:	f7ff ba5e 	b.w	8005560 <_strtod_l+0x88>
 80060a4:	2b65      	cmp	r3, #101	; 0x65
 80060a6:	f04f 0200 	mov.w	r2, #0
 80060aa:	f43f abae 	beq.w	800580a <_strtod_l+0x332>
 80060ae:	4615      	mov	r5, r2
 80060b0:	2101      	movs	r1, #1
 80060b2:	f7ff bacd 	b.w	8005650 <_strtod_l+0x178>
 80060b6:	bf00      	nop
 80060b8:	ffc00000 	.word	0xffc00000
 80060bc:	41dfffff 	.word	0x41dfffff
 80060c0:	94a03595 	.word	0x94a03595
 80060c4:	3fcfffff 	.word	0x3fcfffff

080060c8 <strtod>:
 80060c8:	4b06      	ldr	r3, [pc, #24]	; (80060e4 <strtod+0x1c>)
 80060ca:	b410      	push	{r4}
 80060cc:	681c      	ldr	r4, [r3, #0]
 80060ce:	4a06      	ldr	r2, [pc, #24]	; (80060e8 <strtod+0x20>)
 80060d0:	6a23      	ldr	r3, [r4, #32]
 80060d2:	2b00      	cmp	r3, #0
 80060d4:	bf08      	it	eq
 80060d6:	4613      	moveq	r3, r2
 80060d8:	460a      	mov	r2, r1
 80060da:	4601      	mov	r1, r0
 80060dc:	4620      	mov	r0, r4
 80060de:	bc10      	pop	{r4}
 80060e0:	f7ff b9fa 	b.w	80054d8 <_strtod_l>
 80060e4:	20000008 	.word	0x20000008
 80060e8:	2000006c 	.word	0x2000006c

080060ec <strtok>:
 80060ec:	4b13      	ldr	r3, [pc, #76]	; (800613c <strtok+0x50>)
 80060ee:	e92d 41f0 	stmdb	sp!, {r4, r5, r6, r7, r8, lr}
 80060f2:	681d      	ldr	r5, [r3, #0]
 80060f4:	4606      	mov	r6, r0
 80060f6:	6dac      	ldr	r4, [r5, #88]	; 0x58
 80060f8:	460f      	mov	r7, r1
 80060fa:	b9b4      	cbnz	r4, 800612a <strtok+0x3e>
 80060fc:	2050      	movs	r0, #80	; 0x50
 80060fe:	f7ff f877 	bl	80051f0 <malloc>
 8006102:	65a8      	str	r0, [r5, #88]	; 0x58
 8006104:	6004      	str	r4, [r0, #0]
 8006106:	6044      	str	r4, [r0, #4]
 8006108:	6084      	str	r4, [r0, #8]
 800610a:	60c4      	str	r4, [r0, #12]
 800610c:	6104      	str	r4, [r0, #16]
 800610e:	6144      	str	r4, [r0, #20]
 8006110:	6184      	str	r4, [r0, #24]
 8006112:	6284      	str	r4, [r0, #40]	; 0x28
 8006114:	62c4      	str	r4, [r0, #44]	; 0x2c
 8006116:	6304      	str	r4, [r0, #48]	; 0x30
 8006118:	6344      	str	r4, [r0, #52]	; 0x34
 800611a:	6384      	str	r4, [r0, #56]	; 0x38
 800611c:	63c4      	str	r4, [r0, #60]	; 0x3c
 800611e:	6404      	str	r4, [r0, #64]	; 0x40
 8006120:	6444      	str	r4, [r0, #68]	; 0x44
 8006122:	6484      	str	r4, [r0, #72]	; 0x48
 8006124:	64c4      	str	r4, [r0, #76]	; 0x4c
 8006126:	7704      	strb	r4, [r0, #28]
 8006128:	6244      	str	r4, [r0, #36]	; 0x24
 800612a:	6daa      	ldr	r2, [r5, #88]	; 0x58
 800612c:	4639      	mov	r1, r7
 800612e:	4630      	mov	r0, r6
 8006130:	e8bd 41f0 	ldmia.w	sp!, {r4, r5, r6, r7, r8, lr}
 8006134:	2301      	movs	r3, #1
 8006136:	f000 b803 	b.w	8006140 <__strtok_r>
 800613a:	bf00      	nop
 800613c:	20000008 	.word	0x20000008

08006140 <__strtok_r>:
 8006140:	b5f0      	push	{r4, r5, r6, r7, lr}
 8006142:	b918      	cbnz	r0, 800614c <__strtok_r+0xc>
 8006144:	6810      	ldr	r0, [r2, #0]
 8006146:	b908      	cbnz	r0, 800614c <__strtok_r+0xc>
 8006148:	bdf0      	pop	{r4, r5, r6, r7, pc}
 800614a:	4620      	mov	r0, r4
 800614c:	4604      	mov	r4, r0
 800614e:	460f      	mov	r7, r1
 8006150:	f814 5b01 	ldrb.w	r5, [r4], #1
 8006154:	f817 6b01 	ldrb.w	r6, [r7], #1
 8006158:	b91e      	cbnz	r6, 8006162 <__strtok_r+0x22>
 800615a:	b965      	cbnz	r5, 8006176 <__strtok_r+0x36>
 800615c:	6015      	str	r5, [r2, #0]
 800615e:	4628      	mov	r0, r5
 8006160:	bdf0      	pop	{r4, r5, r6, r7, pc}
 8006162:	42b5      	cmp	r5, r6
 8006164:	d1f6      	bne.n	8006154 <__strtok_r+0x14>
 8006166:	2b00      	cmp	r3, #0
 8006168:	d1ef      	bne.n	800614a <__strtok_r+0xa>
 800616a:	6014      	str	r4, [r2, #0]
 800616c:	7003      	strb	r3, [r0, #0]
 800616e:	bdf0      	pop	{r4, r5, r6, r7, pc}
 8006170:	461c      	mov	r4, r3
 8006172:	e00c      	b.n	800618e <__strtok_r+0x4e>
 8006174:	b915      	cbnz	r5, 800617c <__strtok_r+0x3c>
 8006176:	460e      	mov	r6, r1
 8006178:	f814 3b01 	ldrb.w	r3, [r4], #1
 800617c:	f816 5b01 	ldrb.w	r5, [r6], #1
 8006180:	42ab      	cmp	r3, r5
 8006182:	d1f7      	bne.n	8006174 <__strtok_r+0x34>
 8006184:	2b00      	cmp	r3, #0
 8006186:	d0f3      	beq.n	8006170 <__strtok_r+0x30>
 8006188:	2300      	movs	r3, #0
 800618a:	f804 3c01 	strb.w	r3, [r4, #-1]
 800618e:	6014      	str	r4, [r2, #0]
 8006190:	bdf0      	pop	{r4, r5, r6, r7, pc}

08006192 <_strtol_l.isra.0>:
 8006192:	e92d 4ff8 	stmdb	sp!, {r3, r4, r5, r6, r7, r8, r9, sl, fp, lr}
 8006196:	4680      	mov	r8, r0
 8006198:	4689      	mov	r9, r1
 800619a:	4692      	mov	sl, r2
 800619c:	461f      	mov	r7, r3
 800619e:	468b      	mov	fp, r1
 80061a0:	465d      	mov	r5, fp
 80061a2:	980a      	ldr	r0, [sp, #40]	; 0x28
 80061a4:	f815 4b01 	ldrb.w	r4, [r5], #1
 80061a8:	f000 fba8 	bl	80068fc <__locale_ctype_ptr_l>
 80061ac:	4420      	add	r0, r4
 80061ae:	7846      	ldrb	r6, [r0, #1]
 80061b0:	f016 0608 	ands.w	r6, r6, #8
 80061b4:	d10b      	bne.n	80061ce <_strtol_l.isra.0+0x3c>
 80061b6:	2c2d      	cmp	r4, #45	; 0x2d
 80061b8:	d10b      	bne.n	80061d2 <_strtol_l.isra.0+0x40>
 80061ba:	2601      	movs	r6, #1
 80061bc:	782c      	ldrb	r4, [r5, #0]
 80061be:	f10b 0502 	add.w	r5, fp, #2
 80061c2:	b167      	cbz	r7, 80061de <_strtol_l.isra.0+0x4c>
 80061c4:	2f10      	cmp	r7, #16
 80061c6:	d114      	bne.n	80061f2 <_strtol_l.isra.0+0x60>
 80061c8:	2c30      	cmp	r4, #48	; 0x30
 80061ca:	d00a      	beq.n	80061e2 <_strtol_l.isra.0+0x50>
 80061cc:	e011      	b.n	80061f2 <_strtol_l.isra.0+0x60>
 80061ce:	46ab      	mov	fp, r5
 80061d0:	e7e6      	b.n	80061a0 <_strtol_l.isra.0+0xe>
 80061d2:	2c2b      	cmp	r4, #43	; 0x2b
 80061d4:	bf04      	itt	eq
 80061d6:	782c      	ldrbeq	r4, [r5, #0]
 80061d8:	f10b 0502 	addeq.w	r5, fp, #2
 80061dc:	e7f1      	b.n	80061c2 <_strtol_l.isra.0+0x30>
 80061de:	2c30      	cmp	r4, #48	; 0x30
 80061e0:	d127      	bne.n	8006232 <_strtol_l.isra.0+0xa0>
 80061e2:	782b      	ldrb	r3, [r5, #0]
 80061e4:	f003 03df 	and.w	r3, r3, #223	; 0xdf
 80061e8:	2b58      	cmp	r3, #88	; 0x58
 80061ea:	d14b      	bne.n	8006284 <_strtol_l.isra.0+0xf2>
 80061ec:	2710      	movs	r7, #16
 80061ee:	786c      	ldrb	r4, [r5, #1]
 80061f0:	3502      	adds	r5, #2
 80061f2:	2e00      	cmp	r6, #0
 80061f4:	bf0c      	ite	eq
 80061f6:	f06f 4100 	mvneq.w	r1, #2147483648	; 0x80000000
 80061fa:	f04f 4100 	movne.w	r1, #2147483648	; 0x80000000
 80061fe:	2200      	movs	r2, #0
 8006200:	fbb1 fef7 	udiv	lr, r1, r7
 8006204:	4610      	mov	r0, r2
 8006206:	fb07 1c1e 	mls	ip, r7, lr, r1
 800620a:	f1a4 0330 	sub.w	r3, r4, #48	; 0x30
 800620e:	2b09      	cmp	r3, #9
 8006210:	d811      	bhi.n	8006236 <_strtol_l.isra.0+0xa4>
 8006212:	461c      	mov	r4, r3
 8006214:	42a7      	cmp	r7, r4
 8006216:	dd1d      	ble.n	8006254 <_strtol_l.isra.0+0xc2>
 8006218:	1c53      	adds	r3, r2, #1
 800621a:	d007      	beq.n	800622c <_strtol_l.isra.0+0x9a>
 800621c:	4586      	cmp	lr, r0
 800621e:	d316      	bcc.n	800624e <_strtol_l.isra.0+0xbc>
 8006220:	d101      	bne.n	8006226 <_strtol_l.isra.0+0x94>
 8006222:	45a4      	cmp	ip, r4
 8006224:	db13      	blt.n	800624e <_strtol_l.isra.0+0xbc>
 8006226:	2201      	movs	r2, #1
 8006228:	fb00 4007 	mla	r0, r0, r7, r4
 800622c:	f815 4b01 	ldrb.w	r4, [r5], #1
 8006230:	e7eb      	b.n	800620a <_strtol_l.isra.0+0x78>
 8006232:	270a      	movs	r7, #10
 8006234:	e7dd      	b.n	80061f2 <_strtol_l.isra.0+0x60>
 8006236:	f1a4 0341 	sub.w	r3, r4, #65	; 0x41
 800623a:	2b19      	cmp	r3, #25
 800623c:	d801      	bhi.n	8006242 <_strtol_l.isra.0+0xb0>
 800623e:	3c37      	subs	r4, #55	; 0x37
 8006240:	e7e8      	b.n	8006214 <_strtol_l.isra.0+0x82>
 8006242:	f1a4 0361 	sub.w	r3, r4, #97	; 0x61
 8006246:	2b19      	cmp	r3, #25
 8006248:	d804      	bhi.n	8006254 <_strtol_l.isra.0+0xc2>
 800624a:	3c57      	subs	r4, #87	; 0x57
 800624c:	e7e2      	b.n	8006214 <_strtol_l.isra.0+0x82>
 800624e:	f04f 32ff 	mov.w	r2, #4294967295
 8006252:	e7eb      	b.n	800622c <_strtol_l.isra.0+0x9a>
 8006254:	1c53      	adds	r3, r2, #1
 8006256:	d108      	bne.n	800626a <_strtol_l.isra.0+0xd8>
 8006258:	2322      	movs	r3, #34	; 0x22
 800625a:	4608      	mov	r0, r1
 800625c:	f8c8 3000 	str.w	r3, [r8]
 8006260:	f1ba 0f00 	cmp.w	sl, #0
 8006264:	d107      	bne.n	8006276 <_strtol_l.isra.0+0xe4>
 8006266:	e8bd 8ff8 	ldmia.w	sp!, {r3, r4, r5, r6, r7, r8, r9, sl, fp, pc}
 800626a:	b106      	cbz	r6, 800626e <_strtol_l.isra.0+0xdc>
 800626c:	4240      	negs	r0, r0
 800626e:	f1ba 0f00 	cmp.w	sl, #0
 8006272:	d00c      	beq.n	800628e <_strtol_l.isra.0+0xfc>
 8006274:	b122      	cbz	r2, 8006280 <_strtol_l.isra.0+0xee>
 8006276:	3d01      	subs	r5, #1
 8006278:	f8ca 5000 	str.w	r5, [sl]
 800627c:	e8bd 8ff8 	ldmia.w	sp!, {r3, r4, r5, r6, r7, r8, r9, sl, fp, pc}
 8006280:	464d      	mov	r5, r9
 8006282:	e7f9      	b.n	8006278 <_strtol_l.isra.0+0xe6>
 8006284:	2430      	movs	r4, #48	; 0x30
 8006286:	2f00      	cmp	r7, #0
 8006288:	d1b3      	bne.n	80061f2 <_strtol_l.isra.0+0x60>
 800628a:	2708      	movs	r7, #8
 800628c:	e7b1      	b.n	80061f2 <_strtol_l.isra.0+0x60>
 800628e:	e8bd 8ff8 	ldmia.w	sp!, {r3, r4, r5, r6, r7, r8, r9, sl, fp, pc}
	...

08006294 <strtol>:
 8006294:	4b08      	ldr	r3, [pc, #32]	; (80062b8 <strtol+0x24>)
 8006296:	b537      	push	{r0, r1, r2, r4, r5, lr}
 8006298:	681c      	ldr	r4, [r3, #0]
 800629a:	4d08      	ldr	r5, [pc, #32]	; (80062bc <strtol+0x28>)
 800629c:	6a23      	ldr	r3, [r4, #32]
 800629e:	2b00      	cmp	r3, #0
 80062a0:	bf08      	it	eq
 80062a2:	462b      	moveq	r3, r5
 80062a4:	9300      	str	r3, [sp, #0]
 80062a6:	4613      	mov	r3, r2
 80062a8:	460a      	mov	r2, r1
 80062aa:	4601      	mov	r1, r0
 80062ac:	4620      	mov	r0, r4
 80062ae:	f7ff ff70 	bl	8006192 <_strtol_l.isra.0>
 80062b2:	b003      	add	sp, #12
 80062b4:	bd30      	pop	{r4, r5, pc}
 80062b6:	bf00      	nop
 80062b8:	20000008 	.word	0x20000008
 80062bc:	2000006c 	.word	0x2000006c

080062c0 <rshift>:
 80062c0:	b5f0      	push	{r4, r5, r6, r7, lr}
 80062c2:	6906      	ldr	r6, [r0, #16]
 80062c4:	114b      	asrs	r3, r1, #5
 80062c6:	42b3      	cmp	r3, r6
 80062c8:	f100 0514 	add.w	r5, r0, #20
 80062cc:	da2b      	bge.n	8006326 <rshift+0x66>
 80062ce:	f011 011f 	ands.w	r1, r1, #31
 80062d2:	eb05 0686 	add.w	r6, r5, r6, lsl #2
 80062d6:	eb05 0283 	add.w	r2, r5, r3, lsl #2
 80062da:	d108      	bne.n	80062ee <rshift+0x2e>
 80062dc:	4629      	mov	r1, r5
 80062de:	42b2      	cmp	r2, r6
 80062e0:	460b      	mov	r3, r1
 80062e2:	d210      	bcs.n	8006306 <rshift+0x46>
 80062e4:	f852 3b04 	ldr.w	r3, [r2], #4
 80062e8:	f841 3b04 	str.w	r3, [r1], #4
 80062ec:	e7f7      	b.n	80062de <rshift+0x1e>
 80062ee:	f855 4023 	ldr.w	r4, [r5, r3, lsl #2]
 80062f2:	462b      	mov	r3, r5
 80062f4:	f1c1 0e20 	rsb	lr, r1, #32
 80062f8:	3204      	adds	r2, #4
 80062fa:	40cc      	lsrs	r4, r1
 80062fc:	42b2      	cmp	r2, r6
 80062fe:	d308      	bcc.n	8006312 <rshift+0x52>
 8006300:	601c      	str	r4, [r3, #0]
 8006302:	b104      	cbz	r4, 8006306 <rshift+0x46>
 8006304:	3304      	adds	r3, #4
 8006306:	1b5b      	subs	r3, r3, r5
 8006308:	109b      	asrs	r3, r3, #2
 800630a:	6103      	str	r3, [r0, #16]
 800630c:	b903      	cbnz	r3, 8006310 <rshift+0x50>
 800630e:	6143      	str	r3, [r0, #20]
 8006310:	bdf0      	pop	{r4, r5, r6, r7, pc}
 8006312:	6817      	ldr	r7, [r2, #0]
 8006314:	fa07 f70e 	lsl.w	r7, r7, lr
 8006318:	433c      	orrs	r4, r7
 800631a:	f843 4b04 	str.w	r4, [r3], #4
 800631e:	f852 4b04 	ldr.w	r4, [r2], #4
 8006322:	40cc      	lsrs	r4, r1
 8006324:	e7ea      	b.n	80062fc <rshift+0x3c>
 8006326:	462b      	mov	r3, r5
 8006328:	e7ed      	b.n	8006306 <rshift+0x46>

0800632a <__hexdig_fun>:
 800632a:	f1a0 0330 	sub.w	r3, r0, #48	; 0x30
 800632e:	2b09      	cmp	r3, #9
 8006330:	d802      	bhi.n	8006338 <__hexdig_fun+0xe>
 8006332:	3820      	subs	r0, #32
 8006334:	b2c0      	uxtb	r0, r0
 8006336:	4770      	bx	lr
 8006338:	f1a0 0361 	sub.w	r3, r0, #97	; 0x61
 800633c:	2b05      	cmp	r3, #5
 800633e:	d801      	bhi.n	8006344 <__hexdig_fun+0x1a>
 8006340:	3847      	subs	r0, #71	; 0x47
 8006342:	e7f7      	b.n	8006334 <__hexdig_fun+0xa>
 8006344:	f1a0 0341 	sub.w	r3, r0, #65	; 0x41
 8006348:	2b05      	cmp	r3, #5
 800634a:	d801      	bhi.n	8006350 <__hexdig_fun+0x26>
 800634c:	3827      	subs	r0, #39	; 0x27
 800634e:	e7f1      	b.n	8006334 <__hexdig_fun+0xa>
 8006350:	2000      	movs	r0, #0
 8006352:	4770      	bx	lr

08006354 <__gethex>:
 8006354:	e92d 4ff0 	stmdb	sp!, {r4, r5, r6, r7, r8, r9, sl, fp, lr}
 8006358:	b08b      	sub	sp, #44	; 0x2c
 800635a:	9002      	str	r0, [sp, #8]
 800635c:	9816      	ldr	r0, [sp, #88]	; 0x58
 800635e:	468a      	mov	sl, r1
 8006360:	4690      	mov	r8, r2
 8006362:	9306      	str	r3, [sp, #24]
 8006364:	f000 facd 	bl	8006902 <__localeconv_l>
 8006368:	6803      	ldr	r3, [r0, #0]
 800636a:	f04f 0b00 	mov.w	fp, #0
 800636e:	4618      	mov	r0, r3
 8006370:	9303      	str	r3, [sp, #12]
 8006372:	f7f9 ff05 	bl	8000180 <strlen>
 8006376:	9b03      	ldr	r3, [sp, #12]
 8006378:	9001      	str	r0, [sp, #4]
 800637a:	4403      	add	r3, r0
 800637c:	f813 3c01 	ldrb.w	r3, [r3, #-1]
 8006380:	9307      	str	r3, [sp, #28]
 8006382:	f8da 3000 	ldr.w	r3, [sl]
 8006386:	3302      	adds	r3, #2
 8006388:	461f      	mov	r7, r3
 800638a:	f813 0b01 	ldrb.w	r0, [r3], #1
 800638e:	2830      	cmp	r0, #48	; 0x30
 8006390:	d06c      	beq.n	800646c <__gethex+0x118>
 8006392:	f7ff ffca 	bl	800632a <__hexdig_fun>
 8006396:	4604      	mov	r4, r0
 8006398:	2800      	cmp	r0, #0
 800639a:	d16a      	bne.n	8006472 <__gethex+0x11e>
 800639c:	9a01      	ldr	r2, [sp, #4]
 800639e:	9903      	ldr	r1, [sp, #12]
 80063a0:	4638      	mov	r0, r7
 80063a2:	f7ff f866 	bl	8005472 <strncmp>
 80063a6:	2800      	cmp	r0, #0
 80063a8:	d166      	bne.n	8006478 <__gethex+0x124>
 80063aa:	9b01      	ldr	r3, [sp, #4]
 80063ac:	5cf8      	ldrb	r0, [r7, r3]
 80063ae:	18fe      	adds	r6, r7, r3
 80063b0:	f7ff ffbb 	bl	800632a <__hexdig_fun>
 80063b4:	2800      	cmp	r0, #0
 80063b6:	d062      	beq.n	800647e <__gethex+0x12a>
 80063b8:	4633      	mov	r3, r6
 80063ba:	7818      	ldrb	r0, [r3, #0]
 80063bc:	461f      	mov	r7, r3
 80063be:	2830      	cmp	r0, #48	; 0x30
 80063c0:	f103 0301 	add.w	r3, r3, #1
 80063c4:	d0f9      	beq.n	80063ba <__gethex+0x66>
 80063c6:	f7ff ffb0 	bl	800632a <__hexdig_fun>
 80063ca:	fab0 f580 	clz	r5, r0
 80063ce:	4634      	mov	r4, r6
 80063d0:	f04f 0b01 	mov.w	fp, #1
 80063d4:	096d      	lsrs	r5, r5, #5
 80063d6:	463a      	mov	r2, r7
 80063d8:	4616      	mov	r6, r2
 80063da:	7830      	ldrb	r0, [r6, #0]
 80063dc:	3201      	adds	r2, #1
 80063de:	f7ff ffa4 	bl	800632a <__hexdig_fun>
 80063e2:	2800      	cmp	r0, #0
 80063e4:	d1f8      	bne.n	80063d8 <__gethex+0x84>
 80063e6:	9a01      	ldr	r2, [sp, #4]
 80063e8:	9903      	ldr	r1, [sp, #12]
 80063ea:	4630      	mov	r0, r6
 80063ec:	f7ff f841 	bl	8005472 <strncmp>
 80063f0:	b950      	cbnz	r0, 8006408 <__gethex+0xb4>
 80063f2:	b954      	cbnz	r4, 800640a <__gethex+0xb6>
 80063f4:	9b01      	ldr	r3, [sp, #4]
 80063f6:	18f4      	adds	r4, r6, r3
 80063f8:	4622      	mov	r2, r4
 80063fa:	4616      	mov	r6, r2
 80063fc:	7830      	ldrb	r0, [r6, #0]
 80063fe:	3201      	adds	r2, #1
 8006400:	f7ff ff93 	bl	800632a <__hexdig_fun>
 8006404:	2800      	cmp	r0, #0
 8006406:	d1f8      	bne.n	80063fa <__gethex+0xa6>
 8006408:	b10c      	cbz	r4, 800640e <__gethex+0xba>
 800640a:	1ba4      	subs	r4, r4, r6
 800640c:	00a4      	lsls	r4, r4, #2
 800640e:	7833      	ldrb	r3, [r6, #0]
 8006410:	2b50      	cmp	r3, #80	; 0x50
 8006412:	d001      	beq.n	8006418 <__gethex+0xc4>
 8006414:	2b70      	cmp	r3, #112	; 0x70
 8006416:	d140      	bne.n	800649a <__gethex+0x146>
 8006418:	7873      	ldrb	r3, [r6, #1]
 800641a:	2b2b      	cmp	r3, #43	; 0x2b
 800641c:	d035      	beq.n	800648a <__gethex+0x136>
 800641e:	2b2d      	cmp	r3, #45	; 0x2d
 8006420:	d02f      	beq.n	8006482 <__gethex+0x12e>
 8006422:	f04f 0900 	mov.w	r9, #0
 8006426:	1c71      	adds	r1, r6, #1
 8006428:	7808      	ldrb	r0, [r1, #0]
 800642a:	f7ff ff7e 	bl	800632a <__hexdig_fun>
 800642e:	1e43      	subs	r3, r0, #1
 8006430:	b2db      	uxtb	r3, r3
 8006432:	2b18      	cmp	r3, #24
 8006434:	d831      	bhi.n	800649a <__gethex+0x146>
 8006436:	f1a0 0210 	sub.w	r2, r0, #16
 800643a:	f811 0f01 	ldrb.w	r0, [r1, #1]!
 800643e:	f7ff ff74 	bl	800632a <__hexdig_fun>
 8006442:	1e43      	subs	r3, r0, #1
 8006444:	b2db      	uxtb	r3, r3
 8006446:	2b18      	cmp	r3, #24
 8006448:	d922      	bls.n	8006490 <__gethex+0x13c>
 800644a:	f1b9 0f00 	cmp.w	r9, #0
 800644e:	d000      	beq.n	8006452 <__gethex+0xfe>
 8006450:	4252      	negs	r2, r2
 8006452:	4414      	add	r4, r2
 8006454:	f8ca 1000 	str.w	r1, [sl]
 8006458:	b30d      	cbz	r5, 800649e <__gethex+0x14a>
 800645a:	f1bb 0f00 	cmp.w	fp, #0
 800645e:	bf14      	ite	ne
 8006460:	2700      	movne	r7, #0
 8006462:	2706      	moveq	r7, #6
 8006464:	4638      	mov	r0, r7
 8006466:	b00b      	add	sp, #44	; 0x2c
 8006468:	e8bd 8ff0 	ldmia.w	sp!, {r4, r5, r6, r7, r8, r9, sl, fp, pc}
 800646c:	f10b 0b01 	add.w	fp, fp, #1
 8006470:	e78a      	b.n	8006388 <__gethex+0x34>
 8006472:	2500      	movs	r5, #0
 8006474:	462c      	mov	r4, r5
 8006476:	e7ae      	b.n	80063d6 <__gethex+0x82>
 8006478:	463e      	mov	r6, r7
 800647a:	2501      	movs	r5, #1
 800647c:	e7c7      	b.n	800640e <__gethex+0xba>
 800647e:	4604      	mov	r4, r0
 8006480:	e7fb      	b.n	800647a <__gethex+0x126>
 8006482:	f04f 0901 	mov.w	r9, #1
 8006486:	1cb1      	adds	r1, r6, #2
 8006488:	e7ce      	b.n	8006428 <__gethex+0xd4>
 800648a:	f04f 0900 	mov.w	r9, #0
 800648e:	e7fa      	b.n	8006486 <__gethex+0x132>
 8006490:	230a      	movs	r3, #10
 8006492:	fb03 0202 	mla	r2, r3, r2, r0
 8006496:	3a10      	subs	r2, #16
 8006498:	e7cf      	b.n	800643a <__gethex+0xe6>
 800649a:	4631      	mov	r1, r6
 800649c:	e7da      	b.n	8006454 <__gethex+0x100>
 800649e:	4629      	mov	r1, r5
 80064a0:	1bf3      	subs	r3, r6, r7
 80064a2:	3b01      	subs	r3, #1
 80064a4:	2b07      	cmp	r3, #7
 80064a6:	dc49      	bgt.n	800653c <__gethex+0x1e8>
 80064a8:	9802      	ldr	r0, [sp, #8]
 80064aa:	f000 fa4b 	bl	8006944 <_Balloc>
 80064ae:	f04f 0b00 	mov.w	fp, #0
 80064b2:	4605      	mov	r5, r0
 80064b4:	46da      	mov	sl, fp
 80064b6:	9b01      	ldr	r3, [sp, #4]
 80064b8:	f100 0914 	add.w	r9, r0, #20
 80064bc:	f1c3 0301 	rsb	r3, r3, #1
 80064c0:	f8cd 9010 	str.w	r9, [sp, #16]
 80064c4:	9308      	str	r3, [sp, #32]
 80064c6:	42b7      	cmp	r7, r6
 80064c8:	d33b      	bcc.n	8006542 <__gethex+0x1ee>
 80064ca:	9804      	ldr	r0, [sp, #16]
 80064cc:	f840 ab04 	str.w	sl, [r0], #4
 80064d0:	eba0 0009 	sub.w	r0, r0, r9
 80064d4:	1080      	asrs	r0, r0, #2
 80064d6:	6128      	str	r0, [r5, #16]
 80064d8:	0147      	lsls	r7, r0, #5
 80064da:	4650      	mov	r0, sl
 80064dc:	f000 faf6 	bl	8006acc <__hi0bits>
 80064e0:	f8d8 6000 	ldr.w	r6, [r8]
 80064e4:	1a3f      	subs	r7, r7, r0
 80064e6:	42b7      	cmp	r7, r6
 80064e8:	dd64      	ble.n	80065b4 <__gethex+0x260>
 80064ea:	1bbf      	subs	r7, r7, r6
 80064ec:	4639      	mov	r1, r7
 80064ee:	4628      	mov	r0, r5
 80064f0:	f000 fdef 	bl	80070d2 <__any_on>
 80064f4:	4682      	mov	sl, r0
 80064f6:	b178      	cbz	r0, 8006518 <__gethex+0x1c4>
 80064f8:	f04f 0a01 	mov.w	sl, #1
 80064fc:	1e7b      	subs	r3, r7, #1
 80064fe:	1159      	asrs	r1, r3, #5
 8006500:	f003 021f 	and.w	r2, r3, #31
 8006504:	f859 1021 	ldr.w	r1, [r9, r1, lsl #2]
 8006508:	fa0a f202 	lsl.w	r2, sl, r2
 800650c:	420a      	tst	r2, r1
 800650e:	d003      	beq.n	8006518 <__gethex+0x1c4>
 8006510:	4553      	cmp	r3, sl
 8006512:	dc46      	bgt.n	80065a2 <__gethex+0x24e>
 8006514:	f04f 0a02 	mov.w	sl, #2
 8006518:	4639      	mov	r1, r7
 800651a:	4628      	mov	r0, r5
 800651c:	f7ff fed0 	bl	80062c0 <rshift>
 8006520:	443c      	add	r4, r7
 8006522:	f8d8 3008 	ldr.w	r3, [r8, #8]
 8006526:	429c      	cmp	r4, r3
 8006528:	dd52      	ble.n	80065d0 <__gethex+0x27c>
 800652a:	4629      	mov	r1, r5
 800652c:	9802      	ldr	r0, [sp, #8]
 800652e:	f000 fa3d 	bl	80069ac <_Bfree>
 8006532:	2300      	movs	r3, #0
 8006534:	9a14      	ldr	r2, [sp, #80]	; 0x50
 8006536:	27a3      	movs	r7, #163	; 0xa3
 8006538:	6013      	str	r3, [r2, #0]
 800653a:	e793      	b.n	8006464 <__gethex+0x110>
 800653c:	3101      	adds	r1, #1
 800653e:	105b      	asrs	r3, r3, #1
 8006540:	e7b0      	b.n	80064a4 <__gethex+0x150>
 8006542:	1e73      	subs	r3, r6, #1
 8006544:	9305      	str	r3, [sp, #20]
 8006546:	9a07      	ldr	r2, [sp, #28]
 8006548:	f816 3c01 	ldrb.w	r3, [r6, #-1]
 800654c:	4293      	cmp	r3, r2
 800654e:	d018      	beq.n	8006582 <__gethex+0x22e>
 8006550:	f1bb 0f20 	cmp.w	fp, #32
 8006554:	d107      	bne.n	8006566 <__gethex+0x212>
 8006556:	9b04      	ldr	r3, [sp, #16]
 8006558:	f8c3 a000 	str.w	sl, [r3]
 800655c:	f04f 0a00 	mov.w	sl, #0
 8006560:	46d3      	mov	fp, sl
 8006562:	3304      	adds	r3, #4
 8006564:	9304      	str	r3, [sp, #16]
 8006566:	f816 0c01 	ldrb.w	r0, [r6, #-1]
 800656a:	f7ff fede 	bl	800632a <__hexdig_fun>
 800656e:	f000 000f 	and.w	r0, r0, #15
 8006572:	fa00 f00b 	lsl.w	r0, r0, fp
 8006576:	ea4a 0a00 	orr.w	sl, sl, r0
 800657a:	f10b 0b04 	add.w	fp, fp, #4
 800657e:	9b05      	ldr	r3, [sp, #20]
 8006580:	e00d      	b.n	800659e <__gethex+0x24a>
 8006582:	9b05      	ldr	r3, [sp, #20]
 8006584:	9a08      	ldr	r2, [sp, #32]
 8006586:	4413      	add	r3, r2
 8006588:	429f      	cmp	r7, r3
 800658a:	d8e1      	bhi.n	8006550 <__gethex+0x1fc>
 800658c:	4618      	mov	r0, r3
 800658e:	9a01      	ldr	r2, [sp, #4]
 8006590:	9903      	ldr	r1, [sp, #12]
 8006592:	9309      	str	r3, [sp, #36]	; 0x24
 8006594:	f7fe ff6d 	bl	8005472 <strncmp>
 8006598:	9b09      	ldr	r3, [sp, #36]	; 0x24
 800659a:	2800      	cmp	r0, #0
 800659c:	d1d8      	bne.n	8006550 <__gethex+0x1fc>
 800659e:	461e      	mov	r6, r3
 80065a0:	e791      	b.n	80064c6 <__gethex+0x172>
 80065a2:	1eb9      	subs	r1, r7, #2
 80065a4:	4628      	mov	r0, r5
 80065a6:	f000 fd94 	bl	80070d2 <__any_on>
 80065aa:	2800      	cmp	r0, #0
 80065ac:	d0b2      	beq.n	8006514 <__gethex+0x1c0>
 80065ae:	f04f 0a03 	mov.w	sl, #3
 80065b2:	e7b1      	b.n	8006518 <__gethex+0x1c4>
 80065b4:	da09      	bge.n	80065ca <__gethex+0x276>
 80065b6:	1bf7      	subs	r7, r6, r7
 80065b8:	4629      	mov	r1, r5
 80065ba:	463a      	mov	r2, r7
 80065bc:	9802      	ldr	r0, [sp, #8]
 80065be:	f000 fbb7 	bl	8006d30 <__lshift>
 80065c2:	4605      	mov	r5, r0
 80065c4:	1be4      	subs	r4, r4, r7
 80065c6:	f100 0914 	add.w	r9, r0, #20
 80065ca:	f04f 0a00 	mov.w	sl, #0
 80065ce:	e7a8      	b.n	8006522 <__gethex+0x1ce>
 80065d0:	f8d8 0004 	ldr.w	r0, [r8, #4]
 80065d4:	4284      	cmp	r4, r0
 80065d6:	da6b      	bge.n	80066b0 <__gethex+0x35c>
 80065d8:	1b04      	subs	r4, r0, r4
 80065da:	42a6      	cmp	r6, r4
 80065dc:	dc2e      	bgt.n	800663c <__gethex+0x2e8>
 80065de:	f8d8 300c 	ldr.w	r3, [r8, #12]
 80065e2:	2b02      	cmp	r3, #2
 80065e4:	d022      	beq.n	800662c <__gethex+0x2d8>
 80065e6:	2b03      	cmp	r3, #3
 80065e8:	d024      	beq.n	8006634 <__gethex+0x2e0>
 80065ea:	2b01      	cmp	r3, #1
 80065ec:	d115      	bne.n	800661a <__gethex+0x2c6>
 80065ee:	42a6      	cmp	r6, r4
 80065f0:	d113      	bne.n	800661a <__gethex+0x2c6>
 80065f2:	2e01      	cmp	r6, #1
 80065f4:	dc0b      	bgt.n	800660e <__gethex+0x2ba>
 80065f6:	f8d8 3004 	ldr.w	r3, [r8, #4]
 80065fa:	9a06      	ldr	r2, [sp, #24]
 80065fc:	2762      	movs	r7, #98	; 0x62
 80065fe:	6013      	str	r3, [r2, #0]
 8006600:	2301      	movs	r3, #1
 8006602:	612b      	str	r3, [r5, #16]
 8006604:	f8c9 3000 	str.w	r3, [r9]
 8006608:	9b14      	ldr	r3, [sp, #80]	; 0x50
 800660a:	601d      	str	r5, [r3, #0]
 800660c:	e72a      	b.n	8006464 <__gethex+0x110>
 800660e:	1e71      	subs	r1, r6, #1
 8006610:	4628      	mov	r0, r5
 8006612:	f000 fd5e 	bl	80070d2 <__any_on>
 8006616:	2800      	cmp	r0, #0
 8006618:	d1ed      	bne.n	80065f6 <__gethex+0x2a2>
 800661a:	4629      	mov	r1, r5
 800661c:	9802      	ldr	r0, [sp, #8]
 800661e:	f000 f9c5 	bl	80069ac <_Bfree>
 8006622:	2300      	movs	r3, #0
 8006624:	9a14      	ldr	r2, [sp, #80]	; 0x50
 8006626:	2750      	movs	r7, #80	; 0x50
 8006628:	6013      	str	r3, [r2, #0]
 800662a:	e71b      	b.n	8006464 <__gethex+0x110>
 800662c:	9b15      	ldr	r3, [sp, #84]	; 0x54
 800662e:	2b00      	cmp	r3, #0
 8006630:	d0e1      	beq.n	80065f6 <__gethex+0x2a2>
 8006632:	e7f2      	b.n	800661a <__gethex+0x2c6>
 8006634:	9b15      	ldr	r3, [sp, #84]	; 0x54
 8006636:	2b00      	cmp	r3, #0
 8006638:	d1dd      	bne.n	80065f6 <__gethex+0x2a2>
 800663a:	e7ee      	b.n	800661a <__gethex+0x2c6>
 800663c:	1e67      	subs	r7, r4, #1
 800663e:	f1ba 0f00 	cmp.w	sl, #0
 8006642:	d132      	bne.n	80066aa <__gethex+0x356>
 8006644:	b127      	cbz	r7, 8006650 <__gethex+0x2fc>
 8006646:	4639      	mov	r1, r7
 8006648:	4628      	mov	r0, r5
 800664a:	f000 fd42 	bl	80070d2 <__any_on>
 800664e:	4682      	mov	sl, r0
 8006650:	2301      	movs	r3, #1
 8006652:	117a      	asrs	r2, r7, #5
 8006654:	f007 071f 	and.w	r7, r7, #31
 8006658:	fa03 f707 	lsl.w	r7, r3, r7
 800665c:	f859 3022 	ldr.w	r3, [r9, r2, lsl #2]
 8006660:	4621      	mov	r1, r4
 8006662:	421f      	tst	r7, r3
 8006664:	f04f 0702 	mov.w	r7, #2
 8006668:	4628      	mov	r0, r5
 800666a:	bf18      	it	ne
 800666c:	f04a 0a02 	orrne.w	sl, sl, #2
 8006670:	1b36      	subs	r6, r6, r4
 8006672:	f7ff fe25 	bl	80062c0 <rshift>
 8006676:	f8d8 4004 	ldr.w	r4, [r8, #4]
 800667a:	f1ba 0f00 	cmp.w	sl, #0
 800667e:	d045      	beq.n	800670c <__gethex+0x3b8>
 8006680:	f8d8 300c 	ldr.w	r3, [r8, #12]
 8006684:	2b02      	cmp	r3, #2
 8006686:	d015      	beq.n	80066b4 <__gethex+0x360>
 8006688:	2b03      	cmp	r3, #3
 800668a:	d017      	beq.n	80066bc <__gethex+0x368>
 800668c:	2b01      	cmp	r3, #1
 800668e:	d109      	bne.n	80066a4 <__gethex+0x350>
 8006690:	f01a 0f02 	tst.w	sl, #2
 8006694:	d006      	beq.n	80066a4 <__gethex+0x350>
 8006696:	f8d9 3000 	ldr.w	r3, [r9]
 800669a:	ea4a 0a03 	orr.w	sl, sl, r3
 800669e:	f01a 0f01 	tst.w	sl, #1
 80066a2:	d10e      	bne.n	80066c2 <__gethex+0x36e>
 80066a4:	f047 0710 	orr.w	r7, r7, #16
 80066a8:	e030      	b.n	800670c <__gethex+0x3b8>
 80066aa:	f04f 0a01 	mov.w	sl, #1
 80066ae:	e7cf      	b.n	8006650 <__gethex+0x2fc>
 80066b0:	2701      	movs	r7, #1
 80066b2:	e7e2      	b.n	800667a <__gethex+0x326>
 80066b4:	9b15      	ldr	r3, [sp, #84]	; 0x54
 80066b6:	f1c3 0301 	rsb	r3, r3, #1
 80066ba:	9315      	str	r3, [sp, #84]	; 0x54
 80066bc:	9b15      	ldr	r3, [sp, #84]	; 0x54
 80066be:	2b00      	cmp	r3, #0
 80066c0:	d0f0      	beq.n	80066a4 <__gethex+0x350>
 80066c2:	2000      	movs	r0, #0
 80066c4:	f8d5 9010 	ldr.w	r9, [r5, #16]
 80066c8:	f105 0314 	add.w	r3, r5, #20
 80066cc:	ea4f 0a89 	mov.w	sl, r9, lsl #2
 80066d0:	eb03 010a 	add.w	r1, r3, sl
 80066d4:	681a      	ldr	r2, [r3, #0]
 80066d6:	f1b2 3fff 	cmp.w	r2, #4294967295
 80066da:	d01c      	beq.n	8006716 <__gethex+0x3c2>
 80066dc:	3201      	adds	r2, #1
 80066de:	601a      	str	r2, [r3, #0]
 80066e0:	2f02      	cmp	r7, #2
 80066e2:	f105 0314 	add.w	r3, r5, #20
 80066e6:	d138      	bne.n	800675a <__gethex+0x406>
 80066e8:	f8d8 2000 	ldr.w	r2, [r8]
 80066ec:	3a01      	subs	r2, #1
 80066ee:	4296      	cmp	r6, r2
 80066f0:	d10a      	bne.n	8006708 <__gethex+0x3b4>
 80066f2:	2201      	movs	r2, #1
 80066f4:	1171      	asrs	r1, r6, #5
 80066f6:	f853 3021 	ldr.w	r3, [r3, r1, lsl #2]
 80066fa:	f006 061f 	and.w	r6, r6, #31
 80066fe:	fa02 f606 	lsl.w	r6, r2, r6
 8006702:	421e      	tst	r6, r3
 8006704:	bf18      	it	ne
 8006706:	4617      	movne	r7, r2
 8006708:	f047 0720 	orr.w	r7, r7, #32
 800670c:	9b14      	ldr	r3, [sp, #80]	; 0x50
 800670e:	601d      	str	r5, [r3, #0]
 8006710:	9b06      	ldr	r3, [sp, #24]
 8006712:	601c      	str	r4, [r3, #0]
 8006714:	e6a6      	b.n	8006464 <__gethex+0x110>
 8006716:	f843 0b04 	str.w	r0, [r3], #4
 800671a:	4299      	cmp	r1, r3
 800671c:	d8da      	bhi.n	80066d4 <__gethex+0x380>
 800671e:	68ab      	ldr	r3, [r5, #8]
 8006720:	4599      	cmp	r9, r3
 8006722:	db12      	blt.n	800674a <__gethex+0x3f6>
 8006724:	6869      	ldr	r1, [r5, #4]
 8006726:	9802      	ldr	r0, [sp, #8]
 8006728:	3101      	adds	r1, #1
 800672a:	f000 f90b 	bl	8006944 <_Balloc>
 800672e:	4683      	mov	fp, r0
 8006730:	692a      	ldr	r2, [r5, #16]
 8006732:	f105 010c 	add.w	r1, r5, #12
 8006736:	3202      	adds	r2, #2
 8006738:	0092      	lsls	r2, r2, #2
 800673a:	300c      	adds	r0, #12
 800673c:	f000 f8f5 	bl	800692a <memcpy>
 8006740:	4629      	mov	r1, r5
 8006742:	9802      	ldr	r0, [sp, #8]
 8006744:	f000 f932 	bl	80069ac <_Bfree>
 8006748:	465d      	mov	r5, fp
 800674a:	692b      	ldr	r3, [r5, #16]
 800674c:	1c5a      	adds	r2, r3, #1
 800674e:	612a      	str	r2, [r5, #16]
 8006750:	2201      	movs	r2, #1
 8006752:	eb05 0383 	add.w	r3, r5, r3, lsl #2
 8006756:	615a      	str	r2, [r3, #20]
 8006758:	e7c2      	b.n	80066e0 <__gethex+0x38c>
 800675a:	692a      	ldr	r2, [r5, #16]
 800675c:	4591      	cmp	r9, r2
 800675e:	da0b      	bge.n	8006778 <__gethex+0x424>
 8006760:	2101      	movs	r1, #1
 8006762:	4628      	mov	r0, r5
 8006764:	f7ff fdac 	bl	80062c0 <rshift>
 8006768:	f8d8 3008 	ldr.w	r3, [r8, #8]
 800676c:	3401      	adds	r4, #1
 800676e:	429c      	cmp	r4, r3
 8006770:	f73f aedb 	bgt.w	800652a <__gethex+0x1d6>
 8006774:	2701      	movs	r7, #1
 8006776:	e7c7      	b.n	8006708 <__gethex+0x3b4>
 8006778:	f016 061f 	ands.w	r6, r6, #31
 800677c:	d0fa      	beq.n	8006774 <__gethex+0x420>
 800677e:	449a      	add	sl, r3
 8006780:	f85a 0c04 	ldr.w	r0, [sl, #-4]
 8006784:	f000 f9a2 	bl	8006acc <__hi0bits>
 8006788:	f1c6 0620 	rsb	r6, r6, #32
 800678c:	42b0      	cmp	r0, r6
 800678e:	dbe7      	blt.n	8006760 <__gethex+0x40c>
 8006790:	e7f0      	b.n	8006774 <__gethex+0x420>

08006792 <L_shift>:
 8006792:	f1c2 0208 	rsb	r2, r2, #8
 8006796:	0092      	lsls	r2, r2, #2
 8006798:	b570      	push	{r4, r5, r6, lr}
 800679a:	f1c2 0620 	rsb	r6, r2, #32
 800679e:	6843      	ldr	r3, [r0, #4]
 80067a0:	6804      	ldr	r4, [r0, #0]
 80067a2:	fa03 f506 	lsl.w	r5, r3, r6
 80067a6:	432c      	orrs	r4, r5
 80067a8:	40d3      	lsrs	r3, r2
 80067aa:	6004      	str	r4, [r0, #0]
 80067ac:	f840 3f04 	str.w	r3, [r0, #4]!
 80067b0:	4288      	cmp	r0, r1
 80067b2:	d3f4      	bcc.n	800679e <L_shift+0xc>
 80067b4:	bd70      	pop	{r4, r5, r6, pc}

080067b6 <__match>:
 80067b6:	b530      	push	{r4, r5, lr}
 80067b8:	6803      	ldr	r3, [r0, #0]
 80067ba:	f811 4b01 	ldrb.w	r4, [r1], #1
 80067be:	3301      	adds	r3, #1
 80067c0:	b914      	cbnz	r4, 80067c8 <__match+0x12>
 80067c2:	6003      	str	r3, [r0, #0]
 80067c4:	2001      	movs	r0, #1
 80067c6:	bd30      	pop	{r4, r5, pc}
 80067c8:	781a      	ldrb	r2, [r3, #0]
 80067ca:	f1a2 0541 	sub.w	r5, r2, #65	; 0x41
 80067ce:	2d19      	cmp	r5, #25
 80067d0:	bf98      	it	ls
 80067d2:	3220      	addls	r2, #32
 80067d4:	42a2      	cmp	r2, r4
 80067d6:	d0f0      	beq.n	80067ba <__match+0x4>
 80067d8:	2000      	movs	r0, #0
 80067da:	bd30      	pop	{r4, r5, pc}

080067dc <__hexnan>:
 80067dc:	e92d 4ff0 	stmdb	sp!, {r4, r5, r6, r7, r8, r9, sl, fp, lr}
 80067e0:	2500      	movs	r5, #0
 80067e2:	680b      	ldr	r3, [r1, #0]
 80067e4:	4682      	mov	sl, r0
 80067e6:	115f      	asrs	r7, r3, #5
 80067e8:	eb02 0787 	add.w	r7, r2, r7, lsl #2
 80067ec:	f013 031f 	ands.w	r3, r3, #31
 80067f0:	bf18      	it	ne
 80067f2:	3704      	addne	r7, #4
 80067f4:	1f3e      	subs	r6, r7, #4
 80067f6:	4690      	mov	r8, r2
 80067f8:	46b1      	mov	r9, r6
 80067fa:	4634      	mov	r4, r6
 80067fc:	46ab      	mov	fp, r5
 80067fe:	b087      	sub	sp, #28
 8006800:	6801      	ldr	r1, [r0, #0]
 8006802:	9302      	str	r3, [sp, #8]
 8006804:	f847 5c04 	str.w	r5, [r7, #-4]
 8006808:	9501      	str	r5, [sp, #4]
 800680a:	784a      	ldrb	r2, [r1, #1]
 800680c:	1c4b      	adds	r3, r1, #1
 800680e:	9303      	str	r3, [sp, #12]
 8006810:	b342      	cbz	r2, 8006864 <__hexnan+0x88>
 8006812:	4610      	mov	r0, r2
 8006814:	9105      	str	r1, [sp, #20]
 8006816:	9204      	str	r2, [sp, #16]
 8006818:	f7ff fd87 	bl	800632a <__hexdig_fun>
 800681c:	2800      	cmp	r0, #0
 800681e:	d143      	bne.n	80068a8 <__hexnan+0xcc>
 8006820:	9a04      	ldr	r2, [sp, #16]
 8006822:	9905      	ldr	r1, [sp, #20]
 8006824:	2a20      	cmp	r2, #32
 8006826:	d818      	bhi.n	800685a <__hexnan+0x7e>
 8006828:	9b01      	ldr	r3, [sp, #4]
 800682a:	459b      	cmp	fp, r3
 800682c:	dd13      	ble.n	8006856 <__hexnan+0x7a>
 800682e:	454c      	cmp	r4, r9
 8006830:	d206      	bcs.n	8006840 <__hexnan+0x64>
 8006832:	2d07      	cmp	r5, #7
 8006834:	dc04      	bgt.n	8006840 <__hexnan+0x64>
 8006836:	462a      	mov	r2, r5
 8006838:	4649      	mov	r1, r9
 800683a:	4620      	mov	r0, r4
 800683c:	f7ff ffa9 	bl	8006792 <L_shift>
 8006840:	4544      	cmp	r4, r8
 8006842:	d944      	bls.n	80068ce <__hexnan+0xf2>
 8006844:	2300      	movs	r3, #0
 8006846:	f1a4 0904 	sub.w	r9, r4, #4
 800684a:	f844 3c04 	str.w	r3, [r4, #-4]
 800684e:	461d      	mov	r5, r3
 8006850:	464c      	mov	r4, r9
 8006852:	f8cd b004 	str.w	fp, [sp, #4]
 8006856:	9903      	ldr	r1, [sp, #12]
 8006858:	e7d7      	b.n	800680a <__hexnan+0x2e>
 800685a:	2a29      	cmp	r2, #41	; 0x29
 800685c:	d14a      	bne.n	80068f4 <__hexnan+0x118>
 800685e:	3102      	adds	r1, #2
 8006860:	f8ca 1000 	str.w	r1, [sl]
 8006864:	f1bb 0f00 	cmp.w	fp, #0
 8006868:	d044      	beq.n	80068f4 <__hexnan+0x118>
 800686a:	454c      	cmp	r4, r9
 800686c:	d206      	bcs.n	800687c <__hexnan+0xa0>
 800686e:	2d07      	cmp	r5, #7
 8006870:	dc04      	bgt.n	800687c <__hexnan+0xa0>
 8006872:	462a      	mov	r2, r5
 8006874:	4649      	mov	r1, r9
 8006876:	4620      	mov	r0, r4
 8006878:	f7ff ff8b 	bl	8006792 <L_shift>
 800687c:	4544      	cmp	r4, r8
 800687e:	d928      	bls.n	80068d2 <__hexnan+0xf6>
 8006880:	4643      	mov	r3, r8
 8006882:	f854 2b04 	ldr.w	r2, [r4], #4
 8006886:	42a6      	cmp	r6, r4
 8006888:	f843 2b04 	str.w	r2, [r3], #4
 800688c:	d2f9      	bcs.n	8006882 <__hexnan+0xa6>
 800688e:	2200      	movs	r2, #0
 8006890:	f843 2b04 	str.w	r2, [r3], #4
 8006894:	429e      	cmp	r6, r3
 8006896:	d2fb      	bcs.n	8006890 <__hexnan+0xb4>
 8006898:	6833      	ldr	r3, [r6, #0]
 800689a:	b91b      	cbnz	r3, 80068a4 <__hexnan+0xc8>
 800689c:	4546      	cmp	r6, r8
 800689e:	d127      	bne.n	80068f0 <__hexnan+0x114>
 80068a0:	2301      	movs	r3, #1
 80068a2:	6033      	str	r3, [r6, #0]
 80068a4:	2005      	movs	r0, #5
 80068a6:	e026      	b.n	80068f6 <__hexnan+0x11a>
 80068a8:	3501      	adds	r5, #1
 80068aa:	2d08      	cmp	r5, #8
 80068ac:	f10b 0b01 	add.w	fp, fp, #1
 80068b0:	dd06      	ble.n	80068c0 <__hexnan+0xe4>
 80068b2:	4544      	cmp	r4, r8
 80068b4:	d9cf      	bls.n	8006856 <__hexnan+0x7a>
 80068b6:	2300      	movs	r3, #0
 80068b8:	2501      	movs	r5, #1
 80068ba:	f844 3c04 	str.w	r3, [r4, #-4]
 80068be:	3c04      	subs	r4, #4
 80068c0:	6822      	ldr	r2, [r4, #0]
 80068c2:	f000 000f 	and.w	r0, r0, #15
 80068c6:	ea40 1002 	orr.w	r0, r0, r2, lsl #4
 80068ca:	6020      	str	r0, [r4, #0]
 80068cc:	e7c3      	b.n	8006856 <__hexnan+0x7a>
 80068ce:	2508      	movs	r5, #8
 80068d0:	e7c1      	b.n	8006856 <__hexnan+0x7a>
 80068d2:	9b02      	ldr	r3, [sp, #8]
 80068d4:	2b00      	cmp	r3, #0
 80068d6:	d0df      	beq.n	8006898 <__hexnan+0xbc>
 80068d8:	f04f 32ff 	mov.w	r2, #4294967295
 80068dc:	f1c3 0320 	rsb	r3, r3, #32
 80068e0:	fa22 f303 	lsr.w	r3, r2, r3
 80068e4:	f857 2c04 	ldr.w	r2, [r7, #-4]
 80068e8:	401a      	ands	r2, r3
 80068ea:	f847 2c04 	str.w	r2, [r7, #-4]
 80068ee:	e7d3      	b.n	8006898 <__hexnan+0xbc>
 80068f0:	3e04      	subs	r6, #4
 80068f2:	e7d1      	b.n	8006898 <__hexnan+0xbc>
 80068f4:	2004      	movs	r0, #4
 80068f6:	b007      	add	sp, #28
 80068f8:	e8bd 8ff0 	ldmia.w	sp!, {r4, r5, r6, r7, r8, r9, sl, fp, pc}

080068fc <__locale_ctype_ptr_l>:
 80068fc:	f8d0 00ec 	ldr.w	r0, [r0, #236]	; 0xec
 8006900:	4770      	bx	lr

08006902 <__localeconv_l>:
 8006902:	30f0      	adds	r0, #240	; 0xf0
 8006904:	4770      	bx	lr

08006906 <__ascii_mbtowc>:
 8006906:	b082      	sub	sp, #8
 8006908:	b901      	cbnz	r1, 800690c <__ascii_mbtowc+0x6>
 800690a:	a901      	add	r1, sp, #4
 800690c:	b142      	cbz	r2, 8006920 <__ascii_mbtowc+0x1a>
 800690e:	b14b      	cbz	r3, 8006924 <__ascii_mbtowc+0x1e>
 8006910:	7813      	ldrb	r3, [r2, #0]
 8006912:	600b      	str	r3, [r1, #0]
 8006914:	7812      	ldrb	r2, [r2, #0]
 8006916:	1c10      	adds	r0, r2, #0
 8006918:	bf18      	it	ne
 800691a:	2001      	movne	r0, #1
 800691c:	b002      	add	sp, #8
 800691e:	4770      	bx	lr
 8006920:	4610      	mov	r0, r2
 8006922:	e7fb      	b.n	800691c <__ascii_mbtowc+0x16>
 8006924:	f06f 0001 	mvn.w	r0, #1
 8006928:	e7f8      	b.n	800691c <__ascii_mbtowc+0x16>

0800692a <memcpy>:
 800692a:	b510      	push	{r4, lr}
 800692c:	1e43      	subs	r3, r0, #1
 800692e:	440a      	add	r2, r1
 8006930:	4291      	cmp	r1, r2
 8006932:	d100      	bne.n	8006936 <memcpy+0xc>
 8006934:	bd10      	pop	{r4, pc}
 8006936:	f811 4b01 	ldrb.w	r4, [r1], #1
 800693a:	f803 4f01 	strb.w	r4, [r3, #1]!
 800693e:	e7f7      	b.n	8006930 <memcpy+0x6>

08006940 <__malloc_lock>:
 8006940:	4770      	bx	lr

08006942 <__malloc_unlock>:
 8006942:	4770      	bx	lr

08006944 <_Balloc>:
 8006944:	b570      	push	{r4, r5, r6, lr}
 8006946:	6a45      	ldr	r5, [r0, #36]	; 0x24
 8006948:	4604      	mov	r4, r0
 800694a:	460e      	mov	r6, r1
 800694c:	b93d      	cbnz	r5, 800695e <_Balloc+0x1a>
 800694e:	2010      	movs	r0, #16
 8006950:	f7fe fc4e 	bl	80051f0 <malloc>
 8006954:	6260      	str	r0, [r4, #36]	; 0x24
 8006956:	6045      	str	r5, [r0, #4]
 8006958:	6085      	str	r5, [r0, #8]
 800695a:	6005      	str	r5, [r0, #0]
 800695c:	60c5      	str	r5, [r0, #12]
 800695e:	6a65      	ldr	r5, [r4, #36]	; 0x24
 8006960:	68eb      	ldr	r3, [r5, #12]
 8006962:	b183      	cbz	r3, 8006986 <_Balloc+0x42>
 8006964:	6a63      	ldr	r3, [r4, #36]	; 0x24
 8006966:	68db      	ldr	r3, [r3, #12]
 8006968:	f853 0026 	ldr.w	r0, [r3, r6, lsl #2]
 800696c:	b9b8      	cbnz	r0, 800699e <_Balloc+0x5a>
 800696e:	2101      	movs	r1, #1
 8006970:	fa01 f506 	lsl.w	r5, r1, r6
 8006974:	1d6a      	adds	r2, r5, #5
 8006976:	0092      	lsls	r2, r2, #2
 8006978:	4620      	mov	r0, r4
 800697a:	f000 fbcb 	bl	8007114 <_calloc_r>
 800697e:	b160      	cbz	r0, 800699a <_Balloc+0x56>
 8006980:	6046      	str	r6, [r0, #4]
 8006982:	6085      	str	r5, [r0, #8]
 8006984:	e00e      	b.n	80069a4 <_Balloc+0x60>
 8006986:	2221      	movs	r2, #33	; 0x21
 8006988:	2104      	movs	r1, #4
 800698a:	4620      	mov	r0, r4
 800698c:	f000 fbc2 	bl	8007114 <_calloc_r>
 8006990:	6a63      	ldr	r3, [r4, #36]	; 0x24
 8006992:	60e8      	str	r0, [r5, #12]
 8006994:	68db      	ldr	r3, [r3, #12]
 8006996:	2b00      	cmp	r3, #0
 8006998:	d1e4      	bne.n	8006964 <_Balloc+0x20>
 800699a:	2000      	movs	r0, #0
 800699c:	bd70      	pop	{r4, r5, r6, pc}
 800699e:	6802      	ldr	r2, [r0, #0]
 80069a0:	f843 2026 	str.w	r2, [r3, r6, lsl #2]
 80069a4:	2300      	movs	r3, #0
 80069a6:	6103      	str	r3, [r0, #16]
 80069a8:	60c3      	str	r3, [r0, #12]
 80069aa:	bd70      	pop	{r4, r5, r6, pc}

080069ac <_Bfree>:
 80069ac:	b570      	push	{r4, r5, r6, lr}
 80069ae:	6a44      	ldr	r4, [r0, #36]	; 0x24
 80069b0:	4606      	mov	r6, r0
 80069b2:	460d      	mov	r5, r1
 80069b4:	b93c      	cbnz	r4, 80069c6 <_Bfree+0x1a>
 80069b6:	2010      	movs	r0, #16
 80069b8:	f7fe fc1a 	bl	80051f0 <malloc>
 80069bc:	6270      	str	r0, [r6, #36]	; 0x24
 80069be:	6044      	str	r4, [r0, #4]
 80069c0:	6084      	str	r4, [r0, #8]
 80069c2:	6004      	str	r4, [r0, #0]
 80069c4:	60c4      	str	r4, [r0, #12]
 80069c6:	b13d      	cbz	r5, 80069d8 <_Bfree+0x2c>
 80069c8:	6a73      	ldr	r3, [r6, #36]	; 0x24
 80069ca:	686a      	ldr	r2, [r5, #4]
 80069cc:	68db      	ldr	r3, [r3, #12]
 80069ce:	f853 1022 	ldr.w	r1, [r3, r2, lsl #2]
 80069d2:	6029      	str	r1, [r5, #0]
 80069d4:	f843 5022 	str.w	r5, [r3, r2, lsl #2]
 80069d8:	bd70      	pop	{r4, r5, r6, pc}

080069da <__multadd>:
 80069da:	e92d 41f0 	stmdb	sp!, {r4, r5, r6, r7, r8, lr}
 80069de:	461f      	mov	r7, r3
 80069e0:	4606      	mov	r6, r0
 80069e2:	460c      	mov	r4, r1
 80069e4:	2300      	movs	r3, #0
 80069e6:	690d      	ldr	r5, [r1, #16]
 80069e8:	f101 0e14 	add.w	lr, r1, #20
 80069ec:	f8de 0000 	ldr.w	r0, [lr]
 80069f0:	3301      	adds	r3, #1
 80069f2:	b281      	uxth	r1, r0
 80069f4:	fb02 7101 	mla	r1, r2, r1, r7
 80069f8:	0c00      	lsrs	r0, r0, #16
 80069fa:	0c0f      	lsrs	r7, r1, #16
 80069fc:	fb02 7000 	mla	r0, r2, r0, r7
 8006a00:	b289      	uxth	r1, r1
 8006a02:	eb01 4100 	add.w	r1, r1, r0, lsl #16
 8006a06:	429d      	cmp	r5, r3
 8006a08:	ea4f 4710 	mov.w	r7, r0, lsr #16
 8006a0c:	f84e 1b04 	str.w	r1, [lr], #4
 8006a10:	dcec      	bgt.n	80069ec <__multadd+0x12>
 8006a12:	b1d7      	cbz	r7, 8006a4a <__multadd+0x70>
 8006a14:	68a3      	ldr	r3, [r4, #8]
 8006a16:	429d      	cmp	r5, r3
 8006a18:	db12      	blt.n	8006a40 <__multadd+0x66>
 8006a1a:	6861      	ldr	r1, [r4, #4]
 8006a1c:	4630      	mov	r0, r6
 8006a1e:	3101      	adds	r1, #1
 8006a20:	f7ff ff90 	bl	8006944 <_Balloc>
 8006a24:	4680      	mov	r8, r0
 8006a26:	6922      	ldr	r2, [r4, #16]
 8006a28:	f104 010c 	add.w	r1, r4, #12
 8006a2c:	3202      	adds	r2, #2
 8006a2e:	0092      	lsls	r2, r2, #2
 8006a30:	300c      	adds	r0, #12
 8006a32:	f7ff ff7a 	bl	800692a <memcpy>
 8006a36:	4621      	mov	r1, r4
 8006a38:	4630      	mov	r0, r6
 8006a3a:	f7ff ffb7 	bl	80069ac <_Bfree>
 8006a3e:	4644      	mov	r4, r8
 8006a40:	eb04 0385 	add.w	r3, r4, r5, lsl #2
 8006a44:	3501      	adds	r5, #1
 8006a46:	615f      	str	r7, [r3, #20]
 8006a48:	6125      	str	r5, [r4, #16]
 8006a4a:	4620      	mov	r0, r4
 8006a4c:	e8bd 81f0 	ldmia.w	sp!, {r4, r5, r6, r7, r8, pc}

08006a50 <__s2b>:
 8006a50:	e92d 43f8 	stmdb	sp!, {r3, r4, r5, r6, r7, r8, r9, lr}
 8006a54:	4615      	mov	r5, r2
 8006a56:	2209      	movs	r2, #9
 8006a58:	461f      	mov	r7, r3
 8006a5a:	3308      	adds	r3, #8
 8006a5c:	460c      	mov	r4, r1
 8006a5e:	fb93 f3f2 	sdiv	r3, r3, r2
 8006a62:	4606      	mov	r6, r0
 8006a64:	2201      	movs	r2, #1
 8006a66:	2100      	movs	r1, #0
 8006a68:	429a      	cmp	r2, r3
 8006a6a:	db20      	blt.n	8006aae <__s2b+0x5e>
 8006a6c:	4630      	mov	r0, r6
 8006a6e:	f7ff ff69 	bl	8006944 <_Balloc>
 8006a72:	9b08      	ldr	r3, [sp, #32]
 8006a74:	2d09      	cmp	r5, #9
 8006a76:	6143      	str	r3, [r0, #20]
 8006a78:	f04f 0301 	mov.w	r3, #1
 8006a7c:	6103      	str	r3, [r0, #16]
 8006a7e:	dd19      	ble.n	8006ab4 <__s2b+0x64>
 8006a80:	f104 0909 	add.w	r9, r4, #9
 8006a84:	46c8      	mov	r8, r9
 8006a86:	442c      	add	r4, r5
 8006a88:	f818 3b01 	ldrb.w	r3, [r8], #1
 8006a8c:	4601      	mov	r1, r0
 8006a8e:	3b30      	subs	r3, #48	; 0x30
 8006a90:	220a      	movs	r2, #10
 8006a92:	4630      	mov	r0, r6
 8006a94:	f7ff ffa1 	bl	80069da <__multadd>
 8006a98:	45a0      	cmp	r8, r4
 8006a9a:	d1f5      	bne.n	8006a88 <__s2b+0x38>
 8006a9c:	f1a5 0408 	sub.w	r4, r5, #8
 8006aa0:	444c      	add	r4, r9
 8006aa2:	1b2d      	subs	r5, r5, r4
 8006aa4:	1963      	adds	r3, r4, r5
 8006aa6:	42bb      	cmp	r3, r7
 8006aa8:	db07      	blt.n	8006aba <__s2b+0x6a>
 8006aaa:	e8bd 83f8 	ldmia.w	sp!, {r3, r4, r5, r6, r7, r8, r9, pc}
 8006aae:	0052      	lsls	r2, r2, #1
 8006ab0:	3101      	adds	r1, #1
 8006ab2:	e7d9      	b.n	8006a68 <__s2b+0x18>
 8006ab4:	340a      	adds	r4, #10
 8006ab6:	2509      	movs	r5, #9
 8006ab8:	e7f3      	b.n	8006aa2 <__s2b+0x52>
 8006aba:	f814 3b01 	ldrb.w	r3, [r4], #1
 8006abe:	4601      	mov	r1, r0
 8006ac0:	3b30      	subs	r3, #48	; 0x30
 8006ac2:	220a      	movs	r2, #10
 8006ac4:	4630      	mov	r0, r6
 8006ac6:	f7ff ff88 	bl	80069da <__multadd>
 8006aca:	e7eb      	b.n	8006aa4 <__s2b+0x54>

08006acc <__hi0bits>:
 8006acc:	0c02      	lsrs	r2, r0, #16
 8006ace:	0412      	lsls	r2, r2, #16
 8006ad0:	4603      	mov	r3, r0
 8006ad2:	b9b2      	cbnz	r2, 8006b02 <__hi0bits+0x36>
 8006ad4:	0403      	lsls	r3, r0, #16
 8006ad6:	2010      	movs	r0, #16
 8006ad8:	f013 4f7f 	tst.w	r3, #4278190080	; 0xff000000
 8006adc:	bf04      	itt	eq
 8006ade:	021b      	lsleq	r3, r3, #8
 8006ae0:	3008      	addeq	r0, #8
 8006ae2:	f013 4f70 	tst.w	r3, #4026531840	; 0xf0000000
 8006ae6:	bf04      	itt	eq
 8006ae8:	011b      	lsleq	r3, r3, #4
 8006aea:	3004      	addeq	r0, #4
 8006aec:	f013 4f40 	tst.w	r3, #3221225472	; 0xc0000000
 8006af0:	bf04      	itt	eq
 8006af2:	009b      	lsleq	r3, r3, #2
 8006af4:	3002      	addeq	r0, #2
 8006af6:	2b00      	cmp	r3, #0
 8006af8:	db06      	blt.n	8006b08 <__hi0bits+0x3c>
 8006afa:	005b      	lsls	r3, r3, #1
 8006afc:	d503      	bpl.n	8006b06 <__hi0bits+0x3a>
 8006afe:	3001      	adds	r0, #1
 8006b00:	4770      	bx	lr
 8006b02:	2000      	movs	r0, #0
 8006b04:	e7e8      	b.n	8006ad8 <__hi0bits+0xc>
 8006b06:	2020      	movs	r0, #32
 8006b08:	4770      	bx	lr

08006b0a <__lo0bits>:
 8006b0a:	6803      	ldr	r3, [r0, #0]
 8006b0c:	4601      	mov	r1, r0
 8006b0e:	f013 0207 	ands.w	r2, r3, #7
 8006b12:	d00b      	beq.n	8006b2c <__lo0bits+0x22>
 8006b14:	07da      	lsls	r2, r3, #31
 8006b16:	d423      	bmi.n	8006b60 <__lo0bits+0x56>
 8006b18:	0798      	lsls	r0, r3, #30
 8006b1a:	bf49      	itett	mi
 8006b1c:	085b      	lsrmi	r3, r3, #1
 8006b1e:	089b      	lsrpl	r3, r3, #2
 8006b20:	2001      	movmi	r0, #1
 8006b22:	600b      	strmi	r3, [r1, #0]
 8006b24:	bf5c      	itt	pl
 8006b26:	600b      	strpl	r3, [r1, #0]
 8006b28:	2002      	movpl	r0, #2
 8006b2a:	4770      	bx	lr
 8006b2c:	b298      	uxth	r0, r3
 8006b2e:	b9a8      	cbnz	r0, 8006b5c <__lo0bits+0x52>
 8006b30:	2010      	movs	r0, #16
 8006b32:	0c1b      	lsrs	r3, r3, #16
 8006b34:	f013 0fff 	tst.w	r3, #255	; 0xff
 8006b38:	bf04      	itt	eq
 8006b3a:	0a1b      	lsreq	r3, r3, #8
 8006b3c:	3008      	addeq	r0, #8
 8006b3e:	071a      	lsls	r2, r3, #28
 8006b40:	bf04      	itt	eq
 8006b42:	091b      	lsreq	r3, r3, #4
 8006b44:	3004      	addeq	r0, #4
 8006b46:	079a      	lsls	r2, r3, #30
 8006b48:	bf04      	itt	eq
 8006b4a:	089b      	lsreq	r3, r3, #2
 8006b4c:	3002      	addeq	r0, #2
 8006b4e:	07da      	lsls	r2, r3, #31
 8006b50:	d402      	bmi.n	8006b58 <__lo0bits+0x4e>
 8006b52:	085b      	lsrs	r3, r3, #1
 8006b54:	d006      	beq.n	8006b64 <__lo0bits+0x5a>
 8006b56:	3001      	adds	r0, #1
 8006b58:	600b      	str	r3, [r1, #0]
 8006b5a:	4770      	bx	lr
 8006b5c:	4610      	mov	r0, r2
 8006b5e:	e7e9      	b.n	8006b34 <__lo0bits+0x2a>
 8006b60:	2000      	movs	r0, #0
 8006b62:	4770      	bx	lr
 8006b64:	2020      	movs	r0, #32
 8006b66:	4770      	bx	lr

08006b68 <__i2b>:
 8006b68:	b510      	push	{r4, lr}
 8006b6a:	460c      	mov	r4, r1
 8006b6c:	2101      	movs	r1, #1
 8006b6e:	f7ff fee9 	bl	8006944 <_Balloc>
 8006b72:	2201      	movs	r2, #1
 8006b74:	6144      	str	r4, [r0, #20]
 8006b76:	6102      	str	r2, [r0, #16]
 8006b78:	bd10      	pop	{r4, pc}

08006b7a <__multiply>:
 8006b7a:	e92d 4ff7 	stmdb	sp!, {r0, r1, r2, r4, r5, r6, r7, r8, r9, sl, fp, lr}
 8006b7e:	4614      	mov	r4, r2
 8006b80:	690a      	ldr	r2, [r1, #16]
 8006b82:	6923      	ldr	r3, [r4, #16]
 8006b84:	4689      	mov	r9, r1
 8006b86:	429a      	cmp	r2, r3
 8006b88:	bfbe      	ittt	lt
 8006b8a:	460b      	movlt	r3, r1
 8006b8c:	46a1      	movlt	r9, r4
 8006b8e:	461c      	movlt	r4, r3
 8006b90:	f8d9 7010 	ldr.w	r7, [r9, #16]
 8006b94:	f8d4 a010 	ldr.w	sl, [r4, #16]
 8006b98:	f8d9 3008 	ldr.w	r3, [r9, #8]
 8006b9c:	f8d9 1004 	ldr.w	r1, [r9, #4]
 8006ba0:	eb07 060a 	add.w	r6, r7, sl
 8006ba4:	429e      	cmp	r6, r3
 8006ba6:	bfc8      	it	gt
 8006ba8:	3101      	addgt	r1, #1
 8006baa:	f7ff fecb 	bl	8006944 <_Balloc>
 8006bae:	f100 0514 	add.w	r5, r0, #20
 8006bb2:	462b      	mov	r3, r5
 8006bb4:	2200      	movs	r2, #0
 8006bb6:	eb05 0886 	add.w	r8, r5, r6, lsl #2
 8006bba:	4543      	cmp	r3, r8
 8006bbc:	d316      	bcc.n	8006bec <__multiply+0x72>
 8006bbe:	f104 0214 	add.w	r2, r4, #20
 8006bc2:	f109 0114 	add.w	r1, r9, #20
 8006bc6:	eb02 038a 	add.w	r3, r2, sl, lsl #2
 8006bca:	eb01 0787 	add.w	r7, r1, r7, lsl #2
 8006bce:	9301      	str	r3, [sp, #4]
 8006bd0:	9c01      	ldr	r4, [sp, #4]
 8006bd2:	4613      	mov	r3, r2
 8006bd4:	4294      	cmp	r4, r2
 8006bd6:	d80c      	bhi.n	8006bf2 <__multiply+0x78>
 8006bd8:	2e00      	cmp	r6, #0
 8006bda:	dd03      	ble.n	8006be4 <__multiply+0x6a>
 8006bdc:	f858 3d04 	ldr.w	r3, [r8, #-4]!
 8006be0:	2b00      	cmp	r3, #0
 8006be2:	d054      	beq.n	8006c8e <__multiply+0x114>
 8006be4:	6106      	str	r6, [r0, #16]
 8006be6:	b003      	add	sp, #12
 8006be8:	e8bd 8ff0 	ldmia.w	sp!, {r4, r5, r6, r7, r8, r9, sl, fp, pc}
 8006bec:	f843 2b04 	str.w	r2, [r3], #4
 8006bf0:	e7e3      	b.n	8006bba <__multiply+0x40>
 8006bf2:	f8b3 a000 	ldrh.w	sl, [r3]
 8006bf6:	3204      	adds	r2, #4
 8006bf8:	f1ba 0f00 	cmp.w	sl, #0
 8006bfc:	d020      	beq.n	8006c40 <__multiply+0xc6>
 8006bfe:	46ae      	mov	lr, r5
 8006c00:	4689      	mov	r9, r1
 8006c02:	f04f 0c00 	mov.w	ip, #0
 8006c06:	f859 4b04 	ldr.w	r4, [r9], #4
 8006c0a:	f8be b000 	ldrh.w	fp, [lr]
 8006c0e:	b2a3      	uxth	r3, r4
 8006c10:	fb0a b303 	mla	r3, sl, r3, fp
 8006c14:	ea4f 4b14 	mov.w	fp, r4, lsr #16
 8006c18:	f8de 4000 	ldr.w	r4, [lr]
 8006c1c:	4463      	add	r3, ip
 8006c1e:	ea4f 4c14 	mov.w	ip, r4, lsr #16
 8006c22:	fb0a c40b 	mla	r4, sl, fp, ip
 8006c26:	eb04 4413 	add.w	r4, r4, r3, lsr #16
 8006c2a:	b29b      	uxth	r3, r3
 8006c2c:	ea43 4304 	orr.w	r3, r3, r4, lsl #16
 8006c30:	454f      	cmp	r7, r9
 8006c32:	ea4f 4c14 	mov.w	ip, r4, lsr #16
 8006c36:	f84e 3b04 	str.w	r3, [lr], #4
 8006c3a:	d8e4      	bhi.n	8006c06 <__multiply+0x8c>
 8006c3c:	f8ce c000 	str.w	ip, [lr]
 8006c40:	f832 9c02 	ldrh.w	r9, [r2, #-2]
 8006c44:	f1b9 0f00 	cmp.w	r9, #0
 8006c48:	d01f      	beq.n	8006c8a <__multiply+0x110>
 8006c4a:	46ae      	mov	lr, r5
 8006c4c:	468c      	mov	ip, r1
 8006c4e:	f04f 0a00 	mov.w	sl, #0
 8006c52:	682b      	ldr	r3, [r5, #0]
 8006c54:	f8bc 4000 	ldrh.w	r4, [ip]
 8006c58:	f8be b002 	ldrh.w	fp, [lr, #2]
 8006c5c:	b29b      	uxth	r3, r3
 8006c5e:	fb09 b404 	mla	r4, r9, r4, fp
 8006c62:	44a2      	add	sl, r4
 8006c64:	ea43 430a 	orr.w	r3, r3, sl, lsl #16
 8006c68:	f84e 3b04 	str.w	r3, [lr], #4
 8006c6c:	f85c 3b04 	ldr.w	r3, [ip], #4
 8006c70:	f8be 4000 	ldrh.w	r4, [lr]
 8006c74:	0c1b      	lsrs	r3, r3, #16
 8006c76:	fb09 4303 	mla	r3, r9, r3, r4
 8006c7a:	4567      	cmp	r7, ip
 8006c7c:	eb03 431a 	add.w	r3, r3, sl, lsr #16
 8006c80:	ea4f 4a13 	mov.w	sl, r3, lsr #16
 8006c84:	d8e6      	bhi.n	8006c54 <__multiply+0xda>
 8006c86:	f8ce 3000 	str.w	r3, [lr]
 8006c8a:	3504      	adds	r5, #4
 8006c8c:	e7a0      	b.n	8006bd0 <__multiply+0x56>
 8006c8e:	3e01      	subs	r6, #1
 8006c90:	e7a2      	b.n	8006bd8 <__multiply+0x5e>
	...

08006c94 <__pow5mult>:
 8006c94:	e92d 43f8 	stmdb	sp!, {r3, r4, r5, r6, r7, r8, r9, lr}
 8006c98:	4615      	mov	r5, r2
 8006c9a:	f012 0203 	ands.w	r2, r2, #3
 8006c9e:	4606      	mov	r6, r0
 8006ca0:	460f      	mov	r7, r1
 8006ca2:	d007      	beq.n	8006cb4 <__pow5mult+0x20>
 8006ca4:	4c21      	ldr	r4, [pc, #132]	; (8006d2c <__pow5mult+0x98>)
 8006ca6:	3a01      	subs	r2, #1
 8006ca8:	2300      	movs	r3, #0
 8006caa:	f854 2022 	ldr.w	r2, [r4, r2, lsl #2]
 8006cae:	f7ff fe94 	bl	80069da <__multadd>
 8006cb2:	4607      	mov	r7, r0
 8006cb4:	10ad      	asrs	r5, r5, #2
 8006cb6:	d035      	beq.n	8006d24 <__pow5mult+0x90>
 8006cb8:	6a74      	ldr	r4, [r6, #36]	; 0x24
 8006cba:	b93c      	cbnz	r4, 8006ccc <__pow5mult+0x38>
 8006cbc:	2010      	movs	r0, #16
 8006cbe:	f7fe fa97 	bl	80051f0 <malloc>
 8006cc2:	6270      	str	r0, [r6, #36]	; 0x24
 8006cc4:	6044      	str	r4, [r0, #4]
 8006cc6:	6084      	str	r4, [r0, #8]
 8006cc8:	6004      	str	r4, [r0, #0]
 8006cca:	60c4      	str	r4, [r0, #12]
 8006ccc:	f8d6 8024 	ldr.w	r8, [r6, #36]	; 0x24
 8006cd0:	f8d8 4008 	ldr.w	r4, [r8, #8]
 8006cd4:	b94c      	cbnz	r4, 8006cea <__pow5mult+0x56>
 8006cd6:	f240 2171 	movw	r1, #625	; 0x271
 8006cda:	4630      	mov	r0, r6
 8006cdc:	f7ff ff44 	bl	8006b68 <__i2b>
 8006ce0:	2300      	movs	r3, #0
 8006ce2:	4604      	mov	r4, r0
 8006ce4:	f8c8 0008 	str.w	r0, [r8, #8]
 8006ce8:	6003      	str	r3, [r0, #0]
 8006cea:	f04f 0800 	mov.w	r8, #0
 8006cee:	07eb      	lsls	r3, r5, #31
 8006cf0:	d50a      	bpl.n	8006d08 <__pow5mult+0x74>
 8006cf2:	4639      	mov	r1, r7
 8006cf4:	4622      	mov	r2, r4
 8006cf6:	4630      	mov	r0, r6
 8006cf8:	f7ff ff3f 	bl	8006b7a <__multiply>
 8006cfc:	4681      	mov	r9, r0
 8006cfe:	4639      	mov	r1, r7
 8006d00:	4630      	mov	r0, r6
 8006d02:	f7ff fe53 	bl	80069ac <_Bfree>
 8006d06:	464f      	mov	r7, r9
 8006d08:	106d      	asrs	r5, r5, #1
 8006d0a:	d00b      	beq.n	8006d24 <__pow5mult+0x90>
 8006d0c:	6820      	ldr	r0, [r4, #0]
 8006d0e:	b938      	cbnz	r0, 8006d20 <__pow5mult+0x8c>
 8006d10:	4622      	mov	r2, r4
 8006d12:	4621      	mov	r1, r4
 8006d14:	4630      	mov	r0, r6
 8006d16:	f7ff ff30 	bl	8006b7a <__multiply>
 8006d1a:	6020      	str	r0, [r4, #0]
 8006d1c:	f8c0 8000 	str.w	r8, [r0]
 8006d20:	4604      	mov	r4, r0
 8006d22:	e7e4      	b.n	8006cee <__pow5mult+0x5a>
 8006d24:	4638      	mov	r0, r7
 8006d26:	e8bd 83f8 	ldmia.w	sp!, {r3, r4, r5, r6, r7, r8, r9, pc}
 8006d2a:	bf00      	nop
 8006d2c:	08007a68 	.word	0x08007a68

08006d30 <__lshift>:
 8006d30:	e92d 47f0 	stmdb	sp!, {r4, r5, r6, r7, r8, r9, sl, lr}
 8006d34:	460c      	mov	r4, r1
 8006d36:	4607      	mov	r7, r0
 8006d38:	4616      	mov	r6, r2
 8006d3a:	6923      	ldr	r3, [r4, #16]
 8006d3c:	ea4f 1a62 	mov.w	sl, r2, asr #5
 8006d40:	eb0a 0903 	add.w	r9, sl, r3
 8006d44:	6849      	ldr	r1, [r1, #4]
 8006d46:	68a3      	ldr	r3, [r4, #8]
 8006d48:	f109 0501 	add.w	r5, r9, #1
 8006d4c:	42ab      	cmp	r3, r5
 8006d4e:	db31      	blt.n	8006db4 <__lshift+0x84>
 8006d50:	4638      	mov	r0, r7
 8006d52:	f7ff fdf7 	bl	8006944 <_Balloc>
 8006d56:	2200      	movs	r2, #0
 8006d58:	4680      	mov	r8, r0
 8006d5a:	4611      	mov	r1, r2
 8006d5c:	f100 0314 	add.w	r3, r0, #20
 8006d60:	4552      	cmp	r2, sl
 8006d62:	db2a      	blt.n	8006dba <__lshift+0x8a>
 8006d64:	6920      	ldr	r0, [r4, #16]
 8006d66:	ea2a 7aea 	bic.w	sl, sl, sl, asr #31
 8006d6a:	f104 0114 	add.w	r1, r4, #20
 8006d6e:	f016 021f 	ands.w	r2, r6, #31
 8006d72:	eb03 038a 	add.w	r3, r3, sl, lsl #2
 8006d76:	eb01 0e80 	add.w	lr, r1, r0, lsl #2
 8006d7a:	d022      	beq.n	8006dc2 <__lshift+0x92>
 8006d7c:	2000      	movs	r0, #0
 8006d7e:	f1c2 0c20 	rsb	ip, r2, #32
 8006d82:	680e      	ldr	r6, [r1, #0]
 8006d84:	4096      	lsls	r6, r2
 8006d86:	4330      	orrs	r0, r6
 8006d88:	f843 0b04 	str.w	r0, [r3], #4
 8006d8c:	f851 0b04 	ldr.w	r0, [r1], #4
 8006d90:	458e      	cmp	lr, r1
 8006d92:	fa20 f00c 	lsr.w	r0, r0, ip
 8006d96:	d8f4      	bhi.n	8006d82 <__lshift+0x52>
 8006d98:	6018      	str	r0, [r3, #0]
 8006d9a:	b108      	cbz	r0, 8006da0 <__lshift+0x70>
 8006d9c:	f109 0502 	add.w	r5, r9, #2
 8006da0:	3d01      	subs	r5, #1
 8006da2:	4638      	mov	r0, r7
 8006da4:	f8c8 5010 	str.w	r5, [r8, #16]
 8006da8:	4621      	mov	r1, r4
 8006daa:	f7ff fdff 	bl	80069ac <_Bfree>
 8006dae:	4640      	mov	r0, r8
 8006db0:	e8bd 87f0 	ldmia.w	sp!, {r4, r5, r6, r7, r8, r9, sl, pc}
 8006db4:	3101      	adds	r1, #1
 8006db6:	005b      	lsls	r3, r3, #1
 8006db8:	e7c8      	b.n	8006d4c <__lshift+0x1c>
 8006dba:	f843 1022 	str.w	r1, [r3, r2, lsl #2]
 8006dbe:	3201      	adds	r2, #1
 8006dc0:	e7ce      	b.n	8006d60 <__lshift+0x30>
 8006dc2:	3b04      	subs	r3, #4
 8006dc4:	f851 2b04 	ldr.w	r2, [r1], #4
 8006dc8:	458e      	cmp	lr, r1
 8006dca:	f843 2f04 	str.w	r2, [r3, #4]!
 8006dce:	d8f9      	bhi.n	8006dc4 <__lshift+0x94>
 8006dd0:	e7e6      	b.n	8006da0 <__lshift+0x70>

08006dd2 <__mcmp>:
 8006dd2:	6903      	ldr	r3, [r0, #16]
 8006dd4:	690a      	ldr	r2, [r1, #16]
 8006dd6:	b530      	push	{r4, r5, lr}
 8006dd8:	1a9b      	subs	r3, r3, r2
 8006dda:	d10c      	bne.n	8006df6 <__mcmp+0x24>
 8006ddc:	0092      	lsls	r2, r2, #2
 8006dde:	3014      	adds	r0, #20
 8006de0:	3114      	adds	r1, #20
 8006de2:	1884      	adds	r4, r0, r2
 8006de4:	4411      	add	r1, r2
 8006de6:	f854 5d04 	ldr.w	r5, [r4, #-4]!
 8006dea:	f851 2d04 	ldr.w	r2, [r1, #-4]!
 8006dee:	4295      	cmp	r5, r2
 8006df0:	d003      	beq.n	8006dfa <__mcmp+0x28>
 8006df2:	d305      	bcc.n	8006e00 <__mcmp+0x2e>
 8006df4:	2301      	movs	r3, #1
 8006df6:	4618      	mov	r0, r3
 8006df8:	bd30      	pop	{r4, r5, pc}
 8006dfa:	42a0      	cmp	r0, r4
 8006dfc:	d3f3      	bcc.n	8006de6 <__mcmp+0x14>
 8006dfe:	e7fa      	b.n	8006df6 <__mcmp+0x24>
 8006e00:	f04f 33ff 	mov.w	r3, #4294967295
 8006e04:	e7f7      	b.n	8006df6 <__mcmp+0x24>

08006e06 <__mdiff>:
 8006e06:	e92d 47f0 	stmdb	sp!, {r4, r5, r6, r7, r8, r9, sl, lr}
 8006e0a:	460d      	mov	r5, r1
 8006e0c:	4607      	mov	r7, r0
 8006e0e:	4611      	mov	r1, r2
 8006e10:	4628      	mov	r0, r5
 8006e12:	4614      	mov	r4, r2
 8006e14:	f7ff ffdd 	bl	8006dd2 <__mcmp>
 8006e18:	1e06      	subs	r6, r0, #0
 8006e1a:	d108      	bne.n	8006e2e <__mdiff+0x28>
 8006e1c:	4631      	mov	r1, r6
 8006e1e:	4638      	mov	r0, r7
 8006e20:	f7ff fd90 	bl	8006944 <_Balloc>
 8006e24:	2301      	movs	r3, #1
 8006e26:	6146      	str	r6, [r0, #20]
 8006e28:	6103      	str	r3, [r0, #16]
 8006e2a:	e8bd 87f0 	ldmia.w	sp!, {r4, r5, r6, r7, r8, r9, sl, pc}
 8006e2e:	bfa4      	itt	ge
 8006e30:	4623      	movge	r3, r4
 8006e32:	462c      	movge	r4, r5
 8006e34:	4638      	mov	r0, r7
 8006e36:	6861      	ldr	r1, [r4, #4]
 8006e38:	bfa6      	itte	ge
 8006e3a:	461d      	movge	r5, r3
 8006e3c:	2600      	movge	r6, #0
 8006e3e:	2601      	movlt	r6, #1
 8006e40:	f7ff fd80 	bl	8006944 <_Balloc>
 8006e44:	f04f 0c00 	mov.w	ip, #0
 8006e48:	60c6      	str	r6, [r0, #12]
 8006e4a:	692b      	ldr	r3, [r5, #16]
 8006e4c:	6926      	ldr	r6, [r4, #16]
 8006e4e:	f104 0214 	add.w	r2, r4, #20
 8006e52:	f105 0914 	add.w	r9, r5, #20
 8006e56:	eb02 0786 	add.w	r7, r2, r6, lsl #2
 8006e5a:	eb09 0883 	add.w	r8, r9, r3, lsl #2
 8006e5e:	f100 0114 	add.w	r1, r0, #20
 8006e62:	f852 ab04 	ldr.w	sl, [r2], #4
 8006e66:	f859 5b04 	ldr.w	r5, [r9], #4
 8006e6a:	fa1f f38a 	uxth.w	r3, sl
 8006e6e:	4463      	add	r3, ip
 8006e70:	b2ac      	uxth	r4, r5
 8006e72:	1b1b      	subs	r3, r3, r4
 8006e74:	0c2c      	lsrs	r4, r5, #16
 8006e76:	ebc4 441a 	rsb	r4, r4, sl, lsr #16
 8006e7a:	eb04 4423 	add.w	r4, r4, r3, asr #16
 8006e7e:	b29b      	uxth	r3, r3
 8006e80:	ea4f 4c24 	mov.w	ip, r4, asr #16
 8006e84:	45c8      	cmp	r8, r9
 8006e86:	ea43 4404 	orr.w	r4, r3, r4, lsl #16
 8006e8a:	4696      	mov	lr, r2
 8006e8c:	f841 4b04 	str.w	r4, [r1], #4
 8006e90:	d8e7      	bhi.n	8006e62 <__mdiff+0x5c>
 8006e92:	45be      	cmp	lr, r7
 8006e94:	d305      	bcc.n	8006ea2 <__mdiff+0x9c>
 8006e96:	f851 3d04 	ldr.w	r3, [r1, #-4]!
 8006e9a:	b18b      	cbz	r3, 8006ec0 <__mdiff+0xba>
 8006e9c:	6106      	str	r6, [r0, #16]
 8006e9e:	e8bd 87f0 	ldmia.w	sp!, {r4, r5, r6, r7, r8, r9, sl, pc}
 8006ea2:	f85e 4b04 	ldr.w	r4, [lr], #4
 8006ea6:	b2a2      	uxth	r2, r4
 8006ea8:	4462      	add	r2, ip
 8006eaa:	1413      	asrs	r3, r2, #16
 8006eac:	eb03 4314 	add.w	r3, r3, r4, lsr #16
 8006eb0:	b292      	uxth	r2, r2
 8006eb2:	ea42 4203 	orr.w	r2, r2, r3, lsl #16
 8006eb6:	ea4f 4c23 	mov.w	ip, r3, asr #16
 8006eba:	f841 2b04 	str.w	r2, [r1], #4
 8006ebe:	e7e8      	b.n	8006e92 <__mdiff+0x8c>
 8006ec0:	3e01      	subs	r6, #1
 8006ec2:	e7e8      	b.n	8006e96 <__mdiff+0x90>

08006ec4 <__ulp>:
 8006ec4:	4b10      	ldr	r3, [pc, #64]	; (8006f08 <__ulp+0x44>)
 8006ec6:	400b      	ands	r3, r1
 8006ec8:	f1a3 7350 	sub.w	r3, r3, #54525952	; 0x3400000
 8006ecc:	2b00      	cmp	r3, #0
 8006ece:	dd02      	ble.n	8006ed6 <__ulp+0x12>
 8006ed0:	2000      	movs	r0, #0
 8006ed2:	4619      	mov	r1, r3
 8006ed4:	4770      	bx	lr
 8006ed6:	425b      	negs	r3, r3
 8006ed8:	151b      	asrs	r3, r3, #20
 8006eda:	2b13      	cmp	r3, #19
 8006edc:	f04f 0000 	mov.w	r0, #0
 8006ee0:	f04f 0100 	mov.w	r1, #0
 8006ee4:	dc04      	bgt.n	8006ef0 <__ulp+0x2c>
 8006ee6:	f44f 2200 	mov.w	r2, #524288	; 0x80000
 8006eea:	fa42 f103 	asr.w	r1, r2, r3
 8006eee:	4770      	bx	lr
 8006ef0:	2201      	movs	r2, #1
 8006ef2:	3b14      	subs	r3, #20
 8006ef4:	2b1e      	cmp	r3, #30
 8006ef6:	bfce      	itee	gt
 8006ef8:	4613      	movgt	r3, r2
 8006efa:	f1c3 031f 	rsble	r3, r3, #31
 8006efe:	fa02 f303 	lslle.w	r3, r2, r3
 8006f02:	4618      	mov	r0, r3
 8006f04:	4770      	bx	lr
 8006f06:	bf00      	nop
 8006f08:	7ff00000 	.word	0x7ff00000

08006f0c <__b2d>:
 8006f0c:	e92d 43f8 	stmdb	sp!, {r3, r4, r5, r6, r7, r8, r9, lr}
 8006f10:	6907      	ldr	r7, [r0, #16]
 8006f12:	f100 0914 	add.w	r9, r0, #20
 8006f16:	eb09 0787 	add.w	r7, r9, r7, lsl #2
 8006f1a:	f857 6c04 	ldr.w	r6, [r7, #-4]
 8006f1e:	f1a7 0804 	sub.w	r8, r7, #4
 8006f22:	4630      	mov	r0, r6
 8006f24:	f7ff fdd2 	bl	8006acc <__hi0bits>
 8006f28:	f1c0 0320 	rsb	r3, r0, #32
 8006f2c:	280a      	cmp	r0, #10
 8006f2e:	600b      	str	r3, [r1, #0]
 8006f30:	491e      	ldr	r1, [pc, #120]	; (8006fac <__b2d+0xa0>)
 8006f32:	dc17      	bgt.n	8006f64 <__b2d+0x58>
 8006f34:	45c1      	cmp	r9, r8
 8006f36:	bf28      	it	cs
 8006f38:	2200      	movcs	r2, #0
 8006f3a:	f1c0 0e0b 	rsb	lr, r0, #11
 8006f3e:	fa26 f30e 	lsr.w	r3, r6, lr
 8006f42:	bf38      	it	cc
 8006f44:	f857 2c08 	ldrcc.w	r2, [r7, #-8]
 8006f48:	ea43 0501 	orr.w	r5, r3, r1
 8006f4c:	f100 0315 	add.w	r3, r0, #21
 8006f50:	fa06 f303 	lsl.w	r3, r6, r3
 8006f54:	fa22 f20e 	lsr.w	r2, r2, lr
 8006f58:	ea43 0402 	orr.w	r4, r3, r2
 8006f5c:	4620      	mov	r0, r4
 8006f5e:	4629      	mov	r1, r5
 8006f60:	e8bd 83f8 	ldmia.w	sp!, {r3, r4, r5, r6, r7, r8, r9, pc}
 8006f64:	45c1      	cmp	r9, r8
 8006f66:	bf3a      	itte	cc
 8006f68:	f1a7 0808 	subcc.w	r8, r7, #8
 8006f6c:	f857 2c08 	ldrcc.w	r2, [r7, #-8]
 8006f70:	2200      	movcs	r2, #0
 8006f72:	f1b0 030b 	subs.w	r3, r0, #11
 8006f76:	d015      	beq.n	8006fa4 <__b2d+0x98>
 8006f78:	409e      	lsls	r6, r3
 8006f7a:	f1c3 0720 	rsb	r7, r3, #32
 8006f7e:	f046 567f 	orr.w	r6, r6, #1069547520	; 0x3fc00000
 8006f82:	fa22 f107 	lsr.w	r1, r2, r7
 8006f86:	45c8      	cmp	r8, r9
 8006f88:	f446 1640 	orr.w	r6, r6, #3145728	; 0x300000
 8006f8c:	ea46 0501 	orr.w	r5, r6, r1
 8006f90:	bf94      	ite	ls
 8006f92:	2100      	movls	r1, #0
 8006f94:	f858 1c04 	ldrhi.w	r1, [r8, #-4]
 8006f98:	fa02 f003 	lsl.w	r0, r2, r3
 8006f9c:	40f9      	lsrs	r1, r7
 8006f9e:	ea40 0401 	orr.w	r4, r0, r1
 8006fa2:	e7db      	b.n	8006f5c <__b2d+0x50>
 8006fa4:	ea46 0501 	orr.w	r5, r6, r1
 8006fa8:	4614      	mov	r4, r2
 8006faa:	e7d7      	b.n	8006f5c <__b2d+0x50>
 8006fac:	3ff00000 	.word	0x3ff00000

08006fb0 <__d2b>:
 8006fb0:	e92d 41f3 	stmdb	sp!, {r0, r1, r4, r5, r6, r7, r8, lr}
 8006fb4:	461c      	mov	r4, r3
 8006fb6:	2101      	movs	r1, #1
 8006fb8:	4690      	mov	r8, r2
 8006fba:	9e08      	ldr	r6, [sp, #32]
 8006fbc:	9d09      	ldr	r5, [sp, #36]	; 0x24
 8006fbe:	f7ff fcc1 	bl	8006944 <_Balloc>
 8006fc2:	f3c4 0213 	ubfx	r2, r4, #0, #20
 8006fc6:	f3c4 540a 	ubfx	r4, r4, #20, #11
 8006fca:	4607      	mov	r7, r0
 8006fcc:	bb34      	cbnz	r4, 800701c <__d2b+0x6c>
 8006fce:	9201      	str	r2, [sp, #4]
 8006fd0:	f1b8 0f00 	cmp.w	r8, #0
 8006fd4:	d027      	beq.n	8007026 <__d2b+0x76>
 8006fd6:	a802      	add	r0, sp, #8
 8006fd8:	f840 8d08 	str.w	r8, [r0, #-8]!
 8006fdc:	f7ff fd95 	bl	8006b0a <__lo0bits>
 8006fe0:	9900      	ldr	r1, [sp, #0]
 8006fe2:	b1f0      	cbz	r0, 8007022 <__d2b+0x72>
 8006fe4:	9a01      	ldr	r2, [sp, #4]
 8006fe6:	f1c0 0320 	rsb	r3, r0, #32
 8006fea:	fa02 f303 	lsl.w	r3, r2, r3
 8006fee:	430b      	orrs	r3, r1
 8006ff0:	40c2      	lsrs	r2, r0
 8006ff2:	617b      	str	r3, [r7, #20]
 8006ff4:	9201      	str	r2, [sp, #4]
 8006ff6:	9b01      	ldr	r3, [sp, #4]
 8006ff8:	2b00      	cmp	r3, #0
 8006ffa:	bf14      	ite	ne
 8006ffc:	2102      	movne	r1, #2
 8006ffe:	2101      	moveq	r1, #1
 8007000:	61bb      	str	r3, [r7, #24]
 8007002:	6139      	str	r1, [r7, #16]
 8007004:	b1c4      	cbz	r4, 8007038 <__d2b+0x88>
 8007006:	f2a4 4433 	subw	r4, r4, #1075	; 0x433
 800700a:	4404      	add	r4, r0
 800700c:	6034      	str	r4, [r6, #0]
 800700e:	f1c0 0035 	rsb	r0, r0, #53	; 0x35
 8007012:	6028      	str	r0, [r5, #0]
 8007014:	4638      	mov	r0, r7
 8007016:	b002      	add	sp, #8
 8007018:	e8bd 81f0 	ldmia.w	sp!, {r4, r5, r6, r7, r8, pc}
 800701c:	f442 1280 	orr.w	r2, r2, #1048576	; 0x100000
 8007020:	e7d5      	b.n	8006fce <__d2b+0x1e>
 8007022:	6179      	str	r1, [r7, #20]
 8007024:	e7e7      	b.n	8006ff6 <__d2b+0x46>
 8007026:	a801      	add	r0, sp, #4
 8007028:	f7ff fd6f 	bl	8006b0a <__lo0bits>
 800702c:	2101      	movs	r1, #1
 800702e:	9b01      	ldr	r3, [sp, #4]
 8007030:	6139      	str	r1, [r7, #16]
 8007032:	617b      	str	r3, [r7, #20]
 8007034:	3020      	adds	r0, #32
 8007036:	e7e5      	b.n	8007004 <__d2b+0x54>
 8007038:	f2a0 4032 	subw	r0, r0, #1074	; 0x432
 800703c:	eb07 0381 	add.w	r3, r7, r1, lsl #2
 8007040:	6030      	str	r0, [r6, #0]
 8007042:	6918      	ldr	r0, [r3, #16]
 8007044:	f7ff fd42 	bl	8006acc <__hi0bits>
 8007048:	ebc0 1041 	rsb	r0, r0, r1, lsl #5
 800704c:	e7e1      	b.n	8007012 <__d2b+0x62>

0800704e <__ratio>:
 800704e:	e92d 4373 	stmdb	sp!, {r0, r1, r4, r5, r6, r8, r9, lr}
 8007052:	4688      	mov	r8, r1
 8007054:	4669      	mov	r1, sp
 8007056:	4681      	mov	r9, r0
 8007058:	f7ff ff58 	bl	8006f0c <__b2d>
 800705c:	460d      	mov	r5, r1
 800705e:	4604      	mov	r4, r0
 8007060:	a901      	add	r1, sp, #4
 8007062:	4640      	mov	r0, r8
 8007064:	f7ff ff52 	bl	8006f0c <__b2d>
 8007068:	f8d9 3010 	ldr.w	r3, [r9, #16]
 800706c:	f8d8 2010 	ldr.w	r2, [r8, #16]
 8007070:	9e00      	ldr	r6, [sp, #0]
 8007072:	1a9a      	subs	r2, r3, r2
 8007074:	9b01      	ldr	r3, [sp, #4]
 8007076:	1af3      	subs	r3, r6, r3
 8007078:	eb03 1342 	add.w	r3, r3, r2, lsl #5
 800707c:	2b00      	cmp	r3, #0
 800707e:	bfd6      	itet	le
 8007080:	ebc3 3303 	rsble	r3, r3, r3, lsl #12
 8007084:	eb05 5503 	addgt.w	r5, r5, r3, lsl #20
 8007088:	eb01 5103 	addle.w	r1, r1, r3, lsl #20
 800708c:	4602      	mov	r2, r0
 800708e:	460b      	mov	r3, r1
 8007090:	4620      	mov	r0, r4
 8007092:	4629      	mov	r1, r5
 8007094:	f7f9 fb5e 	bl	8000754 <__aeabi_ddiv>
 8007098:	b002      	add	sp, #8
 800709a:	e8bd 8370 	ldmia.w	sp!, {r4, r5, r6, r8, r9, pc}

0800709e <__copybits>:
 800709e:	3901      	subs	r1, #1
 80070a0:	b510      	push	{r4, lr}
 80070a2:	1149      	asrs	r1, r1, #5
 80070a4:	6914      	ldr	r4, [r2, #16]
 80070a6:	3101      	adds	r1, #1
 80070a8:	f102 0314 	add.w	r3, r2, #20
 80070ac:	eb00 0181 	add.w	r1, r0, r1, lsl #2
 80070b0:	eb03 0484 	add.w	r4, r3, r4, lsl #2
 80070b4:	42a3      	cmp	r3, r4
 80070b6:	4602      	mov	r2, r0
 80070b8:	d303      	bcc.n	80070c2 <__copybits+0x24>
 80070ba:	2300      	movs	r3, #0
 80070bc:	428a      	cmp	r2, r1
 80070be:	d305      	bcc.n	80070cc <__copybits+0x2e>
 80070c0:	bd10      	pop	{r4, pc}
 80070c2:	f853 2b04 	ldr.w	r2, [r3], #4
 80070c6:	f840 2b04 	str.w	r2, [r0], #4
 80070ca:	e7f3      	b.n	80070b4 <__copybits+0x16>
 80070cc:	f842 3b04 	str.w	r3, [r2], #4
 80070d0:	e7f4      	b.n	80070bc <__copybits+0x1e>

080070d2 <__any_on>:
 80070d2:	f100 0214 	add.w	r2, r0, #20
 80070d6:	6900      	ldr	r0, [r0, #16]
 80070d8:	114b      	asrs	r3, r1, #5
 80070da:	4298      	cmp	r0, r3
 80070dc:	b510      	push	{r4, lr}
 80070de:	db11      	blt.n	8007104 <__any_on+0x32>
 80070e0:	dd0a      	ble.n	80070f8 <__any_on+0x26>
 80070e2:	f011 011f 	ands.w	r1, r1, #31
 80070e6:	d007      	beq.n	80070f8 <__any_on+0x26>
 80070e8:	f852 4023 	ldr.w	r4, [r2, r3, lsl #2]
 80070ec:	fa24 f001 	lsr.w	r0, r4, r1
 80070f0:	fa00 f101 	lsl.w	r1, r0, r1
 80070f4:	428c      	cmp	r4, r1
 80070f6:	d10b      	bne.n	8007110 <__any_on+0x3e>
 80070f8:	eb02 0383 	add.w	r3, r2, r3, lsl #2
 80070fc:	4293      	cmp	r3, r2
 80070fe:	d803      	bhi.n	8007108 <__any_on+0x36>
 8007100:	2000      	movs	r0, #0
 8007102:	bd10      	pop	{r4, pc}
 8007104:	4603      	mov	r3, r0
 8007106:	e7f7      	b.n	80070f8 <__any_on+0x26>
 8007108:	f853 1d04 	ldr.w	r1, [r3, #-4]!
 800710c:	2900      	cmp	r1, #0
 800710e:	d0f5      	beq.n	80070fc <__any_on+0x2a>
 8007110:	2001      	movs	r0, #1
 8007112:	bd10      	pop	{r4, pc}

08007114 <_calloc_r>:
 8007114:	b538      	push	{r3, r4, r5, lr}
 8007116:	fb02 f401 	mul.w	r4, r2, r1
 800711a:	4621      	mov	r1, r4
 800711c:	f7fe f8cc 	bl	80052b8 <_malloc_r>
 8007120:	4605      	mov	r5, r0
 8007122:	b118      	cbz	r0, 800712c <_calloc_r+0x18>
 8007124:	4622      	mov	r2, r4
 8007126:	2100      	movs	r1, #0
 8007128:	f7fe f872 	bl	8005210 <memset>
 800712c:	4628      	mov	r0, r5
 800712e:	bd38      	pop	{r3, r4, r5, pc}

08007130 <__ssputs_r>:
 8007130:	e92d 47f0 	stmdb	sp!, {r4, r5, r6, r7, r8, r9, sl, lr}
 8007134:	688e      	ldr	r6, [r1, #8]
 8007136:	4682      	mov	sl, r0
 8007138:	429e      	cmp	r6, r3
 800713a:	460c      	mov	r4, r1
 800713c:	4691      	mov	r9, r2
 800713e:	4698      	mov	r8, r3
 8007140:	d835      	bhi.n	80071ae <__ssputs_r+0x7e>
 8007142:	898a      	ldrh	r2, [r1, #12]
 8007144:	f412 6f90 	tst.w	r2, #1152	; 0x480
 8007148:	d031      	beq.n	80071ae <__ssputs_r+0x7e>
 800714a:	2302      	movs	r3, #2
 800714c:	6825      	ldr	r5, [r4, #0]
 800714e:	6909      	ldr	r1, [r1, #16]
 8007150:	1a6f      	subs	r7, r5, r1
 8007152:	6965      	ldr	r5, [r4, #20]
 8007154:	eb05 0545 	add.w	r5, r5, r5, lsl #1
 8007158:	fb95 f5f3 	sdiv	r5, r5, r3
 800715c:	f108 0301 	add.w	r3, r8, #1
 8007160:	443b      	add	r3, r7
 8007162:	429d      	cmp	r5, r3
 8007164:	bf38      	it	cc
 8007166:	461d      	movcc	r5, r3
 8007168:	0553      	lsls	r3, r2, #21
 800716a:	d531      	bpl.n	80071d0 <__ssputs_r+0xa0>
 800716c:	4629      	mov	r1, r5
 800716e:	f7fe f8a3 	bl	80052b8 <_malloc_r>
 8007172:	4606      	mov	r6, r0
 8007174:	b950      	cbnz	r0, 800718c <__ssputs_r+0x5c>
 8007176:	230c      	movs	r3, #12
 8007178:	f8ca 3000 	str.w	r3, [sl]
 800717c:	89a3      	ldrh	r3, [r4, #12]
 800717e:	f04f 30ff 	mov.w	r0, #4294967295
 8007182:	f043 0340 	orr.w	r3, r3, #64	; 0x40
 8007186:	81a3      	strh	r3, [r4, #12]
 8007188:	e8bd 87f0 	ldmia.w	sp!, {r4, r5, r6, r7, r8, r9, sl, pc}
 800718c:	463a      	mov	r2, r7
 800718e:	6921      	ldr	r1, [r4, #16]
 8007190:	f7ff fbcb 	bl	800692a <memcpy>
 8007194:	89a3      	ldrh	r3, [r4, #12]
 8007196:	f423 6390 	bic.w	r3, r3, #1152	; 0x480
 800719a:	f043 0380 	orr.w	r3, r3, #128	; 0x80
 800719e:	81a3      	strh	r3, [r4, #12]
 80071a0:	6126      	str	r6, [r4, #16]
 80071a2:	443e      	add	r6, r7
 80071a4:	6026      	str	r6, [r4, #0]
 80071a6:	4646      	mov	r6, r8
 80071a8:	6165      	str	r5, [r4, #20]
 80071aa:	1bed      	subs	r5, r5, r7
 80071ac:	60a5      	str	r5, [r4, #8]
 80071ae:	4546      	cmp	r6, r8
 80071b0:	bf28      	it	cs
 80071b2:	4646      	movcs	r6, r8
 80071b4:	4649      	mov	r1, r9
 80071b6:	4632      	mov	r2, r6
 80071b8:	6820      	ldr	r0, [r4, #0]
 80071ba:	f000 fabc 	bl	8007736 <memmove>
 80071be:	68a3      	ldr	r3, [r4, #8]
 80071c0:	2000      	movs	r0, #0
 80071c2:	1b9b      	subs	r3, r3, r6
 80071c4:	60a3      	str	r3, [r4, #8]
 80071c6:	6823      	ldr	r3, [r4, #0]
 80071c8:	441e      	add	r6, r3
 80071ca:	6026      	str	r6, [r4, #0]
 80071cc:	e8bd 87f0 	ldmia.w	sp!, {r4, r5, r6, r7, r8, r9, sl, pc}
 80071d0:	462a      	mov	r2, r5
 80071d2:	f000 faca 	bl	800776a <_realloc_r>
 80071d6:	4606      	mov	r6, r0
 80071d8:	2800      	cmp	r0, #0
 80071da:	d1e1      	bne.n	80071a0 <__ssputs_r+0x70>
 80071dc:	6921      	ldr	r1, [r4, #16]
 80071de:	4650      	mov	r0, sl
 80071e0:	f7fe f81e 	bl	8005220 <_free_r>
 80071e4:	e7c7      	b.n	8007176 <__ssputs_r+0x46>
	...

080071e8 <_svfiprintf_r>:
 80071e8:	e92d 4ff0 	stmdb	sp!, {r4, r5, r6, r7, r8, r9, sl, fp, lr}
 80071ec:	b09d      	sub	sp, #116	; 0x74
 80071ee:	9303      	str	r3, [sp, #12]
 80071f0:	898b      	ldrh	r3, [r1, #12]
 80071f2:	4680      	mov	r8, r0
 80071f4:	061c      	lsls	r4, r3, #24
 80071f6:	460d      	mov	r5, r1
 80071f8:	4616      	mov	r6, r2
 80071fa:	d50f      	bpl.n	800721c <_svfiprintf_r+0x34>
 80071fc:	690b      	ldr	r3, [r1, #16]
 80071fe:	b96b      	cbnz	r3, 800721c <_svfiprintf_r+0x34>
 8007200:	2140      	movs	r1, #64	; 0x40
 8007202:	f7fe f859 	bl	80052b8 <_malloc_r>
 8007206:	6028      	str	r0, [r5, #0]
 8007208:	6128      	str	r0, [r5, #16]
 800720a:	b928      	cbnz	r0, 8007218 <_svfiprintf_r+0x30>
 800720c:	230c      	movs	r3, #12
 800720e:	f8c8 3000 	str.w	r3, [r8]
 8007212:	f04f 30ff 	mov.w	r0, #4294967295
 8007216:	e0c4      	b.n	80073a2 <_svfiprintf_r+0x1ba>
 8007218:	2340      	movs	r3, #64	; 0x40
 800721a:	616b      	str	r3, [r5, #20]
 800721c:	2300      	movs	r3, #0
 800721e:	9309      	str	r3, [sp, #36]	; 0x24
 8007220:	2320      	movs	r3, #32
 8007222:	f88d 3029 	strb.w	r3, [sp, #41]	; 0x29
 8007226:	2330      	movs	r3, #48	; 0x30
 8007228:	f04f 0b01 	mov.w	fp, #1
 800722c:	f88d 302a 	strb.w	r3, [sp, #42]	; 0x2a
 8007230:	4637      	mov	r7, r6
 8007232:	463c      	mov	r4, r7
 8007234:	f814 3b01 	ldrb.w	r3, [r4], #1
 8007238:	2b00      	cmp	r3, #0
 800723a:	d13c      	bne.n	80072b6 <_svfiprintf_r+0xce>
 800723c:	ebb7 0a06 	subs.w	sl, r7, r6
 8007240:	d00b      	beq.n	800725a <_svfiprintf_r+0x72>
 8007242:	4653      	mov	r3, sl
 8007244:	4632      	mov	r2, r6
 8007246:	4629      	mov	r1, r5
 8007248:	4640      	mov	r0, r8
 800724a:	f7ff ff71 	bl	8007130 <__ssputs_r>
 800724e:	3001      	adds	r0, #1
 8007250:	f000 80a2 	beq.w	8007398 <_svfiprintf_r+0x1b0>
 8007254:	9b09      	ldr	r3, [sp, #36]	; 0x24
 8007256:	4453      	add	r3, sl
 8007258:	9309      	str	r3, [sp, #36]	; 0x24
 800725a:	783b      	ldrb	r3, [r7, #0]
 800725c:	2b00      	cmp	r3, #0
 800725e:	f000 809b 	beq.w	8007398 <_svfiprintf_r+0x1b0>
 8007262:	2300      	movs	r3, #0
 8007264:	f04f 32ff 	mov.w	r2, #4294967295
 8007268:	9304      	str	r3, [sp, #16]
 800726a:	9307      	str	r3, [sp, #28]
 800726c:	9205      	str	r2, [sp, #20]
 800726e:	9306      	str	r3, [sp, #24]
 8007270:	f88d 3053 	strb.w	r3, [sp, #83]	; 0x53
 8007274:	931a      	str	r3, [sp, #104]	; 0x68
 8007276:	2205      	movs	r2, #5
 8007278:	7821      	ldrb	r1, [r4, #0]
 800727a:	4850      	ldr	r0, [pc, #320]	; (80073bc <_svfiprintf_r+0x1d4>)
 800727c:	f000 fa4d 	bl	800771a <memchr>
 8007280:	1c67      	adds	r7, r4, #1
 8007282:	9b04      	ldr	r3, [sp, #16]
 8007284:	b9d8      	cbnz	r0, 80072be <_svfiprintf_r+0xd6>
 8007286:	06d9      	lsls	r1, r3, #27
 8007288:	bf44      	itt	mi
 800728a:	2220      	movmi	r2, #32
 800728c:	f88d 2053 	strbmi.w	r2, [sp, #83]	; 0x53
 8007290:	071a      	lsls	r2, r3, #28
 8007292:	bf44      	itt	mi
 8007294:	222b      	movmi	r2, #43	; 0x2b
 8007296:	f88d 2053 	strbmi.w	r2, [sp, #83]	; 0x53
 800729a:	7822      	ldrb	r2, [r4, #0]
 800729c:	2a2a      	cmp	r2, #42	; 0x2a
 800729e:	d016      	beq.n	80072ce <_svfiprintf_r+0xe6>
 80072a0:	2100      	movs	r1, #0
 80072a2:	200a      	movs	r0, #10
 80072a4:	9a07      	ldr	r2, [sp, #28]
 80072a6:	4627      	mov	r7, r4
 80072a8:	783b      	ldrb	r3, [r7, #0]
 80072aa:	3401      	adds	r4, #1
 80072ac:	3b30      	subs	r3, #48	; 0x30
 80072ae:	2b09      	cmp	r3, #9
 80072b0:	d950      	bls.n	8007354 <_svfiprintf_r+0x16c>
 80072b2:	b1c9      	cbz	r1, 80072e8 <_svfiprintf_r+0x100>
 80072b4:	e011      	b.n	80072da <_svfiprintf_r+0xf2>
 80072b6:	2b25      	cmp	r3, #37	; 0x25
 80072b8:	d0c0      	beq.n	800723c <_svfiprintf_r+0x54>
 80072ba:	4627      	mov	r7, r4
 80072bc:	e7b9      	b.n	8007232 <_svfiprintf_r+0x4a>
 80072be:	4a3f      	ldr	r2, [pc, #252]	; (80073bc <_svfiprintf_r+0x1d4>)
 80072c0:	463c      	mov	r4, r7
 80072c2:	1a80      	subs	r0, r0, r2
 80072c4:	fa0b f000 	lsl.w	r0, fp, r0
 80072c8:	4318      	orrs	r0, r3
 80072ca:	9004      	str	r0, [sp, #16]
 80072cc:	e7d3      	b.n	8007276 <_svfiprintf_r+0x8e>
 80072ce:	9a03      	ldr	r2, [sp, #12]
 80072d0:	1d11      	adds	r1, r2, #4
 80072d2:	6812      	ldr	r2, [r2, #0]
 80072d4:	9103      	str	r1, [sp, #12]
 80072d6:	2a00      	cmp	r2, #0
 80072d8:	db01      	blt.n	80072de <_svfiprintf_r+0xf6>
 80072da:	9207      	str	r2, [sp, #28]
 80072dc:	e004      	b.n	80072e8 <_svfiprintf_r+0x100>
 80072de:	4252      	negs	r2, r2
 80072e0:	f043 0302 	orr.w	r3, r3, #2
 80072e4:	9207      	str	r2, [sp, #28]
 80072e6:	9304      	str	r3, [sp, #16]
 80072e8:	783b      	ldrb	r3, [r7, #0]
 80072ea:	2b2e      	cmp	r3, #46	; 0x2e
 80072ec:	d10d      	bne.n	800730a <_svfiprintf_r+0x122>
 80072ee:	787b      	ldrb	r3, [r7, #1]
 80072f0:	1c79      	adds	r1, r7, #1
 80072f2:	2b2a      	cmp	r3, #42	; 0x2a
 80072f4:	d132      	bne.n	800735c <_svfiprintf_r+0x174>
 80072f6:	9b03      	ldr	r3, [sp, #12]
 80072f8:	3702      	adds	r7, #2
 80072fa:	1d1a      	adds	r2, r3, #4
 80072fc:	681b      	ldr	r3, [r3, #0]
 80072fe:	9203      	str	r2, [sp, #12]
 8007300:	2b00      	cmp	r3, #0
 8007302:	bfb8      	it	lt
 8007304:	f04f 33ff 	movlt.w	r3, #4294967295
 8007308:	9305      	str	r3, [sp, #20]
 800730a:	4c2d      	ldr	r4, [pc, #180]	; (80073c0 <_svfiprintf_r+0x1d8>)
 800730c:	2203      	movs	r2, #3
 800730e:	7839      	ldrb	r1, [r7, #0]
 8007310:	4620      	mov	r0, r4
 8007312:	f000 fa02 	bl	800771a <memchr>
 8007316:	b138      	cbz	r0, 8007328 <_svfiprintf_r+0x140>
 8007318:	2340      	movs	r3, #64	; 0x40
 800731a:	1b00      	subs	r0, r0, r4
 800731c:	fa03 f000 	lsl.w	r0, r3, r0
 8007320:	9b04      	ldr	r3, [sp, #16]
 8007322:	3701      	adds	r7, #1
 8007324:	4303      	orrs	r3, r0
 8007326:	9304      	str	r3, [sp, #16]
 8007328:	7839      	ldrb	r1, [r7, #0]
 800732a:	2206      	movs	r2, #6
 800732c:	4825      	ldr	r0, [pc, #148]	; (80073c4 <_svfiprintf_r+0x1dc>)
 800732e:	1c7e      	adds	r6, r7, #1
 8007330:	f88d 1028 	strb.w	r1, [sp, #40]	; 0x28
 8007334:	f000 f9f1 	bl	800771a <memchr>
 8007338:	2800      	cmp	r0, #0
 800733a:	d035      	beq.n	80073a8 <_svfiprintf_r+0x1c0>
 800733c:	4b22      	ldr	r3, [pc, #136]	; (80073c8 <_svfiprintf_r+0x1e0>)
 800733e:	b9fb      	cbnz	r3, 8007380 <_svfiprintf_r+0x198>
 8007340:	9b03      	ldr	r3, [sp, #12]
 8007342:	3307      	adds	r3, #7
 8007344:	f023 0307 	bic.w	r3, r3, #7
 8007348:	3308      	adds	r3, #8
 800734a:	9303      	str	r3, [sp, #12]
 800734c:	9b09      	ldr	r3, [sp, #36]	; 0x24
 800734e:	444b      	add	r3, r9
 8007350:	9309      	str	r3, [sp, #36]	; 0x24
 8007352:	e76d      	b.n	8007230 <_svfiprintf_r+0x48>
 8007354:	fb00 3202 	mla	r2, r0, r2, r3
 8007358:	2101      	movs	r1, #1
 800735a:	e7a4      	b.n	80072a6 <_svfiprintf_r+0xbe>
 800735c:	2300      	movs	r3, #0
 800735e:	240a      	movs	r4, #10
 8007360:	4618      	mov	r0, r3
 8007362:	9305      	str	r3, [sp, #20]
 8007364:	460f      	mov	r7, r1
 8007366:	783a      	ldrb	r2, [r7, #0]
 8007368:	3101      	adds	r1, #1
 800736a:	3a30      	subs	r2, #48	; 0x30
 800736c:	2a09      	cmp	r2, #9
 800736e:	d903      	bls.n	8007378 <_svfiprintf_r+0x190>
 8007370:	2b00      	cmp	r3, #0
 8007372:	d0ca      	beq.n	800730a <_svfiprintf_r+0x122>
 8007374:	9005      	str	r0, [sp, #20]
 8007376:	e7c8      	b.n	800730a <_svfiprintf_r+0x122>
 8007378:	fb04 2000 	mla	r0, r4, r0, r2
 800737c:	2301      	movs	r3, #1
 800737e:	e7f1      	b.n	8007364 <_svfiprintf_r+0x17c>
 8007380:	ab03      	add	r3, sp, #12
 8007382:	9300      	str	r3, [sp, #0]
 8007384:	462a      	mov	r2, r5
 8007386:	4b11      	ldr	r3, [pc, #68]	; (80073cc <_svfiprintf_r+0x1e4>)
 8007388:	a904      	add	r1, sp, #16
 800738a:	4640      	mov	r0, r8
 800738c:	f3af 8000 	nop.w
 8007390:	f1b0 3fff 	cmp.w	r0, #4294967295
 8007394:	4681      	mov	r9, r0
 8007396:	d1d9      	bne.n	800734c <_svfiprintf_r+0x164>
 8007398:	89ab      	ldrh	r3, [r5, #12]
 800739a:	065b      	lsls	r3, r3, #25
 800739c:	f53f af39 	bmi.w	8007212 <_svfiprintf_r+0x2a>
 80073a0:	9809      	ldr	r0, [sp, #36]	; 0x24
 80073a2:	b01d      	add	sp, #116	; 0x74
 80073a4:	e8bd 8ff0 	ldmia.w	sp!, {r4, r5, r6, r7, r8, r9, sl, fp, pc}
 80073a8:	ab03      	add	r3, sp, #12
 80073aa:	9300      	str	r3, [sp, #0]
 80073ac:	462a      	mov	r2, r5
 80073ae:	4b07      	ldr	r3, [pc, #28]	; (80073cc <_svfiprintf_r+0x1e4>)
 80073b0:	a904      	add	r1, sp, #16
 80073b2:	4640      	mov	r0, r8
 80073b4:	f000 f884 	bl	80074c0 <_printf_i>
 80073b8:	e7ea      	b.n	8007390 <_svfiprintf_r+0x1a8>
 80073ba:	bf00      	nop
 80073bc:	08007a74 	.word	0x08007a74
 80073c0:	08007a7a 	.word	0x08007a7a
 80073c4:	08007a7e 	.word	0x08007a7e
 80073c8:	00000000 	.word	0x00000000
 80073cc:	08007131 	.word	0x08007131

080073d0 <_printf_common>:
 80073d0:	e92d 47f0 	stmdb	sp!, {r4, r5, r6, r7, r8, r9, sl, lr}
 80073d4:	4691      	mov	r9, r2
 80073d6:	461f      	mov	r7, r3
 80073d8:	688a      	ldr	r2, [r1, #8]
 80073da:	690b      	ldr	r3, [r1, #16]
 80073dc:	4606      	mov	r6, r0
 80073de:	4293      	cmp	r3, r2
 80073e0:	bfb8      	it	lt
 80073e2:	4613      	movlt	r3, r2
 80073e4:	f8c9 3000 	str.w	r3, [r9]
 80073e8:	f891 2043 	ldrb.w	r2, [r1, #67]	; 0x43
 80073ec:	460c      	mov	r4, r1
 80073ee:	f8dd 8020 	ldr.w	r8, [sp, #32]
 80073f2:	b112      	cbz	r2, 80073fa <_printf_common+0x2a>
 80073f4:	3301      	adds	r3, #1
 80073f6:	f8c9 3000 	str.w	r3, [r9]
 80073fa:	6823      	ldr	r3, [r4, #0]
 80073fc:	0699      	lsls	r1, r3, #26
 80073fe:	bf42      	ittt	mi
 8007400:	f8d9 3000 	ldrmi.w	r3, [r9]
 8007404:	3302      	addmi	r3, #2
 8007406:	f8c9 3000 	strmi.w	r3, [r9]
 800740a:	6825      	ldr	r5, [r4, #0]
 800740c:	f015 0506 	ands.w	r5, r5, #6
 8007410:	d107      	bne.n	8007422 <_printf_common+0x52>
 8007412:	f104 0a19 	add.w	sl, r4, #25
 8007416:	68e3      	ldr	r3, [r4, #12]
 8007418:	f8d9 2000 	ldr.w	r2, [r9]
 800741c:	1a9b      	subs	r3, r3, r2
 800741e:	429d      	cmp	r5, r3
 8007420:	db2a      	blt.n	8007478 <_printf_common+0xa8>
 8007422:	f894 3043 	ldrb.w	r3, [r4, #67]	; 0x43
 8007426:	6822      	ldr	r2, [r4, #0]
 8007428:	3300      	adds	r3, #0
 800742a:	bf18      	it	ne
 800742c:	2301      	movne	r3, #1
 800742e:	0692      	lsls	r2, r2, #26
 8007430:	d42f      	bmi.n	8007492 <_printf_common+0xc2>
 8007432:	f104 0243 	add.w	r2, r4, #67	; 0x43
 8007436:	4639      	mov	r1, r7
 8007438:	4630      	mov	r0, r6
 800743a:	47c0      	blx	r8
 800743c:	3001      	adds	r0, #1
 800743e:	d022      	beq.n	8007486 <_printf_common+0xb6>
 8007440:	6823      	ldr	r3, [r4, #0]
 8007442:	68e5      	ldr	r5, [r4, #12]
 8007444:	f003 0306 	and.w	r3, r3, #6
 8007448:	2b04      	cmp	r3, #4
 800744a:	bf18      	it	ne
 800744c:	2500      	movne	r5, #0
 800744e:	f8d9 2000 	ldr.w	r2, [r9]
 8007452:	f04f 0900 	mov.w	r9, #0
 8007456:	bf08      	it	eq
 8007458:	1aad      	subeq	r5, r5, r2
 800745a:	68a3      	ldr	r3, [r4, #8]
 800745c:	6922      	ldr	r2, [r4, #16]
 800745e:	bf08      	it	eq
 8007460:	ea25 75e5 	biceq.w	r5, r5, r5, asr #31
 8007464:	4293      	cmp	r3, r2
 8007466:	bfc4      	itt	gt
 8007468:	1a9b      	subgt	r3, r3, r2
 800746a:	18ed      	addgt	r5, r5, r3
 800746c:	341a      	adds	r4, #26
 800746e:	454d      	cmp	r5, r9
 8007470:	d11b      	bne.n	80074aa <_printf_common+0xda>
 8007472:	2000      	movs	r0, #0
 8007474:	e8bd 87f0 	ldmia.w	sp!, {r4, r5, r6, r7, r8, r9, sl, pc}
 8007478:	2301      	movs	r3, #1
 800747a:	4652      	mov	r2, sl
 800747c:	4639      	mov	r1, r7
 800747e:	4630      	mov	r0, r6
 8007480:	47c0      	blx	r8
 8007482:	3001      	adds	r0, #1
 8007484:	d103      	bne.n	800748e <_printf_common+0xbe>
 8007486:	f04f 30ff 	mov.w	r0, #4294967295
 800748a:	e8bd 87f0 	ldmia.w	sp!, {r4, r5, r6, r7, r8, r9, sl, pc}
 800748e:	3501      	adds	r5, #1
 8007490:	e7c1      	b.n	8007416 <_printf_common+0x46>
 8007492:	2030      	movs	r0, #48	; 0x30
 8007494:	18e1      	adds	r1, r4, r3
 8007496:	f881 0043 	strb.w	r0, [r1, #67]	; 0x43
 800749a:	1c5a      	adds	r2, r3, #1
 800749c:	f894 1045 	ldrb.w	r1, [r4, #69]	; 0x45
 80074a0:	4422      	add	r2, r4
 80074a2:	3302      	adds	r3, #2
 80074a4:	f882 1043 	strb.w	r1, [r2, #67]	; 0x43
 80074a8:	e7c3      	b.n	8007432 <_printf_common+0x62>
 80074aa:	2301      	movs	r3, #1
 80074ac:	4622      	mov	r2, r4
 80074ae:	4639      	mov	r1, r7
 80074b0:	4630      	mov	r0, r6
 80074b2:	47c0      	blx	r8
 80074b4:	3001      	adds	r0, #1
 80074b6:	d0e6      	beq.n	8007486 <_printf_common+0xb6>
 80074b8:	f109 0901 	add.w	r9, r9, #1
 80074bc:	e7d7      	b.n	800746e <_printf_common+0x9e>
	...

080074c0 <_printf_i>:
 80074c0:	e92d 43f0 	stmdb	sp!, {r4, r5, r6, r7, r8, r9, lr}
 80074c4:	4617      	mov	r7, r2
 80074c6:	7e0a      	ldrb	r2, [r1, #24]
 80074c8:	b085      	sub	sp, #20
 80074ca:	2a6e      	cmp	r2, #110	; 0x6e
 80074cc:	4698      	mov	r8, r3
 80074ce:	4606      	mov	r6, r0
 80074d0:	460c      	mov	r4, r1
 80074d2:	9b0c      	ldr	r3, [sp, #48]	; 0x30
 80074d4:	f101 0e43 	add.w	lr, r1, #67	; 0x43
 80074d8:	f000 80bc 	beq.w	8007654 <_printf_i+0x194>
 80074dc:	d81a      	bhi.n	8007514 <_printf_i+0x54>
 80074de:	2a63      	cmp	r2, #99	; 0x63
 80074e0:	d02e      	beq.n	8007540 <_printf_i+0x80>
 80074e2:	d80a      	bhi.n	80074fa <_printf_i+0x3a>
 80074e4:	2a00      	cmp	r2, #0
 80074e6:	f000 80c8 	beq.w	800767a <_printf_i+0x1ba>
 80074ea:	2a58      	cmp	r2, #88	; 0x58
 80074ec:	f000 808a 	beq.w	8007604 <_printf_i+0x144>
 80074f0:	f104 0542 	add.w	r5, r4, #66	; 0x42
 80074f4:	f884 2042 	strb.w	r2, [r4, #66]	; 0x42
 80074f8:	e02a      	b.n	8007550 <_printf_i+0x90>
 80074fa:	2a64      	cmp	r2, #100	; 0x64
 80074fc:	d001      	beq.n	8007502 <_printf_i+0x42>
 80074fe:	2a69      	cmp	r2, #105	; 0x69
 8007500:	d1f6      	bne.n	80074f0 <_printf_i+0x30>
 8007502:	6821      	ldr	r1, [r4, #0]
 8007504:	681a      	ldr	r2, [r3, #0]
 8007506:	f011 0f80 	tst.w	r1, #128	; 0x80
 800750a:	d023      	beq.n	8007554 <_printf_i+0x94>
 800750c:	1d11      	adds	r1, r2, #4
 800750e:	6019      	str	r1, [r3, #0]
 8007510:	6813      	ldr	r3, [r2, #0]
 8007512:	e027      	b.n	8007564 <_printf_i+0xa4>
 8007514:	2a73      	cmp	r2, #115	; 0x73
 8007516:	f000 80b4 	beq.w	8007682 <_printf_i+0x1c2>
 800751a:	d808      	bhi.n	800752e <_printf_i+0x6e>
 800751c:	2a6f      	cmp	r2, #111	; 0x6f
 800751e:	d02a      	beq.n	8007576 <_printf_i+0xb6>
 8007520:	2a70      	cmp	r2, #112	; 0x70
 8007522:	d1e5      	bne.n	80074f0 <_printf_i+0x30>
 8007524:	680a      	ldr	r2, [r1, #0]
 8007526:	f042 0220 	orr.w	r2, r2, #32
 800752a:	600a      	str	r2, [r1, #0]
 800752c:	e003      	b.n	8007536 <_printf_i+0x76>
 800752e:	2a75      	cmp	r2, #117	; 0x75
 8007530:	d021      	beq.n	8007576 <_printf_i+0xb6>
 8007532:	2a78      	cmp	r2, #120	; 0x78
 8007534:	d1dc      	bne.n	80074f0 <_printf_i+0x30>
 8007536:	2278      	movs	r2, #120	; 0x78
 8007538:	496f      	ldr	r1, [pc, #444]	; (80076f8 <_printf_i+0x238>)
 800753a:	f884 2045 	strb.w	r2, [r4, #69]	; 0x45
 800753e:	e064      	b.n	800760a <_printf_i+0x14a>
 8007540:	681a      	ldr	r2, [r3, #0]
 8007542:	f101 0542 	add.w	r5, r1, #66	; 0x42
 8007546:	1d11      	adds	r1, r2, #4
 8007548:	6019      	str	r1, [r3, #0]
 800754a:	6813      	ldr	r3, [r2, #0]
 800754c:	f884 3042 	strb.w	r3, [r4, #66]	; 0x42
 8007550:	2301      	movs	r3, #1
 8007552:	e0a3      	b.n	800769c <_printf_i+0x1dc>
 8007554:	f011 0f40 	tst.w	r1, #64	; 0x40
 8007558:	f102 0104 	add.w	r1, r2, #4
 800755c:	6019      	str	r1, [r3, #0]
 800755e:	d0d7      	beq.n	8007510 <_printf_i+0x50>
 8007560:	f9b2 3000 	ldrsh.w	r3, [r2]
 8007564:	2b00      	cmp	r3, #0
 8007566:	da03      	bge.n	8007570 <_printf_i+0xb0>
 8007568:	222d      	movs	r2, #45	; 0x2d
 800756a:	425b      	negs	r3, r3
 800756c:	f884 2043 	strb.w	r2, [r4, #67]	; 0x43
 8007570:	4962      	ldr	r1, [pc, #392]	; (80076fc <_printf_i+0x23c>)
 8007572:	220a      	movs	r2, #10
 8007574:	e017      	b.n	80075a6 <_printf_i+0xe6>
 8007576:	6820      	ldr	r0, [r4, #0]
 8007578:	6819      	ldr	r1, [r3, #0]
 800757a:	f010 0f80 	tst.w	r0, #128	; 0x80
 800757e:	d003      	beq.n	8007588 <_printf_i+0xc8>
 8007580:	1d08      	adds	r0, r1, #4
 8007582:	6018      	str	r0, [r3, #0]
 8007584:	680b      	ldr	r3, [r1, #0]
 8007586:	e006      	b.n	8007596 <_printf_i+0xd6>
 8007588:	f010 0f40 	tst.w	r0, #64	; 0x40
 800758c:	f101 0004 	add.w	r0, r1, #4
 8007590:	6018      	str	r0, [r3, #0]
 8007592:	d0f7      	beq.n	8007584 <_printf_i+0xc4>
 8007594:	880b      	ldrh	r3, [r1, #0]
 8007596:	2a6f      	cmp	r2, #111	; 0x6f
 8007598:	bf14      	ite	ne
 800759a:	220a      	movne	r2, #10
 800759c:	2208      	moveq	r2, #8
 800759e:	4957      	ldr	r1, [pc, #348]	; (80076fc <_printf_i+0x23c>)
 80075a0:	2000      	movs	r0, #0
 80075a2:	f884 0043 	strb.w	r0, [r4, #67]	; 0x43
 80075a6:	6865      	ldr	r5, [r4, #4]
 80075a8:	2d00      	cmp	r5, #0
 80075aa:	60a5      	str	r5, [r4, #8]
 80075ac:	f2c0 809c 	blt.w	80076e8 <_printf_i+0x228>
 80075b0:	6820      	ldr	r0, [r4, #0]
 80075b2:	f020 0004 	bic.w	r0, r0, #4
 80075b6:	6020      	str	r0, [r4, #0]
 80075b8:	2b00      	cmp	r3, #0
 80075ba:	d13f      	bne.n	800763c <_printf_i+0x17c>
 80075bc:	2d00      	cmp	r5, #0
 80075be:	f040 8095 	bne.w	80076ec <_printf_i+0x22c>
 80075c2:	4675      	mov	r5, lr
 80075c4:	2a08      	cmp	r2, #8
 80075c6:	d10b      	bne.n	80075e0 <_printf_i+0x120>
 80075c8:	6823      	ldr	r3, [r4, #0]
 80075ca:	07da      	lsls	r2, r3, #31
 80075cc:	d508      	bpl.n	80075e0 <_printf_i+0x120>
 80075ce:	6923      	ldr	r3, [r4, #16]
 80075d0:	6862      	ldr	r2, [r4, #4]
 80075d2:	429a      	cmp	r2, r3
 80075d4:	bfde      	ittt	le
 80075d6:	2330      	movle	r3, #48	; 0x30
 80075d8:	f805 3c01 	strble.w	r3, [r5, #-1]
 80075dc:	f105 35ff 	addle.w	r5, r5, #4294967295
 80075e0:	ebae 0305 	sub.w	r3, lr, r5
 80075e4:	6123      	str	r3, [r4, #16]
 80075e6:	f8cd 8000 	str.w	r8, [sp]
 80075ea:	463b      	mov	r3, r7
 80075ec:	aa03      	add	r2, sp, #12
 80075ee:	4621      	mov	r1, r4
 80075f0:	4630      	mov	r0, r6
 80075f2:	f7ff feed 	bl	80073d0 <_printf_common>
 80075f6:	3001      	adds	r0, #1
 80075f8:	d155      	bne.n	80076a6 <_printf_i+0x1e6>
 80075fa:	f04f 30ff 	mov.w	r0, #4294967295
 80075fe:	b005      	add	sp, #20
 8007600:	e8bd 83f0 	ldmia.w	sp!, {r4, r5, r6, r7, r8, r9, pc}
 8007604:	f881 2045 	strb.w	r2, [r1, #69]	; 0x45
 8007608:	493c      	ldr	r1, [pc, #240]	; (80076fc <_printf_i+0x23c>)
 800760a:	6822      	ldr	r2, [r4, #0]
 800760c:	6818      	ldr	r0, [r3, #0]
 800760e:	f012 0f80 	tst.w	r2, #128	; 0x80
 8007612:	f100 0504 	add.w	r5, r0, #4
 8007616:	601d      	str	r5, [r3, #0]
 8007618:	d001      	beq.n	800761e <_printf_i+0x15e>
 800761a:	6803      	ldr	r3, [r0, #0]
 800761c:	e002      	b.n	8007624 <_printf_i+0x164>
 800761e:	0655      	lsls	r5, r2, #25
 8007620:	d5fb      	bpl.n	800761a <_printf_i+0x15a>
 8007622:	8803      	ldrh	r3, [r0, #0]
 8007624:	07d0      	lsls	r0, r2, #31
 8007626:	bf44      	itt	mi
 8007628:	f042 0220 	orrmi.w	r2, r2, #32
 800762c:	6022      	strmi	r2, [r4, #0]
 800762e:	b91b      	cbnz	r3, 8007638 <_printf_i+0x178>
 8007630:	6822      	ldr	r2, [r4, #0]
 8007632:	f022 0220 	bic.w	r2, r2, #32
 8007636:	6022      	str	r2, [r4, #0]
 8007638:	2210      	movs	r2, #16
 800763a:	e7b1      	b.n	80075a0 <_printf_i+0xe0>
 800763c:	4675      	mov	r5, lr
 800763e:	fbb3 f0f2 	udiv	r0, r3, r2
 8007642:	fb02 3310 	mls	r3, r2, r0, r3
 8007646:	5ccb      	ldrb	r3, [r1, r3]
 8007648:	f805 3d01 	strb.w	r3, [r5, #-1]!
 800764c:	4603      	mov	r3, r0
 800764e:	2800      	cmp	r0, #0
 8007650:	d1f5      	bne.n	800763e <_printf_i+0x17e>
 8007652:	e7b7      	b.n	80075c4 <_printf_i+0x104>
 8007654:	6808      	ldr	r0, [r1, #0]
 8007656:	681a      	ldr	r2, [r3, #0]
 8007658:	f010 0f80 	tst.w	r0, #128	; 0x80
 800765c:	6949      	ldr	r1, [r1, #20]
 800765e:	d004      	beq.n	800766a <_printf_i+0x1aa>
 8007660:	1d10      	adds	r0, r2, #4
 8007662:	6018      	str	r0, [r3, #0]
 8007664:	6813      	ldr	r3, [r2, #0]
 8007666:	6019      	str	r1, [r3, #0]
 8007668:	e007      	b.n	800767a <_printf_i+0x1ba>
 800766a:	f010 0f40 	tst.w	r0, #64	; 0x40
 800766e:	f102 0004 	add.w	r0, r2, #4
 8007672:	6018      	str	r0, [r3, #0]
 8007674:	6813      	ldr	r3, [r2, #0]
 8007676:	d0f6      	beq.n	8007666 <_printf_i+0x1a6>
 8007678:	8019      	strh	r1, [r3, #0]
 800767a:	2300      	movs	r3, #0
 800767c:	4675      	mov	r5, lr
 800767e:	6123      	str	r3, [r4, #16]
 8007680:	e7b1      	b.n	80075e6 <_printf_i+0x126>
 8007682:	681a      	ldr	r2, [r3, #0]
 8007684:	1d11      	adds	r1, r2, #4
 8007686:	6019      	str	r1, [r3, #0]
 8007688:	6815      	ldr	r5, [r2, #0]
 800768a:	2100      	movs	r1, #0
 800768c:	6862      	ldr	r2, [r4, #4]
 800768e:	4628      	mov	r0, r5
 8007690:	f000 f843 	bl	800771a <memchr>
 8007694:	b108      	cbz	r0, 800769a <_printf_i+0x1da>
 8007696:	1b40      	subs	r0, r0, r5
 8007698:	6060      	str	r0, [r4, #4]
 800769a:	6863      	ldr	r3, [r4, #4]
 800769c:	6123      	str	r3, [r4, #16]
 800769e:	2300      	movs	r3, #0
 80076a0:	f884 3043 	strb.w	r3, [r4, #67]	; 0x43
 80076a4:	e79f      	b.n	80075e6 <_printf_i+0x126>
 80076a6:	6923      	ldr	r3, [r4, #16]
 80076a8:	462a      	mov	r2, r5
 80076aa:	4639      	mov	r1, r7
 80076ac:	4630      	mov	r0, r6
 80076ae:	47c0      	blx	r8
 80076b0:	3001      	adds	r0, #1
 80076b2:	d0a2      	beq.n	80075fa <_printf_i+0x13a>
 80076b4:	6823      	ldr	r3, [r4, #0]
 80076b6:	079b      	lsls	r3, r3, #30
 80076b8:	d507      	bpl.n	80076ca <_printf_i+0x20a>
 80076ba:	2500      	movs	r5, #0
 80076bc:	f104 0919 	add.w	r9, r4, #25
 80076c0:	68e3      	ldr	r3, [r4, #12]
 80076c2:	9a03      	ldr	r2, [sp, #12]
 80076c4:	1a9b      	subs	r3, r3, r2
 80076c6:	429d      	cmp	r5, r3
 80076c8:	db05      	blt.n	80076d6 <_printf_i+0x216>
 80076ca:	68e0      	ldr	r0, [r4, #12]
 80076cc:	9b03      	ldr	r3, [sp, #12]
 80076ce:	4298      	cmp	r0, r3
 80076d0:	bfb8      	it	lt
 80076d2:	4618      	movlt	r0, r3
 80076d4:	e793      	b.n	80075fe <_printf_i+0x13e>
 80076d6:	2301      	movs	r3, #1
 80076d8:	464a      	mov	r2, r9
 80076da:	4639      	mov	r1, r7
 80076dc:	4630      	mov	r0, r6
 80076de:	47c0      	blx	r8
 80076e0:	3001      	adds	r0, #1
 80076e2:	d08a      	beq.n	80075fa <_printf_i+0x13a>
 80076e4:	3501      	adds	r5, #1
 80076e6:	e7eb      	b.n	80076c0 <_printf_i+0x200>
 80076e8:	2b00      	cmp	r3, #0
 80076ea:	d1a7      	bne.n	800763c <_printf_i+0x17c>
 80076ec:	780b      	ldrb	r3, [r1, #0]
 80076ee:	f104 0542 	add.w	r5, r4, #66	; 0x42
 80076f2:	f884 3042 	strb.w	r3, [r4, #66]	; 0x42
 80076f6:	e765      	b.n	80075c4 <_printf_i+0x104>
 80076f8:	08007a96 	.word	0x08007a96
 80076fc:	08007a85 	.word	0x08007a85

08007700 <__ascii_wctomb>:
 8007700:	b149      	cbz	r1, 8007716 <__ascii_wctomb+0x16>
 8007702:	2aff      	cmp	r2, #255	; 0xff
 8007704:	bf8b      	itete	hi
 8007706:	238a      	movhi	r3, #138	; 0x8a
 8007708:	700a      	strbls	r2, [r1, #0]
 800770a:	6003      	strhi	r3, [r0, #0]
 800770c:	2001      	movls	r0, #1
 800770e:	bf88      	it	hi
 8007710:	f04f 30ff 	movhi.w	r0, #4294967295
 8007714:	4770      	bx	lr
 8007716:	4608      	mov	r0, r1
 8007718:	4770      	bx	lr

0800771a <memchr>:
 800771a:	b510      	push	{r4, lr}
 800771c:	b2c9      	uxtb	r1, r1
 800771e:	4402      	add	r2, r0
 8007720:	4290      	cmp	r0, r2
 8007722:	4603      	mov	r3, r0
 8007724:	d101      	bne.n	800772a <memchr+0x10>
 8007726:	2000      	movs	r0, #0
 8007728:	bd10      	pop	{r4, pc}
 800772a:	781c      	ldrb	r4, [r3, #0]
 800772c:	3001      	adds	r0, #1
 800772e:	428c      	cmp	r4, r1
 8007730:	d1f6      	bne.n	8007720 <memchr+0x6>
 8007732:	4618      	mov	r0, r3
 8007734:	bd10      	pop	{r4, pc}

08007736 <memmove>:
 8007736:	4288      	cmp	r0, r1
 8007738:	b510      	push	{r4, lr}
 800773a:	eb01 0302 	add.w	r3, r1, r2
 800773e:	d803      	bhi.n	8007748 <memmove+0x12>
 8007740:	1e42      	subs	r2, r0, #1
 8007742:	4299      	cmp	r1, r3
 8007744:	d10c      	bne.n	8007760 <memmove+0x2a>
 8007746:	bd10      	pop	{r4, pc}
 8007748:	4298      	cmp	r0, r3
 800774a:	d2f9      	bcs.n	8007740 <memmove+0xa>
 800774c:	1881      	adds	r1, r0, r2
 800774e:	1ad2      	subs	r2, r2, r3
 8007750:	42d3      	cmn	r3, r2
 8007752:	d100      	bne.n	8007756 <memmove+0x20>
 8007754:	bd10      	pop	{r4, pc}
 8007756:	f813 4d01 	ldrb.w	r4, [r3, #-1]!
 800775a:	f801 4d01 	strb.w	r4, [r1, #-1]!
 800775e:	e7f7      	b.n	8007750 <memmove+0x1a>
 8007760:	f811 4b01 	ldrb.w	r4, [r1], #1
 8007764:	f802 4f01 	strb.w	r4, [r2, #1]!
 8007768:	e7eb      	b.n	8007742 <memmove+0xc>

0800776a <_realloc_r>:
 800776a:	b5f8      	push	{r3, r4, r5, r6, r7, lr}
 800776c:	4607      	mov	r7, r0
 800776e:	4614      	mov	r4, r2
 8007770:	460e      	mov	r6, r1
 8007772:	b921      	cbnz	r1, 800777e <_realloc_r+0x14>
 8007774:	4611      	mov	r1, r2
 8007776:	e8bd 40f8 	ldmia.w	sp!, {r3, r4, r5, r6, r7, lr}
 800777a:	f7fd bd9d 	b.w	80052b8 <_malloc_r>
 800777e:	b922      	cbnz	r2, 800778a <_realloc_r+0x20>
 8007780:	f7fd fd4e 	bl	8005220 <_free_r>
 8007784:	4625      	mov	r5, r4
 8007786:	4628      	mov	r0, r5
 8007788:	bdf8      	pop	{r3, r4, r5, r6, r7, pc}
 800778a:	f000 f814 	bl	80077b6 <_malloc_usable_size_r>
 800778e:	4284      	cmp	r4, r0
 8007790:	d90f      	bls.n	80077b2 <_realloc_r+0x48>
 8007792:	4621      	mov	r1, r4
 8007794:	4638      	mov	r0, r7
 8007796:	f7fd fd8f 	bl	80052b8 <_malloc_r>
 800779a:	4605      	mov	r5, r0
 800779c:	2800      	cmp	r0, #0
 800779e:	d0f2      	beq.n	8007786 <_realloc_r+0x1c>
 80077a0:	4631      	mov	r1, r6
 80077a2:	4622      	mov	r2, r4
 80077a4:	f7ff f8c1 	bl	800692a <memcpy>
 80077a8:	4631      	mov	r1, r6
 80077aa:	4638      	mov	r0, r7
 80077ac:	f7fd fd38 	bl	8005220 <_free_r>
 80077b0:	e7e9      	b.n	8007786 <_realloc_r+0x1c>
 80077b2:	4635      	mov	r5, r6
 80077b4:	e7e7      	b.n	8007786 <_realloc_r+0x1c>

080077b6 <_malloc_usable_size_r>:
 80077b6:	f851 0c04 	ldr.w	r0, [r1, #-4]
 80077ba:	2800      	cmp	r0, #0
 80077bc:	f1a0 0004 	sub.w	r0, r0, #4
 80077c0:	bfbc      	itt	lt
 80077c2:	580b      	ldrlt	r3, [r1, r0]
 80077c4:	18c0      	addlt	r0, r0, r3
 80077c6:	4770      	bx	lr

080077c8 <_sbrk>:
 80077c8:	4b04      	ldr	r3, [pc, #16]	; (80077dc <_sbrk+0x14>)
 80077ca:	4602      	mov	r2, r0
 80077cc:	6819      	ldr	r1, [r3, #0]
 80077ce:	b909      	cbnz	r1, 80077d4 <_sbrk+0xc>
 80077d0:	4903      	ldr	r1, [pc, #12]	; (80077e0 <_sbrk+0x18>)
 80077d2:	6019      	str	r1, [r3, #0]
 80077d4:	6818      	ldr	r0, [r3, #0]
 80077d6:	4402      	add	r2, r0
 80077d8:	601a      	str	r2, [r3, #0]
 80077da:	4770      	bx	lr
 80077dc:	2000020c 	.word	0x2000020c
 80077e0:	20001000 	.word	0x20001000

080077e4 <_init>:
 80077e4:	b5f8      	push	{r3, r4, r5, r6, r7, lr}
 80077e6:	bf00      	nop
 80077e8:	bcf8      	pop	{r3, r4, r5, r6, r7}
 80077ea:	bc08      	pop	{r3}
 80077ec:	469e      	mov	lr, r3
 80077ee:	4770      	bx	lr

080077f0 <_fini>:
 80077f0:	b5f8      	push	{r3, r4, r5, r6, r7, lr}
 80077f2:	bf00      	nop
 80077f4:	bcf8      	pop	{r3, r4, r5, r6, r7}
 80077f6:	bc08      	pop	{r3}
 80077f8:	469e      	mov	lr, r3
 80077fa:	4770      	bx	lr
